
bin/kernel.elf:     file format elf64-x86-64


Disassembly of section .text:

0000000000200000 <SOmBRA>:
  200000:	0f 01 15 b4 00 21 00 	lgdt   0x2100b4(%rip)        # 4100bb <_g_end+0x1e90bb>
  200007:	ea                   	(bad)  
  200008:	0e                   	(bad)  
  200009:	00 20                	add    %ah,(%rax)
  20000b:	00 08                	add    %cl,(%rax)
	...

000000000020000e <start64>:
  20000e:	fa                   	cli    
  20000f:	66 b9 10 00          	mov    $0x10,%cx
  200013:	8e d9                	mov    %ecx,%ds
  200015:	8e c1                	mov    %ecx,%es
  200017:	8e d1                	mov    %ecx,%ss
  200019:	8e e1                	mov    %ecx,%fs
  20001b:	8e e9                	mov    %ecx,%gs
  20001d:	3d 02 b0 ad 2b       	cmp    $0x2badb002,%eax
  200022:	74 0f                	je     200033 <mb_ok>
  200024:	66 c7 04 25 00 80 0b 	movw   $0x9f42,0xb8000
  20002b:	00 42 9f 
  20002e:	e9 53 00 00 00       	jmpq   200086 <__exit>

0000000000200033 <mb_ok>:
  200033:	48 31 c0             	xor    %rax,%rax
  200036:	89 d8                	mov    %ebx,%eax
  200038:	48 89 04 25 00 d0 20 	mov    %rax,0x20d000
  20003f:	00 
  200040:	48 b9 00 70 22 00 00 	mov    $0x227000,%rcx
  200047:	00 00 00 
  20004a:	48 81 e9 00 40 22 00 	sub    $0x224000,%rcx
  200051:	48 b8 00 00 00 00 00 	mov    $0x0,%rax
  200058:	00 00 00 

000000000020005b <zero_bss>:
  20005b:	c6 80 00 40 22 00 00 	movb   $0x0,0x224000(%rax)
  200062:	48 ff c0             	inc    %rax
  200065:	e2 f4                	loop   20005b <zero_bss>
  200067:	48 bc 00 50 22 00 00 	mov    $0x225000,%rsp
  20006e:	00 00 00 
  200071:	e8 16 00 00 00       	callq  20008c <isr_load_and_setup>
  200076:	68 00 00 00 00       	pushq  $0x0
  20007b:	9d                   	popfq  
  20007c:	e8 9d 31 00 00       	callq  20321e <mmpage_init>
  200081:	e8 ae 36 00 00       	callq  203734 <main>

0000000000200086 <__exit>:
  200086:	f4                   	hlt    
  200087:	e9 fa ff ff ff       	jmpq   200086 <__exit>

000000000020008c <isr_load_and_setup>:
  20008c:	48 8d 04 25 08 d0 20 	lea    0x20d008,%rax
  200093:	00 
  200094:	66 c7 04 25 a4 00 21 	movw   $0x2067,0x2100a4
  20009b:	00 67 20 
  20009e:	66 89 04 25 a6 00 21 	mov    %ax,0x2100a6
  2000a5:	00 
  2000a6:	48 c1 e8 10          	shr    $0x10,%rax
  2000aa:	88 04 25 a8 00 21 00 	mov    %al,0x2100a8
  2000b1:	88 24 25 ab 00 21 00 	mov    %ah,0x2100ab
  2000b8:	48 c1 e8 10          	shr    $0x10,%rax
  2000bc:	89 04 25 ac 00 21 00 	mov    %eax,0x2100ac
  2000c3:	66 b8 28 00          	mov    $0x28,%ax
  2000c7:	0f 00 d8             	ltr    %ax
  2000ca:	48 b9 00 01 00 00 00 	mov    $0x100,%rcx
  2000d1:	00 00 00 
  2000d4:	48 bb 70 f0 20 00 00 	mov    $0x20f070,%rbx
  2000db:	00 00 00 
  2000de:	48 ba 70 10 20 00 00 	mov    $0x201070,%rdx
  2000e5:	00 00 00 

00000000002000e8 <build_idt>:
  2000e8:	48 89 d0             	mov    %rdx,%rax
  2000eb:	66 89 03             	mov    %ax,(%rbx)
  2000ee:	48 c1 e8 10          	shr    $0x10,%rax
  2000f2:	66 89 43 06          	mov    %ax,0x6(%rbx)
  2000f6:	48 c1 e8 10          	shr    $0x10,%rax
  2000fa:	89 43 08             	mov    %eax,0x8(%rbx)
  2000fd:	83 c3 10             	add    $0x10,%ebx
  200100:	83 c2 0a             	add    $0xa,%edx
  200103:	e2 e3                	loop   2000e8 <build_idt>
  200105:	0f 01 1c 25 70 00 21 	lidt   0x210070
  20010c:	00 
  20010d:	c3                   	retq   
	...

0000000000201000 <_g_code>:
  201000:	48 31 c9             	xor    %rcx,%rcx
  201003:	48 31 c0             	xor    %rax,%rax
  201006:	89 f9                	mov    %edi,%ecx
  201008:	81 e1 ff 00 00 00    	and    $0xff,%ecx
  20100e:	48 c1 e1 04          	shl    $0x4,%rcx
  201012:	8a 81 75 f0 20 00    	mov    0x20f075(%rcx),%al
  201018:	89 06                	mov    %eax,(%rsi)
  20101a:	48 31 c9             	xor    %rcx,%rcx
  20101d:	48 8b 04 25 08 60 22 	mov    0x226008,%rax
  201024:	00 
  201025:	89 f9                	mov    %edi,%ecx
  201027:	81 e1 ff 00 00 00    	and    $0xff,%ecx
  20102d:	48 8b 14 c8          	mov    (%rax,%rcx,8),%rdx
  201031:	48 89 56 04          	mov    %rdx,0x4(%rsi)
  201035:	c3                   	retq   

0000000000201036 <isr_set_handler>:
  201036:	48 31 c0             	xor    %rax,%rax
  201039:	48 31 c9             	xor    %rcx,%rcx
  20103c:	8b 06                	mov    (%rsi),%eax
  20103e:	89 f9                	mov    %edi,%ecx
  201040:	48 81 e1 ff 00 00 00 	and    $0xff,%rcx
  201047:	48 c1 e1 04          	shl    $0x4,%rcx
  20104b:	88 81 75 f0 20 00    	mov    %al,0x20f075(%rcx)
  201051:	48 31 c9             	xor    %rcx,%rcx
  201054:	48 8b 04 25 08 60 22 	mov    0x226008,%rax
  20105b:	00 
  20105c:	89 f9                	mov    %edi,%ecx
  20105e:	48 81 e1 ff 00 00 00 	and    $0xff,%rcx
  201065:	48 8b 56 04          	mov    0x4(%rsi),%rdx
  201069:	48 89 14 c8          	mov    %rdx,(%rax,%rcx,8)
  20106d:	c3                   	retq   
  20106e:	90                   	nop
  20106f:	90                   	nop

0000000000201070 <isr00h>:
  201070:	fa                   	cli    
  201071:	6a 00                	pushq  $0x0
  201073:	6a 00                	pushq  $0x0
  201075:	e9 f6 09 00 00       	jmpq   201a70 <isr_handler>

000000000020107a <isr01h>:
  20107a:	fa                   	cli    
  20107b:	6a 00                	pushq  $0x0
  20107d:	6a 01                	pushq  $0x1
  20107f:	e9 ec 09 00 00       	jmpq   201a70 <isr_handler>

0000000000201084 <isr02h>:
  201084:	fa                   	cli    
  201085:	6a 00                	pushq  $0x0
  201087:	6a 02                	pushq  $0x2
  201089:	e9 e2 09 00 00       	jmpq   201a70 <isr_handler>

000000000020108e <isr03h>:
  20108e:	fa                   	cli    
  20108f:	6a 00                	pushq  $0x0
  201091:	6a 03                	pushq  $0x3
  201093:	e9 d8 09 00 00       	jmpq   201a70 <isr_handler>

0000000000201098 <isr04h>:
  201098:	fa                   	cli    
  201099:	6a 00                	pushq  $0x0
  20109b:	6a 04                	pushq  $0x4
  20109d:	e9 ce 09 00 00       	jmpq   201a70 <isr_handler>

00000000002010a2 <isr05h>:
  2010a2:	fa                   	cli    
  2010a3:	6a 00                	pushq  $0x0
  2010a5:	6a 05                	pushq  $0x5
  2010a7:	e9 c4 09 00 00       	jmpq   201a70 <isr_handler>

00000000002010ac <isr06h>:
  2010ac:	fa                   	cli    
  2010ad:	6a 00                	pushq  $0x0
  2010af:	6a 06                	pushq  $0x6
  2010b1:	e9 ba 09 00 00       	jmpq   201a70 <isr_handler>

00000000002010b6 <isr07h>:
  2010b6:	fa                   	cli    
  2010b7:	6a 00                	pushq  $0x0
  2010b9:	6a 07                	pushq  $0x7
  2010bb:	e9 b0 09 00 00       	jmpq   201a70 <isr_handler>

00000000002010c0 <isr08h>:
  2010c0:	fa                   	cli    
  2010c1:	90                   	nop
  2010c2:	90                   	nop
  2010c3:	6a 08                	pushq  $0x8
  2010c5:	e9 a6 09 00 00       	jmpq   201a70 <isr_handler>

00000000002010ca <isr09h>:
  2010ca:	fa                   	cli    
  2010cb:	6a 00                	pushq  $0x0
  2010cd:	6a 09                	pushq  $0x9
  2010cf:	e9 9c 09 00 00       	jmpq   201a70 <isr_handler>

00000000002010d4 <isr0Ah>:
  2010d4:	fa                   	cli    
  2010d5:	90                   	nop
  2010d6:	90                   	nop
  2010d7:	6a 0a                	pushq  $0xa
  2010d9:	e9 92 09 00 00       	jmpq   201a70 <isr_handler>

00000000002010de <isr0Bh>:
  2010de:	fa                   	cli    
  2010df:	90                   	nop
  2010e0:	90                   	nop
  2010e1:	6a 0b                	pushq  $0xb
  2010e3:	e9 88 09 00 00       	jmpq   201a70 <isr_handler>

00000000002010e8 <isr0Ch>:
  2010e8:	fa                   	cli    
  2010e9:	90                   	nop
  2010ea:	90                   	nop
  2010eb:	6a 0c                	pushq  $0xc
  2010ed:	e9 7e 09 00 00       	jmpq   201a70 <isr_handler>

00000000002010f2 <isr0Dh>:
  2010f2:	fa                   	cli    
  2010f3:	90                   	nop
  2010f4:	90                   	nop
  2010f5:	6a 0d                	pushq  $0xd
  2010f7:	e9 74 09 00 00       	jmpq   201a70 <isr_handler>

00000000002010fc <isr0Eh>:
  2010fc:	fa                   	cli    
  2010fd:	90                   	nop
  2010fe:	90                   	nop
  2010ff:	6a 0e                	pushq  $0xe
  201101:	e9 6a 09 00 00       	jmpq   201a70 <isr_handler>

0000000000201106 <isr0Fh>:
  201106:	fa                   	cli    
  201107:	6a 00                	pushq  $0x0
  201109:	6a 0f                	pushq  $0xf
  20110b:	e9 60 09 00 00       	jmpq   201a70 <isr_handler>

0000000000201110 <isr10h>:
  201110:	fa                   	cli    
  201111:	6a 00                	pushq  $0x0
  201113:	6a 10                	pushq  $0x10
  201115:	e9 56 09 00 00       	jmpq   201a70 <isr_handler>

000000000020111a <isr11h>:
  20111a:	fa                   	cli    
  20111b:	6a 00                	pushq  $0x0
  20111d:	6a 11                	pushq  $0x11
  20111f:	e9 4c 09 00 00       	jmpq   201a70 <isr_handler>

0000000000201124 <isr12h>:
  201124:	fa                   	cli    
  201125:	6a 00                	pushq  $0x0
  201127:	6a 12                	pushq  $0x12
  201129:	e9 42 09 00 00       	jmpq   201a70 <isr_handler>

000000000020112e <isr13h>:
  20112e:	fa                   	cli    
  20112f:	6a 00                	pushq  $0x0
  201131:	6a 13                	pushq  $0x13
  201133:	e9 38 09 00 00       	jmpq   201a70 <isr_handler>

0000000000201138 <isr14h>:
  201138:	fa                   	cli    
  201139:	6a 00                	pushq  $0x0
  20113b:	6a 14                	pushq  $0x14
  20113d:	e9 2e 09 00 00       	jmpq   201a70 <isr_handler>

0000000000201142 <isr15h>:
  201142:	fa                   	cli    
  201143:	6a 00                	pushq  $0x0
  201145:	6a 15                	pushq  $0x15
  201147:	e9 24 09 00 00       	jmpq   201a70 <isr_handler>

000000000020114c <isr16h>:
  20114c:	fa                   	cli    
  20114d:	6a 00                	pushq  $0x0
  20114f:	6a 16                	pushq  $0x16
  201151:	e9 1a 09 00 00       	jmpq   201a70 <isr_handler>

0000000000201156 <isr17h>:
  201156:	fa                   	cli    
  201157:	6a 00                	pushq  $0x0
  201159:	6a 17                	pushq  $0x17
  20115b:	e9 10 09 00 00       	jmpq   201a70 <isr_handler>

0000000000201160 <isr18h>:
  201160:	fa                   	cli    
  201161:	6a 00                	pushq  $0x0
  201163:	6a 18                	pushq  $0x18
  201165:	e9 06 09 00 00       	jmpq   201a70 <isr_handler>

000000000020116a <isr19h>:
  20116a:	fa                   	cli    
  20116b:	6a 00                	pushq  $0x0
  20116d:	6a 19                	pushq  $0x19
  20116f:	e9 fc 08 00 00       	jmpq   201a70 <isr_handler>

0000000000201174 <isr1Ah>:
  201174:	fa                   	cli    
  201175:	6a 00                	pushq  $0x0
  201177:	6a 1a                	pushq  $0x1a
  201179:	e9 f2 08 00 00       	jmpq   201a70 <isr_handler>

000000000020117e <isr1Bh>:
  20117e:	fa                   	cli    
  20117f:	6a 00                	pushq  $0x0
  201181:	6a 1b                	pushq  $0x1b
  201183:	e9 e8 08 00 00       	jmpq   201a70 <isr_handler>

0000000000201188 <isr1Ch>:
  201188:	fa                   	cli    
  201189:	6a 00                	pushq  $0x0
  20118b:	6a 1c                	pushq  $0x1c
  20118d:	e9 de 08 00 00       	jmpq   201a70 <isr_handler>

0000000000201192 <isr1Dh>:
  201192:	fa                   	cli    
  201193:	6a 00                	pushq  $0x0
  201195:	6a 1d                	pushq  $0x1d
  201197:	e9 d4 08 00 00       	jmpq   201a70 <isr_handler>

000000000020119c <isr1Eh>:
  20119c:	fa                   	cli    
  20119d:	6a 00                	pushq  $0x0
  20119f:	6a 1e                	pushq  $0x1e
  2011a1:	e9 ca 08 00 00       	jmpq   201a70 <isr_handler>

00000000002011a6 <isr1Fh>:
  2011a6:	fa                   	cli    
  2011a7:	6a 00                	pushq  $0x0
  2011a9:	6a 1f                	pushq  $0x1f
  2011ab:	e9 c0 08 00 00       	jmpq   201a70 <isr_handler>

00000000002011b0 <isr20h>:
  2011b0:	fa                   	cli    
  2011b1:	6a 00                	pushq  $0x0
  2011b3:	6a 20                	pushq  $0x20
  2011b5:	e9 b6 08 00 00       	jmpq   201a70 <isr_handler>

00000000002011ba <isr21h>:
  2011ba:	fa                   	cli    
  2011bb:	6a 00                	pushq  $0x0
  2011bd:	6a 21                	pushq  $0x21
  2011bf:	e9 ac 08 00 00       	jmpq   201a70 <isr_handler>

00000000002011c4 <isr22h>:
  2011c4:	fa                   	cli    
  2011c5:	6a 00                	pushq  $0x0
  2011c7:	6a 22                	pushq  $0x22
  2011c9:	e9 a2 08 00 00       	jmpq   201a70 <isr_handler>

00000000002011ce <isr23h>:
  2011ce:	fa                   	cli    
  2011cf:	6a 00                	pushq  $0x0
  2011d1:	6a 23                	pushq  $0x23
  2011d3:	e9 98 08 00 00       	jmpq   201a70 <isr_handler>

00000000002011d8 <isr24h>:
  2011d8:	fa                   	cli    
  2011d9:	6a 00                	pushq  $0x0
  2011db:	6a 24                	pushq  $0x24
  2011dd:	e9 8e 08 00 00       	jmpq   201a70 <isr_handler>

00000000002011e2 <isr25h>:
  2011e2:	fa                   	cli    
  2011e3:	6a 00                	pushq  $0x0
  2011e5:	6a 25                	pushq  $0x25
  2011e7:	e9 84 08 00 00       	jmpq   201a70 <isr_handler>

00000000002011ec <isr26h>:
  2011ec:	fa                   	cli    
  2011ed:	6a 00                	pushq  $0x0
  2011ef:	6a 26                	pushq  $0x26
  2011f1:	e9 7a 08 00 00       	jmpq   201a70 <isr_handler>

00000000002011f6 <isr27h>:
  2011f6:	fa                   	cli    
  2011f7:	6a 00                	pushq  $0x0
  2011f9:	6a 27                	pushq  $0x27
  2011fb:	e9 70 08 00 00       	jmpq   201a70 <isr_handler>

0000000000201200 <isr28h>:
  201200:	fa                   	cli    
  201201:	6a 00                	pushq  $0x0
  201203:	6a 28                	pushq  $0x28
  201205:	e9 66 08 00 00       	jmpq   201a70 <isr_handler>

000000000020120a <isr29h>:
  20120a:	fa                   	cli    
  20120b:	6a 00                	pushq  $0x0
  20120d:	6a 29                	pushq  $0x29
  20120f:	e9 5c 08 00 00       	jmpq   201a70 <isr_handler>

0000000000201214 <isr2Ah>:
  201214:	fa                   	cli    
  201215:	6a 00                	pushq  $0x0
  201217:	6a 2a                	pushq  $0x2a
  201219:	e9 52 08 00 00       	jmpq   201a70 <isr_handler>

000000000020121e <isr2Bh>:
  20121e:	fa                   	cli    
  20121f:	6a 00                	pushq  $0x0
  201221:	6a 2b                	pushq  $0x2b
  201223:	e9 48 08 00 00       	jmpq   201a70 <isr_handler>

0000000000201228 <isr2Ch>:
  201228:	fa                   	cli    
  201229:	6a 00                	pushq  $0x0
  20122b:	6a 2c                	pushq  $0x2c
  20122d:	e9 3e 08 00 00       	jmpq   201a70 <isr_handler>

0000000000201232 <isr2Dh>:
  201232:	fa                   	cli    
  201233:	6a 00                	pushq  $0x0
  201235:	6a 2d                	pushq  $0x2d
  201237:	e9 34 08 00 00       	jmpq   201a70 <isr_handler>

000000000020123c <isr2Eh>:
  20123c:	fa                   	cli    
  20123d:	6a 00                	pushq  $0x0
  20123f:	6a 2e                	pushq  $0x2e
  201241:	e9 2a 08 00 00       	jmpq   201a70 <isr_handler>

0000000000201246 <isr2Fh>:
  201246:	fa                   	cli    
  201247:	6a 00                	pushq  $0x0
  201249:	6a 2f                	pushq  $0x2f
  20124b:	e9 20 08 00 00       	jmpq   201a70 <isr_handler>

0000000000201250 <isr30h>:
  201250:	fa                   	cli    
  201251:	6a 00                	pushq  $0x0
  201253:	6a 30                	pushq  $0x30
  201255:	e9 16 08 00 00       	jmpq   201a70 <isr_handler>

000000000020125a <isr49>:
  20125a:	fa                   	cli    
  20125b:	6a 00                	pushq  $0x0
  20125d:	6a 31                	pushq  $0x31
  20125f:	e9 0c 08 00 00       	jmpq   201a70 <isr_handler>

0000000000201264 <isr50>:
  201264:	fa                   	cli    
  201265:	6a 00                	pushq  $0x0
  201267:	6a 32                	pushq  $0x32
  201269:	e9 02 08 00 00       	jmpq   201a70 <isr_handler>

000000000020126e <isr51>:
  20126e:	fa                   	cli    
  20126f:	6a 00                	pushq  $0x0
  201271:	6a 33                	pushq  $0x33
  201273:	e9 f8 07 00 00       	jmpq   201a70 <isr_handler>

0000000000201278 <isr52>:
  201278:	fa                   	cli    
  201279:	6a 00                	pushq  $0x0
  20127b:	6a 34                	pushq  $0x34
  20127d:	e9 ee 07 00 00       	jmpq   201a70 <isr_handler>

0000000000201282 <isr53>:
  201282:	fa                   	cli    
  201283:	6a 00                	pushq  $0x0
  201285:	6a 35                	pushq  $0x35
  201287:	e9 e4 07 00 00       	jmpq   201a70 <isr_handler>

000000000020128c <isr54>:
  20128c:	fa                   	cli    
  20128d:	6a 00                	pushq  $0x0
  20128f:	6a 36                	pushq  $0x36
  201291:	e9 da 07 00 00       	jmpq   201a70 <isr_handler>

0000000000201296 <isr55>:
  201296:	fa                   	cli    
  201297:	6a 00                	pushq  $0x0
  201299:	6a 37                	pushq  $0x37
  20129b:	e9 d0 07 00 00       	jmpq   201a70 <isr_handler>

00000000002012a0 <isr56>:
  2012a0:	fa                   	cli    
  2012a1:	6a 00                	pushq  $0x0
  2012a3:	6a 38                	pushq  $0x38
  2012a5:	e9 c6 07 00 00       	jmpq   201a70 <isr_handler>

00000000002012aa <isr57>:
  2012aa:	fa                   	cli    
  2012ab:	6a 00                	pushq  $0x0
  2012ad:	6a 39                	pushq  $0x39
  2012af:	e9 bc 07 00 00       	jmpq   201a70 <isr_handler>

00000000002012b4 <isr58>:
  2012b4:	fa                   	cli    
  2012b5:	6a 00                	pushq  $0x0
  2012b7:	6a 3a                	pushq  $0x3a
  2012b9:	e9 b2 07 00 00       	jmpq   201a70 <isr_handler>

00000000002012be <isr59>:
  2012be:	fa                   	cli    
  2012bf:	6a 00                	pushq  $0x0
  2012c1:	6a 3b                	pushq  $0x3b
  2012c3:	e9 a8 07 00 00       	jmpq   201a70 <isr_handler>

00000000002012c8 <isr60>:
  2012c8:	fa                   	cli    
  2012c9:	6a 00                	pushq  $0x0
  2012cb:	6a 3c                	pushq  $0x3c
  2012cd:	e9 9e 07 00 00       	jmpq   201a70 <isr_handler>

00000000002012d2 <isr61>:
  2012d2:	fa                   	cli    
  2012d3:	6a 00                	pushq  $0x0
  2012d5:	6a 3d                	pushq  $0x3d
  2012d7:	e9 94 07 00 00       	jmpq   201a70 <isr_handler>

00000000002012dc <isr62>:
  2012dc:	fa                   	cli    
  2012dd:	6a 00                	pushq  $0x0
  2012df:	6a 3e                	pushq  $0x3e
  2012e1:	e9 8a 07 00 00       	jmpq   201a70 <isr_handler>

00000000002012e6 <isr63>:
  2012e6:	fa                   	cli    
  2012e7:	6a 00                	pushq  $0x0
  2012e9:	6a 3f                	pushq  $0x3f
  2012eb:	e9 80 07 00 00       	jmpq   201a70 <isr_handler>

00000000002012f0 <isr64>:
  2012f0:	fa                   	cli    
  2012f1:	6a 00                	pushq  $0x0
  2012f3:	6a 40                	pushq  $0x40
  2012f5:	e9 76 07 00 00       	jmpq   201a70 <isr_handler>

00000000002012fa <isr65>:
  2012fa:	fa                   	cli    
  2012fb:	6a 00                	pushq  $0x0
  2012fd:	6a 41                	pushq  $0x41
  2012ff:	e9 6c 07 00 00       	jmpq   201a70 <isr_handler>

0000000000201304 <isr66>:
  201304:	fa                   	cli    
  201305:	6a 00                	pushq  $0x0
  201307:	6a 42                	pushq  $0x42
  201309:	e9 62 07 00 00       	jmpq   201a70 <isr_handler>

000000000020130e <isr67>:
  20130e:	fa                   	cli    
  20130f:	6a 00                	pushq  $0x0
  201311:	6a 43                	pushq  $0x43
  201313:	e9 58 07 00 00       	jmpq   201a70 <isr_handler>

0000000000201318 <isr68>:
  201318:	fa                   	cli    
  201319:	6a 00                	pushq  $0x0
  20131b:	6a 44                	pushq  $0x44
  20131d:	e9 4e 07 00 00       	jmpq   201a70 <isr_handler>

0000000000201322 <isr69>:
  201322:	fa                   	cli    
  201323:	6a 00                	pushq  $0x0
  201325:	6a 45                	pushq  $0x45
  201327:	e9 44 07 00 00       	jmpq   201a70 <isr_handler>

000000000020132c <isr70>:
  20132c:	fa                   	cli    
  20132d:	6a 00                	pushq  $0x0
  20132f:	6a 46                	pushq  $0x46
  201331:	e9 3a 07 00 00       	jmpq   201a70 <isr_handler>

0000000000201336 <isr71>:
  201336:	fa                   	cli    
  201337:	6a 00                	pushq  $0x0
  201339:	6a 47                	pushq  $0x47
  20133b:	e9 30 07 00 00       	jmpq   201a70 <isr_handler>

0000000000201340 <isr72>:
  201340:	fa                   	cli    
  201341:	6a 00                	pushq  $0x0
  201343:	6a 48                	pushq  $0x48
  201345:	e9 26 07 00 00       	jmpq   201a70 <isr_handler>

000000000020134a <isr73>:
  20134a:	fa                   	cli    
  20134b:	6a 00                	pushq  $0x0
  20134d:	6a 49                	pushq  $0x49
  20134f:	e9 1c 07 00 00       	jmpq   201a70 <isr_handler>

0000000000201354 <isr74>:
  201354:	fa                   	cli    
  201355:	6a 00                	pushq  $0x0
  201357:	6a 4a                	pushq  $0x4a
  201359:	e9 12 07 00 00       	jmpq   201a70 <isr_handler>

000000000020135e <isr75>:
  20135e:	fa                   	cli    
  20135f:	6a 00                	pushq  $0x0
  201361:	6a 4b                	pushq  $0x4b
  201363:	e9 08 07 00 00       	jmpq   201a70 <isr_handler>

0000000000201368 <isr76>:
  201368:	fa                   	cli    
  201369:	6a 00                	pushq  $0x0
  20136b:	6a 4c                	pushq  $0x4c
  20136d:	e9 fe 06 00 00       	jmpq   201a70 <isr_handler>

0000000000201372 <isr77>:
  201372:	fa                   	cli    
  201373:	6a 00                	pushq  $0x0
  201375:	6a 4d                	pushq  $0x4d
  201377:	e9 f4 06 00 00       	jmpq   201a70 <isr_handler>

000000000020137c <isr78>:
  20137c:	fa                   	cli    
  20137d:	6a 00                	pushq  $0x0
  20137f:	6a 4e                	pushq  $0x4e
  201381:	e9 ea 06 00 00       	jmpq   201a70 <isr_handler>

0000000000201386 <isr79>:
  201386:	fa                   	cli    
  201387:	6a 00                	pushq  $0x0
  201389:	6a 4f                	pushq  $0x4f
  20138b:	e9 e0 06 00 00       	jmpq   201a70 <isr_handler>

0000000000201390 <isr80>:
  201390:	fa                   	cli    
  201391:	6a 00                	pushq  $0x0
  201393:	6a 50                	pushq  $0x50
  201395:	e9 d6 06 00 00       	jmpq   201a70 <isr_handler>

000000000020139a <isr81>:
  20139a:	fa                   	cli    
  20139b:	6a 00                	pushq  $0x0
  20139d:	6a 51                	pushq  $0x51
  20139f:	e9 cc 06 00 00       	jmpq   201a70 <isr_handler>

00000000002013a4 <isr82>:
  2013a4:	fa                   	cli    
  2013a5:	6a 00                	pushq  $0x0
  2013a7:	6a 52                	pushq  $0x52
  2013a9:	e9 c2 06 00 00       	jmpq   201a70 <isr_handler>

00000000002013ae <isr83>:
  2013ae:	fa                   	cli    
  2013af:	6a 00                	pushq  $0x0
  2013b1:	6a 53                	pushq  $0x53
  2013b3:	e9 b8 06 00 00       	jmpq   201a70 <isr_handler>

00000000002013b8 <isr84>:
  2013b8:	fa                   	cli    
  2013b9:	6a 00                	pushq  $0x0
  2013bb:	6a 54                	pushq  $0x54
  2013bd:	e9 ae 06 00 00       	jmpq   201a70 <isr_handler>

00000000002013c2 <isr85>:
  2013c2:	fa                   	cli    
  2013c3:	6a 00                	pushq  $0x0
  2013c5:	6a 55                	pushq  $0x55
  2013c7:	e9 a4 06 00 00       	jmpq   201a70 <isr_handler>

00000000002013cc <isr86>:
  2013cc:	fa                   	cli    
  2013cd:	6a 00                	pushq  $0x0
  2013cf:	6a 56                	pushq  $0x56
  2013d1:	e9 9a 06 00 00       	jmpq   201a70 <isr_handler>

00000000002013d6 <isr87>:
  2013d6:	fa                   	cli    
  2013d7:	6a 00                	pushq  $0x0
  2013d9:	6a 57                	pushq  $0x57
  2013db:	e9 90 06 00 00       	jmpq   201a70 <isr_handler>

00000000002013e0 <isr88>:
  2013e0:	fa                   	cli    
  2013e1:	6a 00                	pushq  $0x0
  2013e3:	6a 58                	pushq  $0x58
  2013e5:	e9 86 06 00 00       	jmpq   201a70 <isr_handler>

00000000002013ea <isr89>:
  2013ea:	fa                   	cli    
  2013eb:	6a 00                	pushq  $0x0
  2013ed:	6a 59                	pushq  $0x59
  2013ef:	e9 7c 06 00 00       	jmpq   201a70 <isr_handler>

00000000002013f4 <isr90>:
  2013f4:	fa                   	cli    
  2013f5:	6a 00                	pushq  $0x0
  2013f7:	6a 5a                	pushq  $0x5a
  2013f9:	e9 72 06 00 00       	jmpq   201a70 <isr_handler>

00000000002013fe <isr91>:
  2013fe:	fa                   	cli    
  2013ff:	6a 00                	pushq  $0x0
  201401:	6a 5b                	pushq  $0x5b
  201403:	e9 68 06 00 00       	jmpq   201a70 <isr_handler>

0000000000201408 <isr92>:
  201408:	fa                   	cli    
  201409:	6a 00                	pushq  $0x0
  20140b:	6a 5c                	pushq  $0x5c
  20140d:	e9 5e 06 00 00       	jmpq   201a70 <isr_handler>

0000000000201412 <isr93>:
  201412:	fa                   	cli    
  201413:	6a 00                	pushq  $0x0
  201415:	6a 5d                	pushq  $0x5d
  201417:	e9 54 06 00 00       	jmpq   201a70 <isr_handler>

000000000020141c <isr94>:
  20141c:	fa                   	cli    
  20141d:	6a 00                	pushq  $0x0
  20141f:	6a 5e                	pushq  $0x5e
  201421:	e9 4a 06 00 00       	jmpq   201a70 <isr_handler>

0000000000201426 <isr95>:
  201426:	fa                   	cli    
  201427:	6a 00                	pushq  $0x0
  201429:	6a 5f                	pushq  $0x5f
  20142b:	e9 40 06 00 00       	jmpq   201a70 <isr_handler>

0000000000201430 <isr96>:
  201430:	fa                   	cli    
  201431:	6a 00                	pushq  $0x0
  201433:	6a 60                	pushq  $0x60
  201435:	e9 36 06 00 00       	jmpq   201a70 <isr_handler>

000000000020143a <isr97>:
  20143a:	fa                   	cli    
  20143b:	6a 00                	pushq  $0x0
  20143d:	6a 61                	pushq  $0x61
  20143f:	e9 2c 06 00 00       	jmpq   201a70 <isr_handler>

0000000000201444 <isr98>:
  201444:	fa                   	cli    
  201445:	6a 00                	pushq  $0x0
  201447:	6a 62                	pushq  $0x62
  201449:	e9 22 06 00 00       	jmpq   201a70 <isr_handler>

000000000020144e <isr99>:
  20144e:	fa                   	cli    
  20144f:	6a 00                	pushq  $0x0
  201451:	6a 63                	pushq  $0x63
  201453:	e9 18 06 00 00       	jmpq   201a70 <isr_handler>

0000000000201458 <isr100>:
  201458:	fa                   	cli    
  201459:	6a 00                	pushq  $0x0
  20145b:	6a 64                	pushq  $0x64
  20145d:	e9 0e 06 00 00       	jmpq   201a70 <isr_handler>

0000000000201462 <isr101>:
  201462:	fa                   	cli    
  201463:	6a 00                	pushq  $0x0
  201465:	6a 65                	pushq  $0x65
  201467:	e9 04 06 00 00       	jmpq   201a70 <isr_handler>

000000000020146c <isr102>:
  20146c:	fa                   	cli    
  20146d:	6a 00                	pushq  $0x0
  20146f:	6a 66                	pushq  $0x66
  201471:	e9 fa 05 00 00       	jmpq   201a70 <isr_handler>

0000000000201476 <isr103>:
  201476:	fa                   	cli    
  201477:	6a 00                	pushq  $0x0
  201479:	6a 67                	pushq  $0x67
  20147b:	e9 f0 05 00 00       	jmpq   201a70 <isr_handler>

0000000000201480 <isr104>:
  201480:	fa                   	cli    
  201481:	6a 00                	pushq  $0x0
  201483:	6a 68                	pushq  $0x68
  201485:	e9 e6 05 00 00       	jmpq   201a70 <isr_handler>

000000000020148a <isr105>:
  20148a:	fa                   	cli    
  20148b:	6a 00                	pushq  $0x0
  20148d:	6a 69                	pushq  $0x69
  20148f:	e9 dc 05 00 00       	jmpq   201a70 <isr_handler>

0000000000201494 <isr106>:
  201494:	fa                   	cli    
  201495:	6a 00                	pushq  $0x0
  201497:	6a 6a                	pushq  $0x6a
  201499:	e9 d2 05 00 00       	jmpq   201a70 <isr_handler>

000000000020149e <isr107>:
  20149e:	fa                   	cli    
  20149f:	6a 00                	pushq  $0x0
  2014a1:	6a 6b                	pushq  $0x6b
  2014a3:	e9 c8 05 00 00       	jmpq   201a70 <isr_handler>

00000000002014a8 <isr108>:
  2014a8:	fa                   	cli    
  2014a9:	6a 00                	pushq  $0x0
  2014ab:	6a 6c                	pushq  $0x6c
  2014ad:	e9 be 05 00 00       	jmpq   201a70 <isr_handler>

00000000002014b2 <isr109>:
  2014b2:	fa                   	cli    
  2014b3:	6a 00                	pushq  $0x0
  2014b5:	6a 6d                	pushq  $0x6d
  2014b7:	e9 b4 05 00 00       	jmpq   201a70 <isr_handler>

00000000002014bc <isr110>:
  2014bc:	fa                   	cli    
  2014bd:	6a 00                	pushq  $0x0
  2014bf:	6a 6e                	pushq  $0x6e
  2014c1:	e9 aa 05 00 00       	jmpq   201a70 <isr_handler>

00000000002014c6 <isr111>:
  2014c6:	fa                   	cli    
  2014c7:	6a 00                	pushq  $0x0
  2014c9:	6a 6f                	pushq  $0x6f
  2014cb:	e9 a0 05 00 00       	jmpq   201a70 <isr_handler>

00000000002014d0 <isr112>:
  2014d0:	fa                   	cli    
  2014d1:	6a 00                	pushq  $0x0
  2014d3:	6a 70                	pushq  $0x70
  2014d5:	e9 96 05 00 00       	jmpq   201a70 <isr_handler>

00000000002014da <isr113>:
  2014da:	fa                   	cli    
  2014db:	6a 00                	pushq  $0x0
  2014dd:	6a 71                	pushq  $0x71
  2014df:	e9 8c 05 00 00       	jmpq   201a70 <isr_handler>

00000000002014e4 <isr114>:
  2014e4:	fa                   	cli    
  2014e5:	6a 00                	pushq  $0x0
  2014e7:	6a 72                	pushq  $0x72
  2014e9:	e9 82 05 00 00       	jmpq   201a70 <isr_handler>

00000000002014ee <isr115>:
  2014ee:	fa                   	cli    
  2014ef:	6a 00                	pushq  $0x0
  2014f1:	6a 73                	pushq  $0x73
  2014f3:	e9 78 05 00 00       	jmpq   201a70 <isr_handler>

00000000002014f8 <isr116>:
  2014f8:	fa                   	cli    
  2014f9:	6a 00                	pushq  $0x0
  2014fb:	6a 74                	pushq  $0x74
  2014fd:	e9 6e 05 00 00       	jmpq   201a70 <isr_handler>

0000000000201502 <isr117>:
  201502:	fa                   	cli    
  201503:	6a 00                	pushq  $0x0
  201505:	6a 75                	pushq  $0x75
  201507:	e9 64 05 00 00       	jmpq   201a70 <isr_handler>

000000000020150c <isr118>:
  20150c:	fa                   	cli    
  20150d:	6a 00                	pushq  $0x0
  20150f:	6a 76                	pushq  $0x76
  201511:	e9 5a 05 00 00       	jmpq   201a70 <isr_handler>

0000000000201516 <isr119>:
  201516:	fa                   	cli    
  201517:	6a 00                	pushq  $0x0
  201519:	6a 77                	pushq  $0x77
  20151b:	e9 50 05 00 00       	jmpq   201a70 <isr_handler>

0000000000201520 <isr120>:
  201520:	fa                   	cli    
  201521:	6a 00                	pushq  $0x0
  201523:	6a 78                	pushq  $0x78
  201525:	e9 46 05 00 00       	jmpq   201a70 <isr_handler>

000000000020152a <isr121>:
  20152a:	fa                   	cli    
  20152b:	6a 00                	pushq  $0x0
  20152d:	6a 79                	pushq  $0x79
  20152f:	e9 3c 05 00 00       	jmpq   201a70 <isr_handler>

0000000000201534 <isr122>:
  201534:	fa                   	cli    
  201535:	6a 00                	pushq  $0x0
  201537:	6a 7a                	pushq  $0x7a
  201539:	e9 32 05 00 00       	jmpq   201a70 <isr_handler>

000000000020153e <isr123>:
  20153e:	fa                   	cli    
  20153f:	6a 00                	pushq  $0x0
  201541:	6a 7b                	pushq  $0x7b
  201543:	e9 28 05 00 00       	jmpq   201a70 <isr_handler>

0000000000201548 <isr124>:
  201548:	fa                   	cli    
  201549:	6a 00                	pushq  $0x0
  20154b:	6a 7c                	pushq  $0x7c
  20154d:	e9 1e 05 00 00       	jmpq   201a70 <isr_handler>

0000000000201552 <isr125>:
  201552:	fa                   	cli    
  201553:	6a 00                	pushq  $0x0
  201555:	6a 7d                	pushq  $0x7d
  201557:	e9 14 05 00 00       	jmpq   201a70 <isr_handler>

000000000020155c <isr126>:
  20155c:	fa                   	cli    
  20155d:	6a 00                	pushq  $0x0
  20155f:	6a 7e                	pushq  $0x7e
  201561:	e9 0a 05 00 00       	jmpq   201a70 <isr_handler>

0000000000201566 <isr127>:
  201566:	fa                   	cli    
  201567:	6a 00                	pushq  $0x0
  201569:	6a 7f                	pushq  $0x7f
  20156b:	e9 00 05 00 00       	jmpq   201a70 <isr_handler>

0000000000201570 <isr128>:
  201570:	fa                   	cli    
  201571:	6a 00                	pushq  $0x0
  201573:	6a 80                	pushq  $0xffffffffffffff80
  201575:	e9 f6 04 00 00       	jmpq   201a70 <isr_handler>

000000000020157a <isr129>:
  20157a:	fa                   	cli    
  20157b:	6a 00                	pushq  $0x0
  20157d:	6a 81                	pushq  $0xffffffffffffff81
  20157f:	e9 ec 04 00 00       	jmpq   201a70 <isr_handler>

0000000000201584 <isr130>:
  201584:	fa                   	cli    
  201585:	6a 00                	pushq  $0x0
  201587:	6a 82                	pushq  $0xffffffffffffff82
  201589:	e9 e2 04 00 00       	jmpq   201a70 <isr_handler>

000000000020158e <isr131>:
  20158e:	fa                   	cli    
  20158f:	6a 00                	pushq  $0x0
  201591:	6a 83                	pushq  $0xffffffffffffff83
  201593:	e9 d8 04 00 00       	jmpq   201a70 <isr_handler>

0000000000201598 <isr132>:
  201598:	fa                   	cli    
  201599:	6a 00                	pushq  $0x0
  20159b:	6a 84                	pushq  $0xffffffffffffff84
  20159d:	e9 ce 04 00 00       	jmpq   201a70 <isr_handler>

00000000002015a2 <isr133>:
  2015a2:	fa                   	cli    
  2015a3:	6a 00                	pushq  $0x0
  2015a5:	6a 85                	pushq  $0xffffffffffffff85
  2015a7:	e9 c4 04 00 00       	jmpq   201a70 <isr_handler>

00000000002015ac <isr134>:
  2015ac:	fa                   	cli    
  2015ad:	6a 00                	pushq  $0x0
  2015af:	6a 86                	pushq  $0xffffffffffffff86
  2015b1:	e9 ba 04 00 00       	jmpq   201a70 <isr_handler>

00000000002015b6 <isr135>:
  2015b6:	fa                   	cli    
  2015b7:	6a 00                	pushq  $0x0
  2015b9:	6a 87                	pushq  $0xffffffffffffff87
  2015bb:	e9 b0 04 00 00       	jmpq   201a70 <isr_handler>

00000000002015c0 <isr136>:
  2015c0:	fa                   	cli    
  2015c1:	6a 00                	pushq  $0x0
  2015c3:	6a 88                	pushq  $0xffffffffffffff88
  2015c5:	e9 a6 04 00 00       	jmpq   201a70 <isr_handler>

00000000002015ca <isr137>:
  2015ca:	fa                   	cli    
  2015cb:	6a 00                	pushq  $0x0
  2015cd:	6a 89                	pushq  $0xffffffffffffff89
  2015cf:	e9 9c 04 00 00       	jmpq   201a70 <isr_handler>

00000000002015d4 <isr138>:
  2015d4:	fa                   	cli    
  2015d5:	6a 00                	pushq  $0x0
  2015d7:	6a 8a                	pushq  $0xffffffffffffff8a
  2015d9:	e9 92 04 00 00       	jmpq   201a70 <isr_handler>

00000000002015de <isr139>:
  2015de:	fa                   	cli    
  2015df:	6a 00                	pushq  $0x0
  2015e1:	6a 8b                	pushq  $0xffffffffffffff8b
  2015e3:	e9 88 04 00 00       	jmpq   201a70 <isr_handler>

00000000002015e8 <isr140>:
  2015e8:	fa                   	cli    
  2015e9:	6a 00                	pushq  $0x0
  2015eb:	6a 8c                	pushq  $0xffffffffffffff8c
  2015ed:	e9 7e 04 00 00       	jmpq   201a70 <isr_handler>

00000000002015f2 <isr141>:
  2015f2:	fa                   	cli    
  2015f3:	6a 00                	pushq  $0x0
  2015f5:	6a 8d                	pushq  $0xffffffffffffff8d
  2015f7:	e9 74 04 00 00       	jmpq   201a70 <isr_handler>

00000000002015fc <isr142>:
  2015fc:	fa                   	cli    
  2015fd:	6a 00                	pushq  $0x0
  2015ff:	6a 8e                	pushq  $0xffffffffffffff8e
  201601:	e9 6a 04 00 00       	jmpq   201a70 <isr_handler>

0000000000201606 <isr143>:
  201606:	fa                   	cli    
  201607:	6a 00                	pushq  $0x0
  201609:	6a 8f                	pushq  $0xffffffffffffff8f
  20160b:	e9 60 04 00 00       	jmpq   201a70 <isr_handler>

0000000000201610 <isr144>:
  201610:	fa                   	cli    
  201611:	6a 00                	pushq  $0x0
  201613:	6a 90                	pushq  $0xffffffffffffff90
  201615:	e9 56 04 00 00       	jmpq   201a70 <isr_handler>

000000000020161a <isr145>:
  20161a:	fa                   	cli    
  20161b:	6a 00                	pushq  $0x0
  20161d:	6a 91                	pushq  $0xffffffffffffff91
  20161f:	e9 4c 04 00 00       	jmpq   201a70 <isr_handler>

0000000000201624 <isr146>:
  201624:	fa                   	cli    
  201625:	6a 00                	pushq  $0x0
  201627:	6a 92                	pushq  $0xffffffffffffff92
  201629:	e9 42 04 00 00       	jmpq   201a70 <isr_handler>

000000000020162e <isr147>:
  20162e:	fa                   	cli    
  20162f:	6a 00                	pushq  $0x0
  201631:	6a 93                	pushq  $0xffffffffffffff93
  201633:	e9 38 04 00 00       	jmpq   201a70 <isr_handler>

0000000000201638 <isr148>:
  201638:	fa                   	cli    
  201639:	6a 00                	pushq  $0x0
  20163b:	6a 94                	pushq  $0xffffffffffffff94
  20163d:	e9 2e 04 00 00       	jmpq   201a70 <isr_handler>

0000000000201642 <isr149>:
  201642:	fa                   	cli    
  201643:	6a 00                	pushq  $0x0
  201645:	6a 95                	pushq  $0xffffffffffffff95
  201647:	e9 24 04 00 00       	jmpq   201a70 <isr_handler>

000000000020164c <isr150>:
  20164c:	fa                   	cli    
  20164d:	6a 00                	pushq  $0x0
  20164f:	6a 96                	pushq  $0xffffffffffffff96
  201651:	e9 1a 04 00 00       	jmpq   201a70 <isr_handler>

0000000000201656 <isr151>:
  201656:	fa                   	cli    
  201657:	6a 00                	pushq  $0x0
  201659:	6a 97                	pushq  $0xffffffffffffff97
  20165b:	e9 10 04 00 00       	jmpq   201a70 <isr_handler>

0000000000201660 <isr152>:
  201660:	fa                   	cli    
  201661:	6a 00                	pushq  $0x0
  201663:	6a 98                	pushq  $0xffffffffffffff98
  201665:	e9 06 04 00 00       	jmpq   201a70 <isr_handler>

000000000020166a <isr153>:
  20166a:	fa                   	cli    
  20166b:	6a 00                	pushq  $0x0
  20166d:	6a 99                	pushq  $0xffffffffffffff99
  20166f:	e9 fc 03 00 00       	jmpq   201a70 <isr_handler>

0000000000201674 <isr154>:
  201674:	fa                   	cli    
  201675:	6a 00                	pushq  $0x0
  201677:	6a 9a                	pushq  $0xffffffffffffff9a
  201679:	e9 f2 03 00 00       	jmpq   201a70 <isr_handler>

000000000020167e <isr155>:
  20167e:	fa                   	cli    
  20167f:	6a 00                	pushq  $0x0
  201681:	6a 9b                	pushq  $0xffffffffffffff9b
  201683:	e9 e8 03 00 00       	jmpq   201a70 <isr_handler>

0000000000201688 <isr156>:
  201688:	fa                   	cli    
  201689:	6a 00                	pushq  $0x0
  20168b:	6a 9c                	pushq  $0xffffffffffffff9c
  20168d:	e9 de 03 00 00       	jmpq   201a70 <isr_handler>

0000000000201692 <isr157>:
  201692:	fa                   	cli    
  201693:	6a 00                	pushq  $0x0
  201695:	6a 9d                	pushq  $0xffffffffffffff9d
  201697:	e9 d4 03 00 00       	jmpq   201a70 <isr_handler>

000000000020169c <isr158>:
  20169c:	fa                   	cli    
  20169d:	6a 00                	pushq  $0x0
  20169f:	6a 9e                	pushq  $0xffffffffffffff9e
  2016a1:	e9 ca 03 00 00       	jmpq   201a70 <isr_handler>

00000000002016a6 <isr159>:
  2016a6:	fa                   	cli    
  2016a7:	6a 00                	pushq  $0x0
  2016a9:	6a 9f                	pushq  $0xffffffffffffff9f
  2016ab:	e9 c0 03 00 00       	jmpq   201a70 <isr_handler>

00000000002016b0 <isr160>:
  2016b0:	fa                   	cli    
  2016b1:	6a 00                	pushq  $0x0
  2016b3:	6a a0                	pushq  $0xffffffffffffffa0
  2016b5:	e9 b6 03 00 00       	jmpq   201a70 <isr_handler>

00000000002016ba <isr161>:
  2016ba:	fa                   	cli    
  2016bb:	6a 00                	pushq  $0x0
  2016bd:	6a a1                	pushq  $0xffffffffffffffa1
  2016bf:	e9 ac 03 00 00       	jmpq   201a70 <isr_handler>

00000000002016c4 <isr162>:
  2016c4:	fa                   	cli    
  2016c5:	6a 00                	pushq  $0x0
  2016c7:	6a a2                	pushq  $0xffffffffffffffa2
  2016c9:	e9 a2 03 00 00       	jmpq   201a70 <isr_handler>

00000000002016ce <isr163>:
  2016ce:	fa                   	cli    
  2016cf:	6a 00                	pushq  $0x0
  2016d1:	6a a3                	pushq  $0xffffffffffffffa3
  2016d3:	e9 98 03 00 00       	jmpq   201a70 <isr_handler>

00000000002016d8 <isr164>:
  2016d8:	fa                   	cli    
  2016d9:	6a 00                	pushq  $0x0
  2016db:	6a a4                	pushq  $0xffffffffffffffa4
  2016dd:	e9 8e 03 00 00       	jmpq   201a70 <isr_handler>

00000000002016e2 <isr165>:
  2016e2:	fa                   	cli    
  2016e3:	6a 00                	pushq  $0x0
  2016e5:	6a a5                	pushq  $0xffffffffffffffa5
  2016e7:	e9 84 03 00 00       	jmpq   201a70 <isr_handler>

00000000002016ec <isr166>:
  2016ec:	fa                   	cli    
  2016ed:	6a 00                	pushq  $0x0
  2016ef:	6a a6                	pushq  $0xffffffffffffffa6
  2016f1:	e9 7a 03 00 00       	jmpq   201a70 <isr_handler>

00000000002016f6 <isr167>:
  2016f6:	fa                   	cli    
  2016f7:	6a 00                	pushq  $0x0
  2016f9:	6a a7                	pushq  $0xffffffffffffffa7
  2016fb:	e9 70 03 00 00       	jmpq   201a70 <isr_handler>

0000000000201700 <isr168>:
  201700:	fa                   	cli    
  201701:	6a 00                	pushq  $0x0
  201703:	6a a8                	pushq  $0xffffffffffffffa8
  201705:	e9 66 03 00 00       	jmpq   201a70 <isr_handler>

000000000020170a <isr169>:
  20170a:	fa                   	cli    
  20170b:	6a 00                	pushq  $0x0
  20170d:	6a a9                	pushq  $0xffffffffffffffa9
  20170f:	e9 5c 03 00 00       	jmpq   201a70 <isr_handler>

0000000000201714 <isr170>:
  201714:	fa                   	cli    
  201715:	6a 00                	pushq  $0x0
  201717:	6a aa                	pushq  $0xffffffffffffffaa
  201719:	e9 52 03 00 00       	jmpq   201a70 <isr_handler>

000000000020171e <isr171>:
  20171e:	fa                   	cli    
  20171f:	6a 00                	pushq  $0x0
  201721:	6a ab                	pushq  $0xffffffffffffffab
  201723:	e9 48 03 00 00       	jmpq   201a70 <isr_handler>

0000000000201728 <isr172>:
  201728:	fa                   	cli    
  201729:	6a 00                	pushq  $0x0
  20172b:	6a ac                	pushq  $0xffffffffffffffac
  20172d:	e9 3e 03 00 00       	jmpq   201a70 <isr_handler>

0000000000201732 <isr173>:
  201732:	fa                   	cli    
  201733:	6a 00                	pushq  $0x0
  201735:	6a ad                	pushq  $0xffffffffffffffad
  201737:	e9 34 03 00 00       	jmpq   201a70 <isr_handler>

000000000020173c <isr174>:
  20173c:	fa                   	cli    
  20173d:	6a 00                	pushq  $0x0
  20173f:	6a ae                	pushq  $0xffffffffffffffae
  201741:	e9 2a 03 00 00       	jmpq   201a70 <isr_handler>

0000000000201746 <isr175>:
  201746:	fa                   	cli    
  201747:	6a 00                	pushq  $0x0
  201749:	6a af                	pushq  $0xffffffffffffffaf
  20174b:	e9 20 03 00 00       	jmpq   201a70 <isr_handler>

0000000000201750 <isr176>:
  201750:	fa                   	cli    
  201751:	6a 00                	pushq  $0x0
  201753:	6a b0                	pushq  $0xffffffffffffffb0
  201755:	e9 16 03 00 00       	jmpq   201a70 <isr_handler>

000000000020175a <isr177>:
  20175a:	fa                   	cli    
  20175b:	6a 00                	pushq  $0x0
  20175d:	6a b1                	pushq  $0xffffffffffffffb1
  20175f:	e9 0c 03 00 00       	jmpq   201a70 <isr_handler>

0000000000201764 <isr178>:
  201764:	fa                   	cli    
  201765:	6a 00                	pushq  $0x0
  201767:	6a b2                	pushq  $0xffffffffffffffb2
  201769:	e9 02 03 00 00       	jmpq   201a70 <isr_handler>

000000000020176e <isr179>:
  20176e:	fa                   	cli    
  20176f:	6a 00                	pushq  $0x0
  201771:	6a b3                	pushq  $0xffffffffffffffb3
  201773:	e9 f8 02 00 00       	jmpq   201a70 <isr_handler>

0000000000201778 <isr180>:
  201778:	fa                   	cli    
  201779:	6a 00                	pushq  $0x0
  20177b:	6a b4                	pushq  $0xffffffffffffffb4
  20177d:	e9 ee 02 00 00       	jmpq   201a70 <isr_handler>

0000000000201782 <isr181>:
  201782:	fa                   	cli    
  201783:	6a 00                	pushq  $0x0
  201785:	6a b5                	pushq  $0xffffffffffffffb5
  201787:	e9 e4 02 00 00       	jmpq   201a70 <isr_handler>

000000000020178c <isr182>:
  20178c:	fa                   	cli    
  20178d:	6a 00                	pushq  $0x0
  20178f:	6a b6                	pushq  $0xffffffffffffffb6
  201791:	e9 da 02 00 00       	jmpq   201a70 <isr_handler>

0000000000201796 <isr183>:
  201796:	fa                   	cli    
  201797:	6a 00                	pushq  $0x0
  201799:	6a b7                	pushq  $0xffffffffffffffb7
  20179b:	e9 d0 02 00 00       	jmpq   201a70 <isr_handler>

00000000002017a0 <isr184>:
  2017a0:	fa                   	cli    
  2017a1:	6a 00                	pushq  $0x0
  2017a3:	6a b8                	pushq  $0xffffffffffffffb8
  2017a5:	e9 c6 02 00 00       	jmpq   201a70 <isr_handler>

00000000002017aa <isr185>:
  2017aa:	fa                   	cli    
  2017ab:	6a 00                	pushq  $0x0
  2017ad:	6a b9                	pushq  $0xffffffffffffffb9
  2017af:	e9 bc 02 00 00       	jmpq   201a70 <isr_handler>

00000000002017b4 <isr186>:
  2017b4:	fa                   	cli    
  2017b5:	6a 00                	pushq  $0x0
  2017b7:	6a ba                	pushq  $0xffffffffffffffba
  2017b9:	e9 b2 02 00 00       	jmpq   201a70 <isr_handler>

00000000002017be <isr187>:
  2017be:	fa                   	cli    
  2017bf:	6a 00                	pushq  $0x0
  2017c1:	6a bb                	pushq  $0xffffffffffffffbb
  2017c3:	e9 a8 02 00 00       	jmpq   201a70 <isr_handler>

00000000002017c8 <isr188>:
  2017c8:	fa                   	cli    
  2017c9:	6a 00                	pushq  $0x0
  2017cb:	6a bc                	pushq  $0xffffffffffffffbc
  2017cd:	e9 9e 02 00 00       	jmpq   201a70 <isr_handler>

00000000002017d2 <isr189>:
  2017d2:	fa                   	cli    
  2017d3:	6a 00                	pushq  $0x0
  2017d5:	6a bd                	pushq  $0xffffffffffffffbd
  2017d7:	e9 94 02 00 00       	jmpq   201a70 <isr_handler>

00000000002017dc <isr190>:
  2017dc:	fa                   	cli    
  2017dd:	6a 00                	pushq  $0x0
  2017df:	6a be                	pushq  $0xffffffffffffffbe
  2017e1:	e9 8a 02 00 00       	jmpq   201a70 <isr_handler>

00000000002017e6 <isr191>:
  2017e6:	fa                   	cli    
  2017e7:	6a 00                	pushq  $0x0
  2017e9:	6a bf                	pushq  $0xffffffffffffffbf
  2017eb:	e9 80 02 00 00       	jmpq   201a70 <isr_handler>

00000000002017f0 <isr192>:
  2017f0:	fa                   	cli    
  2017f1:	6a 00                	pushq  $0x0
  2017f3:	6a c0                	pushq  $0xffffffffffffffc0
  2017f5:	e9 76 02 00 00       	jmpq   201a70 <isr_handler>

00000000002017fa <isr193>:
  2017fa:	fa                   	cli    
  2017fb:	6a 00                	pushq  $0x0
  2017fd:	6a c1                	pushq  $0xffffffffffffffc1
  2017ff:	e9 6c 02 00 00       	jmpq   201a70 <isr_handler>

0000000000201804 <isr194>:
  201804:	fa                   	cli    
  201805:	6a 00                	pushq  $0x0
  201807:	6a c2                	pushq  $0xffffffffffffffc2
  201809:	e9 62 02 00 00       	jmpq   201a70 <isr_handler>

000000000020180e <isr195>:
  20180e:	fa                   	cli    
  20180f:	6a 00                	pushq  $0x0
  201811:	6a c3                	pushq  $0xffffffffffffffc3
  201813:	e9 58 02 00 00       	jmpq   201a70 <isr_handler>

0000000000201818 <isr196>:
  201818:	fa                   	cli    
  201819:	6a 00                	pushq  $0x0
  20181b:	6a c4                	pushq  $0xffffffffffffffc4
  20181d:	e9 4e 02 00 00       	jmpq   201a70 <isr_handler>

0000000000201822 <isr197>:
  201822:	fa                   	cli    
  201823:	6a 00                	pushq  $0x0
  201825:	6a c5                	pushq  $0xffffffffffffffc5
  201827:	e9 44 02 00 00       	jmpq   201a70 <isr_handler>

000000000020182c <isr198>:
  20182c:	fa                   	cli    
  20182d:	6a 00                	pushq  $0x0
  20182f:	6a c6                	pushq  $0xffffffffffffffc6
  201831:	e9 3a 02 00 00       	jmpq   201a70 <isr_handler>

0000000000201836 <isr199>:
  201836:	fa                   	cli    
  201837:	6a 00                	pushq  $0x0
  201839:	6a c7                	pushq  $0xffffffffffffffc7
  20183b:	e9 30 02 00 00       	jmpq   201a70 <isr_handler>

0000000000201840 <isr200>:
  201840:	fa                   	cli    
  201841:	6a 00                	pushq  $0x0
  201843:	6a c8                	pushq  $0xffffffffffffffc8
  201845:	e9 26 02 00 00       	jmpq   201a70 <isr_handler>

000000000020184a <isr201>:
  20184a:	fa                   	cli    
  20184b:	6a 00                	pushq  $0x0
  20184d:	6a c9                	pushq  $0xffffffffffffffc9
  20184f:	e9 1c 02 00 00       	jmpq   201a70 <isr_handler>

0000000000201854 <isr202>:
  201854:	fa                   	cli    
  201855:	6a 00                	pushq  $0x0
  201857:	6a ca                	pushq  $0xffffffffffffffca
  201859:	e9 12 02 00 00       	jmpq   201a70 <isr_handler>

000000000020185e <isr203>:
  20185e:	fa                   	cli    
  20185f:	6a 00                	pushq  $0x0
  201861:	6a cb                	pushq  $0xffffffffffffffcb
  201863:	e9 08 02 00 00       	jmpq   201a70 <isr_handler>

0000000000201868 <isr204>:
  201868:	fa                   	cli    
  201869:	6a 00                	pushq  $0x0
  20186b:	6a cc                	pushq  $0xffffffffffffffcc
  20186d:	e9 fe 01 00 00       	jmpq   201a70 <isr_handler>

0000000000201872 <isr205>:
  201872:	fa                   	cli    
  201873:	6a 00                	pushq  $0x0
  201875:	6a cd                	pushq  $0xffffffffffffffcd
  201877:	e9 f4 01 00 00       	jmpq   201a70 <isr_handler>

000000000020187c <isr206>:
  20187c:	fa                   	cli    
  20187d:	6a 00                	pushq  $0x0
  20187f:	6a ce                	pushq  $0xffffffffffffffce
  201881:	e9 ea 01 00 00       	jmpq   201a70 <isr_handler>

0000000000201886 <isr207>:
  201886:	fa                   	cli    
  201887:	6a 00                	pushq  $0x0
  201889:	6a cf                	pushq  $0xffffffffffffffcf
  20188b:	e9 e0 01 00 00       	jmpq   201a70 <isr_handler>

0000000000201890 <isr208>:
  201890:	fa                   	cli    
  201891:	6a 00                	pushq  $0x0
  201893:	6a d0                	pushq  $0xffffffffffffffd0
  201895:	e9 d6 01 00 00       	jmpq   201a70 <isr_handler>

000000000020189a <isr209>:
  20189a:	fa                   	cli    
  20189b:	6a 00                	pushq  $0x0
  20189d:	6a d1                	pushq  $0xffffffffffffffd1
  20189f:	e9 cc 01 00 00       	jmpq   201a70 <isr_handler>

00000000002018a4 <isr210>:
  2018a4:	fa                   	cli    
  2018a5:	6a 00                	pushq  $0x0
  2018a7:	6a d2                	pushq  $0xffffffffffffffd2
  2018a9:	e9 c2 01 00 00       	jmpq   201a70 <isr_handler>

00000000002018ae <isr211>:
  2018ae:	fa                   	cli    
  2018af:	6a 00                	pushq  $0x0
  2018b1:	6a d3                	pushq  $0xffffffffffffffd3
  2018b3:	e9 b8 01 00 00       	jmpq   201a70 <isr_handler>

00000000002018b8 <isr212>:
  2018b8:	fa                   	cli    
  2018b9:	6a 00                	pushq  $0x0
  2018bb:	6a d4                	pushq  $0xffffffffffffffd4
  2018bd:	e9 ae 01 00 00       	jmpq   201a70 <isr_handler>

00000000002018c2 <isr213>:
  2018c2:	fa                   	cli    
  2018c3:	6a 00                	pushq  $0x0
  2018c5:	6a d5                	pushq  $0xffffffffffffffd5
  2018c7:	e9 a4 01 00 00       	jmpq   201a70 <isr_handler>

00000000002018cc <isr214>:
  2018cc:	fa                   	cli    
  2018cd:	6a 00                	pushq  $0x0
  2018cf:	6a d6                	pushq  $0xffffffffffffffd6
  2018d1:	e9 9a 01 00 00       	jmpq   201a70 <isr_handler>

00000000002018d6 <isr215>:
  2018d6:	fa                   	cli    
  2018d7:	6a 00                	pushq  $0x0
  2018d9:	6a d7                	pushq  $0xffffffffffffffd7
  2018db:	e9 90 01 00 00       	jmpq   201a70 <isr_handler>

00000000002018e0 <isr216>:
  2018e0:	fa                   	cli    
  2018e1:	6a 00                	pushq  $0x0
  2018e3:	6a d8                	pushq  $0xffffffffffffffd8
  2018e5:	e9 86 01 00 00       	jmpq   201a70 <isr_handler>

00000000002018ea <isr217>:
  2018ea:	fa                   	cli    
  2018eb:	6a 00                	pushq  $0x0
  2018ed:	6a d9                	pushq  $0xffffffffffffffd9
  2018ef:	e9 7c 01 00 00       	jmpq   201a70 <isr_handler>

00000000002018f4 <isr218>:
  2018f4:	fa                   	cli    
  2018f5:	6a 00                	pushq  $0x0
  2018f7:	6a da                	pushq  $0xffffffffffffffda
  2018f9:	e9 72 01 00 00       	jmpq   201a70 <isr_handler>

00000000002018fe <isr219>:
  2018fe:	fa                   	cli    
  2018ff:	6a 00                	pushq  $0x0
  201901:	6a db                	pushq  $0xffffffffffffffdb
  201903:	e9 68 01 00 00       	jmpq   201a70 <isr_handler>

0000000000201908 <isr220>:
  201908:	fa                   	cli    
  201909:	6a 00                	pushq  $0x0
  20190b:	6a dc                	pushq  $0xffffffffffffffdc
  20190d:	e9 5e 01 00 00       	jmpq   201a70 <isr_handler>

0000000000201912 <isr221>:
  201912:	fa                   	cli    
  201913:	6a 00                	pushq  $0x0
  201915:	6a dd                	pushq  $0xffffffffffffffdd
  201917:	e9 54 01 00 00       	jmpq   201a70 <isr_handler>

000000000020191c <isr222>:
  20191c:	fa                   	cli    
  20191d:	6a 00                	pushq  $0x0
  20191f:	6a de                	pushq  $0xffffffffffffffde
  201921:	e9 4a 01 00 00       	jmpq   201a70 <isr_handler>

0000000000201926 <isr223>:
  201926:	fa                   	cli    
  201927:	6a 00                	pushq  $0x0
  201929:	6a df                	pushq  $0xffffffffffffffdf
  20192b:	e9 40 01 00 00       	jmpq   201a70 <isr_handler>

0000000000201930 <isr224>:
  201930:	fa                   	cli    
  201931:	6a 00                	pushq  $0x0
  201933:	6a e0                	pushq  $0xffffffffffffffe0
  201935:	e9 36 01 00 00       	jmpq   201a70 <isr_handler>

000000000020193a <isr225>:
  20193a:	fa                   	cli    
  20193b:	6a 00                	pushq  $0x0
  20193d:	6a e1                	pushq  $0xffffffffffffffe1
  20193f:	e9 2c 01 00 00       	jmpq   201a70 <isr_handler>

0000000000201944 <isr226>:
  201944:	fa                   	cli    
  201945:	6a 00                	pushq  $0x0
  201947:	6a e2                	pushq  $0xffffffffffffffe2
  201949:	e9 22 01 00 00       	jmpq   201a70 <isr_handler>

000000000020194e <isr227>:
  20194e:	fa                   	cli    
  20194f:	6a 00                	pushq  $0x0
  201951:	6a e3                	pushq  $0xffffffffffffffe3
  201953:	e9 18 01 00 00       	jmpq   201a70 <isr_handler>

0000000000201958 <isr228>:
  201958:	fa                   	cli    
  201959:	6a 00                	pushq  $0x0
  20195b:	6a e4                	pushq  $0xffffffffffffffe4
  20195d:	e9 0e 01 00 00       	jmpq   201a70 <isr_handler>

0000000000201962 <isr229>:
  201962:	fa                   	cli    
  201963:	6a 00                	pushq  $0x0
  201965:	6a e5                	pushq  $0xffffffffffffffe5
  201967:	e9 04 01 00 00       	jmpq   201a70 <isr_handler>

000000000020196c <isr230>:
  20196c:	fa                   	cli    
  20196d:	6a 00                	pushq  $0x0
  20196f:	6a e6                	pushq  $0xffffffffffffffe6
  201971:	e9 fa 00 00 00       	jmpq   201a70 <isr_handler>

0000000000201976 <isr231>:
  201976:	fa                   	cli    
  201977:	6a 00                	pushq  $0x0
  201979:	6a e7                	pushq  $0xffffffffffffffe7
  20197b:	e9 f0 00 00 00       	jmpq   201a70 <isr_handler>

0000000000201980 <isr232>:
  201980:	fa                   	cli    
  201981:	6a 00                	pushq  $0x0
  201983:	6a e8                	pushq  $0xffffffffffffffe8
  201985:	e9 e6 00 00 00       	jmpq   201a70 <isr_handler>

000000000020198a <isr233>:
  20198a:	fa                   	cli    
  20198b:	6a 00                	pushq  $0x0
  20198d:	6a e9                	pushq  $0xffffffffffffffe9
  20198f:	e9 dc 00 00 00       	jmpq   201a70 <isr_handler>

0000000000201994 <isr234>:
  201994:	fa                   	cli    
  201995:	6a 00                	pushq  $0x0
  201997:	6a ea                	pushq  $0xffffffffffffffea
  201999:	e9 d2 00 00 00       	jmpq   201a70 <isr_handler>

000000000020199e <isr235>:
  20199e:	fa                   	cli    
  20199f:	6a 00                	pushq  $0x0
  2019a1:	6a eb                	pushq  $0xffffffffffffffeb
  2019a3:	e9 c8 00 00 00       	jmpq   201a70 <isr_handler>

00000000002019a8 <isr236>:
  2019a8:	fa                   	cli    
  2019a9:	6a 00                	pushq  $0x0
  2019ab:	6a ec                	pushq  $0xffffffffffffffec
  2019ad:	e9 be 00 00 00       	jmpq   201a70 <isr_handler>

00000000002019b2 <isr237>:
  2019b2:	fa                   	cli    
  2019b3:	6a 00                	pushq  $0x0
  2019b5:	6a ed                	pushq  $0xffffffffffffffed
  2019b7:	e9 b4 00 00 00       	jmpq   201a70 <isr_handler>

00000000002019bc <isr238>:
  2019bc:	fa                   	cli    
  2019bd:	6a 00                	pushq  $0x0
  2019bf:	6a ee                	pushq  $0xffffffffffffffee
  2019c1:	e9 aa 00 00 00       	jmpq   201a70 <isr_handler>

00000000002019c6 <isr239>:
  2019c6:	fa                   	cli    
  2019c7:	6a 00                	pushq  $0x0
  2019c9:	6a ef                	pushq  $0xffffffffffffffef
  2019cb:	e9 a0 00 00 00       	jmpq   201a70 <isr_handler>

00000000002019d0 <isr240>:
  2019d0:	fa                   	cli    
  2019d1:	6a 00                	pushq  $0x0
  2019d3:	6a f0                	pushq  $0xfffffffffffffff0
  2019d5:	e9 96 00 00 00       	jmpq   201a70 <isr_handler>

00000000002019da <isr241>:
  2019da:	fa                   	cli    
  2019db:	6a 00                	pushq  $0x0
  2019dd:	6a f1                	pushq  $0xfffffffffffffff1
  2019df:	e9 8c 00 00 00       	jmpq   201a70 <isr_handler>

00000000002019e4 <isr242>:
  2019e4:	fa                   	cli    
  2019e5:	6a 00                	pushq  $0x0
  2019e7:	6a f2                	pushq  $0xfffffffffffffff2
  2019e9:	e9 82 00 00 00       	jmpq   201a70 <isr_handler>

00000000002019ee <isr243>:
  2019ee:	fa                   	cli    
  2019ef:	6a 00                	pushq  $0x0
  2019f1:	6a f3                	pushq  $0xfffffffffffffff3
  2019f3:	e9 78 00 00 00       	jmpq   201a70 <isr_handler>

00000000002019f8 <isr244>:
  2019f8:	fa                   	cli    
  2019f9:	6a 00                	pushq  $0x0
  2019fb:	6a f4                	pushq  $0xfffffffffffffff4
  2019fd:	e9 6e 00 00 00       	jmpq   201a70 <isr_handler>

0000000000201a02 <isr245>:
  201a02:	fa                   	cli    
  201a03:	6a 00                	pushq  $0x0
  201a05:	6a f5                	pushq  $0xfffffffffffffff5
  201a07:	e9 64 00 00 00       	jmpq   201a70 <isr_handler>

0000000000201a0c <isr246>:
  201a0c:	fa                   	cli    
  201a0d:	6a 00                	pushq  $0x0
  201a0f:	6a f6                	pushq  $0xfffffffffffffff6
  201a11:	e9 5a 00 00 00       	jmpq   201a70 <isr_handler>

0000000000201a16 <isr247>:
  201a16:	fa                   	cli    
  201a17:	6a 00                	pushq  $0x0
  201a19:	6a f7                	pushq  $0xfffffffffffffff7
  201a1b:	e9 50 00 00 00       	jmpq   201a70 <isr_handler>

0000000000201a20 <isr248>:
  201a20:	fa                   	cli    
  201a21:	6a 00                	pushq  $0x0
  201a23:	6a f8                	pushq  $0xfffffffffffffff8
  201a25:	e9 46 00 00 00       	jmpq   201a70 <isr_handler>

0000000000201a2a <isr249>:
  201a2a:	fa                   	cli    
  201a2b:	6a 00                	pushq  $0x0
  201a2d:	6a f9                	pushq  $0xfffffffffffffff9
  201a2f:	e9 3c 00 00 00       	jmpq   201a70 <isr_handler>

0000000000201a34 <isr250>:
  201a34:	fa                   	cli    
  201a35:	6a 00                	pushq  $0x0
  201a37:	6a fa                	pushq  $0xfffffffffffffffa
  201a39:	e9 32 00 00 00       	jmpq   201a70 <isr_handler>

0000000000201a3e <isr251>:
  201a3e:	fa                   	cli    
  201a3f:	6a 00                	pushq  $0x0
  201a41:	6a fb                	pushq  $0xfffffffffffffffb
  201a43:	e9 28 00 00 00       	jmpq   201a70 <isr_handler>

0000000000201a48 <isr252>:
  201a48:	fa                   	cli    
  201a49:	6a 00                	pushq  $0x0
  201a4b:	6a fc                	pushq  $0xfffffffffffffffc
  201a4d:	e9 1e 00 00 00       	jmpq   201a70 <isr_handler>

0000000000201a52 <isr253>:
  201a52:	fa                   	cli    
  201a53:	6a 00                	pushq  $0x0
  201a55:	6a fd                	pushq  $0xfffffffffffffffd
  201a57:	e9 14 00 00 00       	jmpq   201a70 <isr_handler>

0000000000201a5c <isr254>:
  201a5c:	fa                   	cli    
  201a5d:	6a 00                	pushq  $0x0
  201a5f:	6a fe                	pushq  $0xfffffffffffffffe
  201a61:	e9 0a 00 00 00       	jmpq   201a70 <isr_handler>

0000000000201a66 <isr255>:
  201a66:	fa                   	cli    
  201a67:	6a 00                	pushq  $0x0
  201a69:	6a ff                	pushq  $0xffffffffffffffff
  201a6b:	e9 00 00 00 00       	jmpq   201a70 <isr_handler>

0000000000201a70 <isr_handler>:
  201a70:	50                   	push   %rax
  201a71:	53                   	push   %rbx
  201a72:	51                   	push   %rcx
  201a73:	52                   	push   %rdx
  201a74:	57                   	push   %rdi
  201a75:	56                   	push   %rsi
  201a76:	55                   	push   %rbp
  201a77:	41 50                	push   %r8
  201a79:	41 51                	push   %r9
  201a7b:	41 52                	push   %r10
  201a7d:	41 53                	push   %r11
  201a7f:	41 54                	push   %r12
  201a81:	41 55                	push   %r13
  201a83:	41 56                	push   %r14
  201a85:	41 57                	push   %r15
  201a87:	0f a0                	pushq  %fs
  201a89:	0f a8                	pushq  %gs
  201a8b:	66 b8 10 00          	mov    $0x10,%ax
  201a8f:	8e d8                	mov    %eax,%ds
  201a91:	8e e0                	mov    %eax,%fs
  201a93:	8e e8                	mov    %eax,%gs
  201a95:	48 89 e7             	mov    %rsp,%rdi
  201a98:	48 8b 9f 88 00 00 00 	mov    0x88(%rdi),%rbx
  201a9f:	48 8b 04 25 08 60 22 	mov    0x226008,%rax
  201aa6:	00 
  201aa7:	48 3d 00 00 00 00    	cmp    $0x0,%rax
  201aad:	74 13                	je     201ac2 <__isr_ptr_null>
  201aaf:	48 8b 04 d8          	mov    (%rax,%rbx,8),%rax
  201ab3:	48 3d 00 00 00 00    	cmp    $0x0,%rax
  201ab9:	74 07                	je     201ac2 <__isr_ptr_null>
  201abb:	ff d0                	callq  *%rax
  201abd:	e9 05 00 00 00       	jmpq   201ac7 <isr_common>

0000000000201ac2 <__isr_ptr_null>:
  201ac2:	e8 82 00 00 00       	callq  201b49 <isr_fault>

0000000000201ac7 <isr_common>:
  201ac7:	0f a9                	popq   %gs
  201ac9:	0f a1                	popq   %fs
  201acb:	41 5f                	pop    %r15
  201acd:	41 5e                	pop    %r14
  201acf:	41 5d                	pop    %r13
  201ad1:	41 5c                	pop    %r12
  201ad3:	41 5b                	pop    %r11
  201ad5:	41 5a                	pop    %r10
  201ad7:	41 59                	pop    %r9
  201ad9:	41 58                	pop    %r8
  201adb:	5d                   	pop    %rbp
  201adc:	5e                   	pop    %rsi
  201add:	5f                   	pop    %rdi
  201ade:	5a                   	pop    %rdx
  201adf:	59                   	pop    %rcx
  201ae0:	5b                   	pop    %rbx
  201ae1:	58                   	pop    %rax
  201ae2:	48 81 c4 10 00 00 00 	add    $0x10,%rsp
  201ae9:	48 cf                	iretq  
  201aeb:	90                   	nop
  201aec:	90                   	nop
  201aed:	90                   	nop
  201aee:	90                   	nop
  201aef:	90                   	nop

0000000000201af0 <cr0_read>:
  201af0:	0f 20 c0             	mov    %cr0,%rax
  201af3:	c3                   	retq   

0000000000201af4 <cr0_write>:
  201af4:	48 89 f8             	mov    %rdi,%rax
  201af7:	0f 22 c0             	mov    %rax,%cr0
  201afa:	c3                   	retq   

0000000000201afb <cr2_read>:
  201afb:	0f 20 d0             	mov    %cr2,%rax
  201afe:	c3                   	retq   

0000000000201aff <cr3_read>:
  201aff:	0f 20 d8             	mov    %cr3,%rax
  201b02:	c3                   	retq   

0000000000201b03 <cr3_write>:
  201b03:	48 89 f8             	mov    %rdi,%rax
  201b06:	0f 22 d8             	mov    %rax,%cr3
  201b09:	c3                   	retq   
  201b0a:	90                   	nop
  201b0b:	90                   	nop

0000000000201b0c <isr_init>:
  201b0c:	55                   	push   %rbp
  201b0d:	48 89 e5             	mov    %rsp,%rbp
  201b10:	ba 00 08 00 00       	mov    $0x800,%edx
  201b15:	be 00 00 00 00       	mov    $0x0,%esi
  201b1a:	48 bf 60 60 22 00 00 	mov    $0x226060,%rdi
  201b21:	00 00 00 
  201b24:	48 b8 58 7f 20 00 00 	mov    $0x207f58,%rax
  201b2b:	00 00 00 
  201b2e:	ff d0                	callq  *%rax
  201b30:	48 b8 08 60 22 00 00 	mov    $0x226008,%rax
  201b37:	00 00 00 
  201b3a:	48 ba 60 60 22 00 00 	mov    $0x226060,%rdx
  201b41:	00 00 00 
  201b44:	48 89 10             	mov    %rdx,(%rax)
  201b47:	c9                   	leaveq 
  201b48:	c3                   	retq   

0000000000201b49 <isr_fault>:
  201b49:	55                   	push   %rbp
  201b4a:	48 89 e5             	mov    %rsp,%rbp
  201b4d:	48 83 ec 10          	sub    $0x10,%rsp
  201b51:	48 89 7d f8          	mov    %rdi,-0x8(%rbp)
  201b55:	48 8b 45 f8          	mov    -0x8(%rbp),%rax
  201b59:	48 8b 80 88 00 00 00 	mov    0x88(%rax),%rax
  201b60:	48 83 f8 03          	cmp    $0x3,%rax
  201b64:	74 0c                	je     201b72 <isr_fault+0x29>
  201b66:	48 83 f8 27          	cmp    $0x27,%rax
  201b6a:	0f 84 ea 00 00 00    	je     201c5a <isr_fault+0x111>
  201b70:	eb 18                	jmp    201b8a <isr_fault+0x41>
  201b72:	48 8b 45 f8          	mov    -0x8(%rbp),%rax
  201b76:	48 89 c7             	mov    %rax,%rdi
  201b79:	48 b8 b4 21 20 00 00 	mov    $0x2021b4,%rax
  201b80:	00 00 00 
  201b83:	ff d0                	callq  *%rax
  201b85:	e9 d1 00 00 00       	jmpq   201c5b <isr_fault+0x112>
  201b8a:	b8 00 00 00 00       	mov    $0x0,%eax
  201b8f:	48 ba 7a 30 20 00 00 	mov    $0x20307a,%rdx
  201b96:	00 00 00 
  201b99:	ff d2                	callq  *%rdx
  201b9b:	0f b7 c0             	movzwl %ax,%eax
  201b9e:	89 c7                	mov    %eax,%edi
  201ba0:	48 b8 90 30 20 00 00 	mov    $0x203090,%rax
  201ba7:	00 00 00 
  201baa:	ff d0                	callq  *%rax
  201bac:	48 bf 80 89 20 00 00 	mov    $0x208980,%rdi
  201bb3:	00 00 00 
  201bb6:	b8 00 00 00 00       	mov    $0x0,%eax
  201bbb:	48 ba c8 87 20 00 00 	mov    $0x2087c8,%rdx
  201bc2:	00 00 00 
  201bc5:	ff d2                	callq  *%rdx
  201bc7:	48 8b 45 f8          	mov    -0x8(%rbp),%rax
  201bcb:	48 89 c7             	mov    %rax,%rdi
  201bce:	48 b8 b4 21 20 00 00 	mov    $0x2021b4,%rax
  201bd5:	00 00 00 
  201bd8:	ff d0                	callq  *%rax
  201bda:	48 8b 45 f8          	mov    -0x8(%rbp),%rax
  201bde:	48 8b 80 88 00 00 00 	mov    0x88(%rax),%rax
  201be5:	48 83 f8 31          	cmp    $0x31,%rax
  201be9:	77 44                	ja     201c2f <isr_fault+0xe6>
  201beb:	48 8b 45 f8          	mov    -0x8(%rbp),%rax
  201bef:	48 8b 90 88 00 00 00 	mov    0x88(%rax),%rdx
  201bf6:	48 b8 40 8b 20 00 00 	mov    $0x208b40,%rax
  201bfd:	00 00 00 
  201c00:	48 8b 14 d0          	mov    (%rax,%rdx,8),%rdx
  201c04:	48 8b 45 f8          	mov    -0x8(%rbp),%rax
  201c08:	48 8b 80 88 00 00 00 	mov    0x88(%rax),%rax
  201c0f:	48 89 c6             	mov    %rax,%rsi
  201c12:	48 bf a8 89 20 00 00 	mov    $0x2089a8,%rdi
  201c19:	00 00 00 
  201c1c:	b8 00 00 00 00       	mov    $0x0,%eax
  201c21:	48 b9 e0 86 20 00 00 	mov    $0x2086e0,%rcx
  201c28:	00 00 00 
  201c2b:	ff d1                	callq  *%rcx
  201c2d:	eb 2c                	jmp    201c5b <isr_fault+0x112>
  201c2f:	48 8b 45 f8          	mov    -0x8(%rbp),%rax
  201c33:	48 8b 80 88 00 00 00 	mov    0x88(%rax),%rax
  201c3a:	48 89 c6             	mov    %rax,%rsi
  201c3d:	48 bf d0 89 20 00 00 	mov    $0x2089d0,%rdi
  201c44:	00 00 00 
  201c47:	b8 00 00 00 00       	mov    $0x0,%eax
  201c4c:	48 ba e0 86 20 00 00 	mov    $0x2086e0,%rdx
  201c53:	00 00 00 
  201c56:	ff d2                	callq  *%rdx
  201c58:	eb 01                	jmp    201c5b <isr_fault+0x112>
  201c5a:	90                   	nop
  201c5b:	b8 00 00 00 00       	mov    $0x0,%eax
  201c60:	c9                   	leaveq 
  201c61:	c3                   	retq   
  201c62:	90                   	nop
  201c63:	90                   	nop

0000000000201c64 <interrupts_init>:
  201c64:	55                   	push   %rbp
  201c65:	48 89 e5             	mov    %rsp,%rbp
  201c68:	fb                   	sti    
  201c69:	c9                   	leaveq 
  201c6a:	c3                   	retq   

0000000000201c6b <c8259s_init>:
  201c6b:	55                   	push   %rbp
  201c6c:	48 89 e5             	mov    %rsp,%rbp
  201c6f:	be 11 00 00 00       	mov    $0x11,%esi
  201c74:	bf 20 00 00 00       	mov    $0x20,%edi
  201c79:	48 b8 c8 7f 20 00 00 	mov    $0x207fc8,%rax
  201c80:	00 00 00 
  201c83:	ff d0                	callq  *%rax
  201c85:	be 11 00 00 00       	mov    $0x11,%esi
  201c8a:	bf a0 00 00 00       	mov    $0xa0,%edi
  201c8f:	48 b8 c8 7f 20 00 00 	mov    $0x207fc8,%rax
  201c96:	00 00 00 
  201c99:	ff d0                	callq  *%rax
  201c9b:	be 20 00 00 00       	mov    $0x20,%esi
  201ca0:	bf 21 00 00 00       	mov    $0x21,%edi
  201ca5:	48 b8 c8 7f 20 00 00 	mov    $0x207fc8,%rax
  201cac:	00 00 00 
  201caf:	ff d0                	callq  *%rax
  201cb1:	be 28 00 00 00       	mov    $0x28,%esi
  201cb6:	bf a1 00 00 00       	mov    $0xa1,%edi
  201cbb:	48 b8 c8 7f 20 00 00 	mov    $0x207fc8,%rax
  201cc2:	00 00 00 
  201cc5:	ff d0                	callq  *%rax
  201cc7:	be 04 00 00 00       	mov    $0x4,%esi
  201ccc:	bf 21 00 00 00       	mov    $0x21,%edi
  201cd1:	48 b8 c8 7f 20 00 00 	mov    $0x207fc8,%rax
  201cd8:	00 00 00 
  201cdb:	ff d0                	callq  *%rax
  201cdd:	be 02 00 00 00       	mov    $0x2,%esi
  201ce2:	bf a1 00 00 00       	mov    $0xa1,%edi
  201ce7:	48 b8 c8 7f 20 00 00 	mov    $0x207fc8,%rax
  201cee:	00 00 00 
  201cf1:	ff d0                	callq  *%rax
  201cf3:	be 01 00 00 00       	mov    $0x1,%esi
  201cf8:	bf 21 00 00 00       	mov    $0x21,%edi
  201cfd:	48 b8 c8 7f 20 00 00 	mov    $0x207fc8,%rax
  201d04:	00 00 00 
  201d07:	ff d0                	callq  *%rax
  201d09:	be 01 00 00 00       	mov    $0x1,%esi
  201d0e:	bf a1 00 00 00       	mov    $0xa1,%edi
  201d13:	48 b8 c8 7f 20 00 00 	mov    $0x207fc8,%rax
  201d1a:	00 00 00 
  201d1d:	ff d0                	callq  *%rax
  201d1f:	be ff 00 00 00       	mov    $0xff,%esi
  201d24:	bf 21 00 00 00       	mov    $0x21,%edi
  201d29:	48 b8 c8 7f 20 00 00 	mov    $0x207fc8,%rax
  201d30:	00 00 00 
  201d33:	ff d0                	callq  *%rax
  201d35:	be ff 00 00 00       	mov    $0xff,%esi
  201d3a:	bf a1 00 00 00       	mov    $0xa1,%edi
  201d3f:	48 b8 c8 7f 20 00 00 	mov    $0x207fc8,%rax
  201d46:	00 00 00 
  201d49:	ff d0                	callq  *%rax
  201d4b:	c9                   	leaveq 
  201d4c:	c3                   	retq   

0000000000201d4d <irq_enable>:
  201d4d:	55                   	push   %rbp
  201d4e:	48 89 e5             	mov    %rsp,%rbp
  201d51:	53                   	push   %rbx
  201d52:	48 83 ec 18          	sub    $0x18,%rsp
  201d56:	89 7d ec             	mov    %edi,-0x14(%rbp)
  201d59:	8b 45 ec             	mov    -0x14(%rbp),%eax
  201d5c:	ba 01 00 00 00       	mov    $0x1,%edx
  201d61:	89 d3                	mov    %edx,%ebx
  201d63:	89 c1                	mov    %eax,%ecx
  201d65:	d3 e3                	shl    %cl,%ebx
  201d67:	89 d8                	mov    %ebx,%eax
  201d69:	89 c2                	mov    %eax,%edx
  201d6b:	f7 d2                	not    %edx
  201d6d:	48 b8 c0 00 21 00 00 	mov    $0x2100c0,%rax
  201d74:	00 00 00 
  201d77:	0f b7 00             	movzwl (%rax),%eax
  201d7a:	21 d0                	and    %edx,%eax
  201d7c:	89 c2                	mov    %eax,%edx
  201d7e:	48 b8 c0 00 21 00 00 	mov    $0x2100c0,%rax
  201d85:	00 00 00 
  201d88:	66 89 10             	mov    %dx,(%rax)
  201d8b:	83 7d ec 07          	cmpl   $0x7,-0x14(%rbp)
  201d8f:	7f 25                	jg     201db6 <irq_enable+0x69>
  201d91:	48 b8 c0 00 21 00 00 	mov    $0x2100c0,%rax
  201d98:	00 00 00 
  201d9b:	0f b7 00             	movzwl (%rax),%eax
  201d9e:	0f b6 c0             	movzbl %al,%eax
  201da1:	89 c6                	mov    %eax,%esi
  201da3:	bf 21 00 00 00       	mov    $0x21,%edi
  201da8:	48 b8 c8 7f 20 00 00 	mov    $0x207fc8,%rax
  201daf:	00 00 00 
  201db2:	ff d0                	callq  *%rax
  201db4:	eb 27                	jmp    201ddd <irq_enable+0x90>
  201db6:	48 b8 c0 00 21 00 00 	mov    $0x2100c0,%rax
  201dbd:	00 00 00 
  201dc0:	0f b7 00             	movzwl (%rax),%eax
  201dc3:	66 c1 e8 08          	shr    $0x8,%ax
  201dc7:	0f b6 c0             	movzbl %al,%eax
  201dca:	89 c6                	mov    %eax,%esi
  201dcc:	bf a1 00 00 00       	mov    $0xa1,%edi
  201dd1:	48 b8 c8 7f 20 00 00 	mov    $0x207fc8,%rax
  201dd8:	00 00 00 
  201ddb:	ff d0                	callq  *%rax
  201ddd:	48 83 c4 18          	add    $0x18,%rsp
  201de1:	5b                   	pop    %rbx
  201de2:	c9                   	leaveq 
  201de3:	c3                   	retq   

0000000000201de4 <irq_disable>:
  201de4:	55                   	push   %rbp
  201de5:	48 89 e5             	mov    %rsp,%rbp
  201de8:	53                   	push   %rbx
  201de9:	48 83 ec 18          	sub    $0x18,%rsp
  201ded:	89 7d ec             	mov    %edi,-0x14(%rbp)
  201df0:	8b 45 ec             	mov    -0x14(%rbp),%eax
  201df3:	ba 01 00 00 00       	mov    $0x1,%edx
  201df8:	89 d3                	mov    %edx,%ebx
  201dfa:	89 c1                	mov    %eax,%ecx
  201dfc:	d3 e3                	shl    %cl,%ebx
  201dfe:	89 d8                	mov    %ebx,%eax
  201e00:	89 c2                	mov    %eax,%edx
  201e02:	48 b8 c0 00 21 00 00 	mov    $0x2100c0,%rax
  201e09:	00 00 00 
  201e0c:	0f b7 00             	movzwl (%rax),%eax
  201e0f:	09 d0                	or     %edx,%eax
  201e11:	89 c2                	mov    %eax,%edx
  201e13:	48 b8 c0 00 21 00 00 	mov    $0x2100c0,%rax
  201e1a:	00 00 00 
  201e1d:	66 89 10             	mov    %dx,(%rax)
  201e20:	83 7d ec 07          	cmpl   $0x7,-0x14(%rbp)
  201e24:	7f 25                	jg     201e4b <irq_disable+0x67>
  201e26:	48 b8 c0 00 21 00 00 	mov    $0x2100c0,%rax
  201e2d:	00 00 00 
  201e30:	0f b7 00             	movzwl (%rax),%eax
  201e33:	0f b6 c0             	movzbl %al,%eax
  201e36:	89 c6                	mov    %eax,%esi
  201e38:	bf 21 00 00 00       	mov    $0x21,%edi
  201e3d:	48 b8 c8 7f 20 00 00 	mov    $0x207fc8,%rax
  201e44:	00 00 00 
  201e47:	ff d0                	callq  *%rax
  201e49:	eb 27                	jmp    201e72 <irq_disable+0x8e>
  201e4b:	48 b8 c0 00 21 00 00 	mov    $0x2100c0,%rax
  201e52:	00 00 00 
  201e55:	0f b7 00             	movzwl (%rax),%eax
  201e58:	66 c1 e8 08          	shr    $0x8,%ax
  201e5c:	0f b6 c0             	movzbl %al,%eax
  201e5f:	89 c6                	mov    %eax,%esi
  201e61:	bf a1 00 00 00       	mov    $0xa1,%edi
  201e66:	48 b8 c8 7f 20 00 00 	mov    $0x207fc8,%rax
  201e6d:	00 00 00 
  201e70:	ff d0                	callq  *%rax
  201e72:	48 83 c4 18          	add    $0x18,%rsp
  201e76:	5b                   	pop    %rbx
  201e77:	c9                   	leaveq 
  201e78:	c3                   	retq   
  201e79:	90                   	nop
  201e7a:	90                   	nop
  201e7b:	90                   	nop

0000000000201e7c <dump_panic>:
  201e7c:	55                   	push   %rbp
  201e7d:	48 89 e5             	mov    %rsp,%rbp
  201e80:	53                   	push   %rbx
  201e81:	48 83 ec 68          	sub    $0x68,%rsp
  201e85:	48 89 7d 98          	mov    %rdi,-0x68(%rbp)
  201e89:	48 89 55 d0          	mov    %rdx,-0x30(%rbp)
  201e8d:	48 89 4d d8          	mov    %rcx,-0x28(%rbp)
  201e91:	4c 89 45 e0          	mov    %r8,-0x20(%rbp)
  201e95:	4c 89 4d e8          	mov    %r9,-0x18(%rbp)
  201e99:	48 89 75 90          	mov    %rsi,-0x70(%rbp)
  201e9d:	b8 00 00 00 00       	mov    $0x0,%eax
  201ea2:	48 ba 7a 30 20 00 00 	mov    $0x20307a,%rdx
  201ea9:	00 00 00 
  201eac:	ff d2                	callq  *%rdx
  201eae:	0f b7 c0             	movzwl %ax,%eax
  201eb1:	89 c7                	mov    %eax,%edi
  201eb3:	48 b8 90 30 20 00 00 	mov    $0x203090,%rax
  201eba:	00 00 00 
  201ebd:	ff d0                	callq  *%rax
  201ebf:	48 8d 45 a0          	lea    -0x60(%rbp),%rax
  201ec3:	c7 00 10 00 00 00    	movl   $0x10,(%rax)
  201ec9:	48 8d 45 a0          	lea    -0x60(%rbp),%rax
  201ecd:	48 8d 55 10          	lea    0x10(%rbp),%rdx
  201ed1:	48 89 50 08          	mov    %rdx,0x8(%rax)
  201ed5:	48 8d 45 a0          	lea    -0x60(%rbp),%rax
  201ed9:	48 8d 55 c0          	lea    -0x40(%rbp),%rdx
  201edd:	48 89 50 10          	mov    %rdx,0x10(%rax)
  201ee1:	b8 00 00 00 00       	mov    $0x0,%eax
  201ee6:	48 ba 98 7f 20 00 00 	mov    $0x207f98,%rdx
  201eed:	00 00 00 
  201ef0:	ff d2                	callq  *%rdx
  201ef2:	be 00 00 00 00       	mov    $0x0,%esi
  201ef7:	bf 04 00 00 00       	mov    $0x4,%edi
  201efc:	48 b8 42 30 20 00 00 	mov    $0x203042,%rax
  201f03:	00 00 00 
  201f06:	ff d0                	callq  *%rax
  201f08:	48 bf c8 8c 20 00 00 	mov    $0x208cc8,%rdi
  201f0f:	00 00 00 
  201f12:	48 b8 ba 2f 20 00 00 	mov    $0x202fba,%rax
  201f19:	00 00 00 
  201f1c:	ff d0                	callq  *%rax
  201f1e:	be 00 00 00 00       	mov    $0x0,%esi
  201f23:	bf 0f 00 00 00       	mov    $0xf,%edi
  201f28:	48 b8 42 30 20 00 00 	mov    $0x203042,%rax
  201f2f:	00 00 00 
  201f32:	ff d0                	callq  *%rax
  201f34:	48 8d 5d a0          	lea    -0x60(%rbp),%rbx
  201f38:	48 8b 45 90          	mov    -0x70(%rbp),%rax
  201f3c:	b9 00 00 00 00       	mov    $0x0,%ecx
  201f41:	48 ba b4 86 20 00 00 	mov    $0x2086b4,%rdx
  201f48:	00 00 00 
  201f4b:	48 89 de             	mov    %rbx,%rsi
  201f4e:	48 89 c7             	mov    %rax,%rdi
  201f51:	48 b8 e4 7f 20 00 00 	mov    $0x207fe4,%rax
  201f58:	00 00 00 
  201f5b:	ff d0                	callq  *%rax
  201f5d:	48 bf d8 8c 20 00 00 	mov    $0x208cd8,%rdi
  201f64:	00 00 00 
  201f67:	b8 00 00 00 00       	mov    $0x0,%eax
  201f6c:	48 ba c8 87 20 00 00 	mov    $0x2087c8,%rdx
  201f73:	00 00 00 
  201f76:	ff d2                	callq  *%rdx
  201f78:	48 8b 45 98          	mov    -0x68(%rbp),%rax
  201f7c:	48 89 c7             	mov    %rax,%rdi
  201f7f:	48 b8 b4 21 20 00 00 	mov    $0x2021b4,%rax
  201f86:	00 00 00 
  201f89:	ff d0                	callq  *%rax
  201f8b:	48 bf fc 8c 20 00 00 	mov    $0x208cfc,%rdi
  201f92:	00 00 00 
  201f95:	b8 00 00 00 00       	mov    $0x0,%eax
  201f9a:	48 ba c8 87 20 00 00 	mov    $0x2087c8,%rdx
  201fa1:	00 00 00 
  201fa4:	ff d2                	callq  *%rdx
  201fa6:	48 8b 45 98          	mov    -0x68(%rbp),%rax
  201faa:	48 8b 80 98 00 00 00 	mov    0x98(%rax),%rax
  201fb1:	ba 0a 00 00 00       	mov    $0xa,%edx
  201fb6:	be f5 ff ff ff       	mov    $0xfffffff5,%esi
  201fbb:	48 89 c7             	mov    %rax,%rdi
  201fbe:	48 b8 aa 23 20 00 00 	mov    $0x2023aa,%rax
  201fc5:	00 00 00 
  201fc8:	ff d0                	callq  *%rax
  201fca:	fa                   	cli    
  201fcb:	f4                   	hlt    
  201fcc:	eb fc                	jmp    201fca <dump_panic+0x14e>

0000000000201fce <dump>:
  201fce:	55                   	push   %rbp
  201fcf:	48 89 e5             	mov    %rsp,%rbp
  201fd2:	48 83 ec 20          	sub    $0x20,%rsp
  201fd6:	48 89 7d e8          	mov    %rdi,-0x18(%rbp)
  201fda:	89 75 e4             	mov    %esi,-0x1c(%rbp)
  201fdd:	48 8b 45 e8          	mov    -0x18(%rbp),%rax
  201fe1:	48 89 45 f8          	mov    %rax,-0x8(%rbp)
  201fe5:	e9 ef 00 00 00       	jmpq   2020d9 <dump+0x10b>
  201fea:	c7 45 f4 00 00 00 00 	movl   $0x0,-0xc(%rbp)
  201ff1:	eb 38                	jmp    20202b <dump+0x5d>
  201ff3:	83 7d e4 00          	cmpl   $0x0,-0x1c(%rbp)
  201ff7:	74 3a                	je     202033 <dump+0x65>
  201ff9:	8b 45 f4             	mov    -0xc(%rbp),%eax
  201ffc:	48 03 45 f8          	add    -0x8(%rbp),%rax
  202000:	0f b6 00             	movzbl (%rax),%eax
  202003:	0f b6 c0             	movzbl %al,%eax
  202006:	89 c6                	mov    %eax,%esi
  202008:	48 bf 17 8d 20 00 00 	mov    $0x208d17,%rdi
  20200f:	00 00 00 
  202012:	b8 00 00 00 00       	mov    $0x0,%eax
  202017:	48 ba c8 87 20 00 00 	mov    $0x2087c8,%rdx
  20201e:	00 00 00 
  202021:	ff d2                	callq  *%rdx
  202023:	83 6d e4 01          	subl   $0x1,-0x1c(%rbp)
  202027:	83 45 f4 01          	addl   $0x1,-0xc(%rbp)
  20202b:	83 7d f4 0f          	cmpl   $0xf,-0xc(%rbp)
  20202f:	76 c2                	jbe    201ff3 <dump+0x25>
  202031:	eb 01                	jmp    202034 <dump+0x66>
  202033:	90                   	nop
  202034:	48 bf 1d 8d 20 00 00 	mov    $0x208d1d,%rdi
  20203b:	00 00 00 
  20203e:	b8 00 00 00 00       	mov    $0x0,%eax
  202043:	48 ba c8 87 20 00 00 	mov    $0x2087c8,%rdx
  20204a:	00 00 00 
  20204d:	ff d2                	callq  *%rdx
  20204f:	c7 45 f0 00 00 00 00 	movl   $0x0,-0x10(%rbp)
  202056:	eb 59                	jmp    2020b1 <dump+0xe3>
  202058:	8b 45 f0             	mov    -0x10(%rbp),%eax
  20205b:	48 03 45 f8          	add    -0x8(%rbp),%rax
  20205f:	0f b6 00             	movzbl (%rax),%eax
  202062:	3c 1f                	cmp    $0x1f,%al
  202064:	77 1d                	ja     202083 <dump+0xb5>
  202066:	48 bf 1f 8d 20 00 00 	mov    $0x208d1f,%rdi
  20206d:	00 00 00 
  202070:	b8 00 00 00 00       	mov    $0x0,%eax
  202075:	48 ba c8 87 20 00 00 	mov    $0x2087c8,%rdx
  20207c:	00 00 00 
  20207f:	ff d2                	callq  *%rdx
  202081:	eb 2a                	jmp    2020ad <dump+0xdf>
  202083:	8b 45 f0             	mov    -0x10(%rbp),%eax
  202086:	48 03 45 f8          	add    -0x8(%rbp),%rax
  20208a:	0f b6 00             	movzbl (%rax),%eax
  20208d:	0f b6 c0             	movzbl %al,%eax
  202090:	89 c6                	mov    %eax,%esi
  202092:	48 bf 21 8d 20 00 00 	mov    $0x208d21,%rdi
  202099:	00 00 00 
  20209c:	b8 00 00 00 00       	mov    $0x0,%eax
  2020a1:	48 ba c8 87 20 00 00 	mov    $0x2087c8,%rdx
  2020a8:	00 00 00 
  2020ab:	ff d2                	callq  *%rdx
  2020ad:	83 45 f0 01          	addl   $0x1,-0x10(%rbp)
  2020b1:	8b 45 f0             	mov    -0x10(%rbp),%eax
  2020b4:	3b 45 f4             	cmp    -0xc(%rbp),%eax
  2020b7:	72 9f                	jb     202058 <dump+0x8a>
  2020b9:	48 bf 24 8d 20 00 00 	mov    $0x208d24,%rdi
  2020c0:	00 00 00 
  2020c3:	b8 00 00 00 00       	mov    $0x0,%eax
  2020c8:	48 ba c8 87 20 00 00 	mov    $0x2087c8,%rdx
  2020cf:	00 00 00 
  2020d2:	ff d2                	callq  *%rdx
  2020d4:	48 83 45 f8 10       	addq   $0x10,-0x8(%rbp)
  2020d9:	83 7d e4 00          	cmpl   $0x0,-0x1c(%rbp)
  2020dd:	0f 85 07 ff ff ff    	jne    201fea <dump+0x1c>
  2020e3:	c9                   	leaveq 
  2020e4:	c3                   	retq   

00000000002020e5 <dump_iopb>:
  2020e5:	55                   	push   %rbp
  2020e6:	48 89 e5             	mov    %rsp,%rbp
  2020e9:	53                   	push   %rbx
  2020ea:	48 83 ec 18          	sub    $0x18,%rsp
  2020ee:	48 b8 70 d0 20 00 00 	mov    $0x20d070,%rax
  2020f5:	00 00 00 
  2020f8:	0f b6 40 7f          	movzbl 0x7f(%rax),%eax
  2020fc:	3c ff                	cmp    $0xff,%al
  2020fe:	0f 85 a8 00 00 00    	jne    2021ac <dump_iopb+0xc7>
  202104:	48 bf 28 8d 20 00 00 	mov    $0x208d28,%rdi
  20210b:	00 00 00 
  20210e:	b8 00 00 00 00       	mov    $0x0,%eax
  202113:	48 ba c8 87 20 00 00 	mov    $0x2087c8,%rdx
  20211a:	00 00 00 
  20211d:	ff d2                	callq  *%rdx
  20211f:	c7 45 ec 00 00 00 00 	movl   $0x0,-0x14(%rbp)
  202126:	eb 5e                	jmp    202186 <dump_iopb+0xa1>
  202128:	8b 45 ec             	mov    -0x14(%rbp),%eax
  20212b:	c1 e8 03             	shr    $0x3,%eax
  20212e:	89 45 e8             	mov    %eax,-0x18(%rbp)
  202131:	8b 45 ec             	mov    -0x14(%rbp),%eax
  202134:	83 e0 07             	and    $0x7,%eax
  202137:	ba 01 00 00 00       	mov    $0x1,%edx
  20213c:	89 d3                	mov    %edx,%ebx
  20213e:	89 c1                	mov    %eax,%ecx
  202140:	d3 e3                	shl    %cl,%ebx
  202142:	89 d8                	mov    %ebx,%eax
  202144:	89 45 e4             	mov    %eax,-0x1c(%rbp)
  202147:	48 ba 70 d0 20 00 00 	mov    $0x20d070,%rdx
  20214e:	00 00 00 
  202151:	8b 45 e8             	mov    -0x18(%rbp),%eax
  202154:	0f b6 04 02          	movzbl (%rdx,%rax,1),%eax
  202158:	0f b6 c0             	movzbl %al,%eax
  20215b:	23 45 e4             	and    -0x1c(%rbp),%eax
  20215e:	85 c0                	test   %eax,%eax
  202160:	75 20                	jne    202182 <dump_iopb+0x9d>
  202162:	8b 45 ec             	mov    -0x14(%rbp),%eax
  202165:	89 c6                	mov    %eax,%esi
  202167:	48 bf 50 8d 20 00 00 	mov    $0x208d50,%rdi
  20216e:	00 00 00 
  202171:	b8 00 00 00 00       	mov    $0x0,%eax
  202176:	48 ba c8 87 20 00 00 	mov    $0x2087c8,%rdx
  20217d:	00 00 00 
  202180:	ff d2                	callq  *%rdx
  202182:	83 45 ec 01          	addl   $0x1,-0x14(%rbp)
  202186:	81 7d ec ff 03 00 00 	cmpl   $0x3ff,-0x14(%rbp)
  20218d:	76 99                	jbe    202128 <dump_iopb+0x43>
  20218f:	48 bf 24 8d 20 00 00 	mov    $0x208d24,%rdi
  202196:	00 00 00 
  202199:	b8 00 00 00 00       	mov    $0x0,%eax
  20219e:	48 ba c8 87 20 00 00 	mov    $0x2087c8,%rdx
  2021a5:	00 00 00 
  2021a8:	ff d2                	callq  *%rdx
  2021aa:	eb 01                	jmp    2021ad <dump_iopb+0xc8>
  2021ac:	90                   	nop
  2021ad:	48 83 c4 18          	add    $0x18,%rsp
  2021b1:	5b                   	pop    %rbx
  2021b2:	c9                   	leaveq 
  2021b3:	c3                   	retq   

00000000002021b4 <dump_uregs>:
  2021b4:	55                   	push   %rbp
  2021b5:	48 89 e5             	mov    %rsp,%rbp
  2021b8:	53                   	push   %rbx
  2021b9:	48 83 ec 18          	sub    $0x18,%rsp
  2021bd:	48 89 7d e8          	mov    %rdi,-0x18(%rbp)
  2021c1:	48 8b 45 e8          	mov    -0x18(%rbp),%rax
  2021c5:	48 8b 48 50          	mov    0x50(%rax),%rcx
  2021c9:	48 8b 45 e8          	mov    -0x18(%rbp),%rax
  2021cd:	48 8b 50 58          	mov    0x58(%rax),%rdx
  2021d1:	48 8b 45 e8          	mov    -0x18(%rbp),%rax
  2021d5:	48 8b 40 60          	mov    0x60(%rax),%rax
  2021d9:	48 89 c6             	mov    %rax,%rsi
  2021dc:	48 bf 58 8d 20 00 00 	mov    $0x208d58,%rdi
  2021e3:	00 00 00 
  2021e6:	b8 00 00 00 00       	mov    $0x0,%eax
  2021eb:	48 bb c8 87 20 00 00 	mov    $0x2087c8,%rbx
  2021f2:	00 00 00 
  2021f5:	ff d3                	callq  *%rbx
  2021f7:	48 8b 45 e8          	mov    -0x18(%rbp),%rax
  2021fb:	48 8b 48 20          	mov    0x20(%rax),%rcx
  2021ff:	48 8b 45 e8          	mov    -0x18(%rbp),%rax
  202203:	48 8b 50 18          	mov    0x18(%rax),%rdx
  202207:	48 8b 45 e8          	mov    -0x18(%rbp),%rax
  20220b:	48 8b 40 10          	mov    0x10(%rax),%rax
  20220f:	48 89 c6             	mov    %rax,%rsi
  202212:	48 bf 80 8d 20 00 00 	mov    $0x208d80,%rdi
  202219:	00 00 00 
  20221c:	b8 00 00 00 00       	mov    $0x0,%eax
  202221:	48 bb c8 87 20 00 00 	mov    $0x2087c8,%rbx
  202228:	00 00 00 
  20222b:	ff d3                	callq  *%rbx
  20222d:	48 8b 45 e8          	mov    -0x18(%rbp),%rax
  202231:	48 8b 48 38          	mov    0x38(%rax),%rcx
  202235:	48 8b 45 e8          	mov    -0x18(%rbp),%rax
  202239:	48 8b 50 30          	mov    0x30(%rax),%rdx
  20223d:	48 8b 45 e8          	mov    -0x18(%rbp),%rax
  202241:	48 8b 40 28          	mov    0x28(%rax),%rax
  202245:	48 89 c6             	mov    %rax,%rsi
  202248:	48 bf a8 8d 20 00 00 	mov    $0x208da8,%rdi
  20224f:	00 00 00 
  202252:	b8 00 00 00 00       	mov    $0x0,%eax
  202257:	48 bb c8 87 20 00 00 	mov    $0x2087c8,%rbx
  20225e:	00 00 00 
  202261:	ff d3                	callq  *%rbx
  202263:	48 8b 45 e8          	mov    -0x18(%rbp),%rax
  202267:	48 8b 48 78          	mov    0x78(%rax),%rcx
  20226b:	48 8b 45 e8          	mov    -0x18(%rbp),%rax
  20226f:	48 8b 50 48          	mov    0x48(%rax),%rdx
  202273:	48 8b 45 e8          	mov    -0x18(%rbp),%rax
  202277:	48 8b 40 40          	mov    0x40(%rax),%rax
  20227b:	48 89 c6             	mov    %rax,%rsi
  20227e:	48 bf d0 8d 20 00 00 	mov    $0x208dd0,%rdi
  202285:	00 00 00 
  202288:	b8 00 00 00 00       	mov    $0x0,%eax
  20228d:	48 bb c8 87 20 00 00 	mov    $0x2087c8,%rbx
  202294:	00 00 00 
  202297:	ff d3                	callq  *%rbx
  202299:	48 8b 45 e8          	mov    -0x18(%rbp),%rax
  20229d:	48 8b 88 80 00 00 00 	mov    0x80(%rax),%rcx
  2022a4:	48 8b 45 e8          	mov    -0x18(%rbp),%rax
  2022a8:	48 8b 50 70          	mov    0x70(%rax),%rdx
  2022ac:	48 8b 45 e8          	mov    -0x18(%rbp),%rax
  2022b0:	48 8b 40 68          	mov    0x68(%rax),%rax
  2022b4:	48 89 c6             	mov    %rax,%rsi
  2022b7:	48 bf f8 8d 20 00 00 	mov    $0x208df8,%rdi
  2022be:	00 00 00 
  2022c1:	b8 00 00 00 00       	mov    $0x0,%eax
  2022c6:	48 bb c8 87 20 00 00 	mov    $0x2087c8,%rbx
  2022cd:	00 00 00 
  2022d0:	ff d3                	callq  *%rbx
  2022d2:	48 8b 45 e8          	mov    -0x18(%rbp),%rax
  2022d6:	48 8b 88 88 00 00 00 	mov    0x88(%rax),%rcx
  2022dd:	48 8b 45 e8          	mov    -0x18(%rbp),%rax
  2022e1:	48 8b 10             	mov    (%rax),%rdx
  2022e4:	48 8b 45 e8          	mov    -0x18(%rbp),%rax
  2022e8:	48 8b 40 08          	mov    0x8(%rax),%rax
  2022ec:	48 89 c6             	mov    %rax,%rsi
  2022ef:	48 bf 20 8e 20 00 00 	mov    $0x208e20,%rdi
  2022f6:	00 00 00 
  2022f9:	b8 00 00 00 00       	mov    $0x0,%eax
  2022fe:	48 bb c8 87 20 00 00 	mov    $0x2087c8,%rbx
  202305:	00 00 00 
  202308:	ff d3                	callq  *%rbx
  20230a:	48 8b 45 e8          	mov    -0x18(%rbp),%rax
  20230e:	48 8b 88 a0 00 00 00 	mov    0xa0(%rax),%rcx
  202315:	48 8b 45 e8          	mov    -0x18(%rbp),%rax
  202319:	48 8b 90 98 00 00 00 	mov    0x98(%rax),%rdx
  202320:	48 8b 45 e8          	mov    -0x18(%rbp),%rax
  202324:	48 8b 80 90 00 00 00 	mov    0x90(%rax),%rax
  20232b:	48 89 c6             	mov    %rax,%rsi
  20232e:	48 bf 50 8e 20 00 00 	mov    $0x208e50,%rdi
  202335:	00 00 00 
  202338:	b8 00 00 00 00       	mov    $0x0,%eax
  20233d:	48 bb c8 87 20 00 00 	mov    $0x2087c8,%rbx
  202344:	00 00 00 
  202347:	ff d3                	callq  *%rbx
  202349:	48 8b 45 e8          	mov    -0x18(%rbp),%rax
  20234d:	48 8b 88 b8 00 00 00 	mov    0xb8(%rax),%rcx
  202354:	48 8b 45 e8          	mov    -0x18(%rbp),%rax
  202358:	48 8b 90 b0 00 00 00 	mov    0xb0(%rax),%rdx
  20235f:	48 8b 45 e8          	mov    -0x18(%rbp),%rax
  202363:	48 8b 80 a8 00 00 00 	mov    0xa8(%rax),%rax
  20236a:	48 89 c6             	mov    %rax,%rsi
  20236d:	48 bf 80 8e 20 00 00 	mov    $0x208e80,%rdi
  202374:	00 00 00 
  202377:	b8 00 00 00 00       	mov    $0x0,%eax
  20237c:	48 bb c8 87 20 00 00 	mov    $0x2087c8,%rbx
  202383:	00 00 00 
  202386:	ff d3                	callq  *%rbx
  202388:	48 bf 24 8d 20 00 00 	mov    $0x208d24,%rdi
  20238f:	00 00 00 
  202392:	b8 00 00 00 00       	mov    $0x0,%eax
  202397:	48 ba c8 87 20 00 00 	mov    $0x2087c8,%rdx
  20239e:	00 00 00 
  2023a1:	ff d2                	callq  *%rdx
  2023a3:	48 83 c4 18          	add    $0x18,%rsp
  2023a7:	5b                   	pop    %rbx
  2023a8:	c9                   	leaveq 
  2023a9:	c3                   	retq   

00000000002023aa <dump_rip>:
  2023aa:	55                   	push   %rbp
  2023ab:	48 89 e5             	mov    %rsp,%rbp
  2023ae:	48 81 ec a0 02 00 00 	sub    $0x2a0,%rsp
  2023b5:	48 89 bd 68 fd ff ff 	mov    %rdi,-0x298(%rbp)
  2023bc:	89 b5 64 fd ff ff    	mov    %esi,-0x29c(%rbp)
  2023c2:	89 95 60 fd ff ff    	mov    %edx,-0x2a0(%rbp)
  2023c8:	8b 85 64 fd ff ff    	mov    -0x29c(%rbp),%eax
  2023ce:	48 98                	cltq   
  2023d0:	48 89 c2             	mov    %rax,%rdx
  2023d3:	48 03 95 68 fd ff ff 	add    -0x298(%rbp),%rdx
  2023da:	48 b8 c8 00 21 00 00 	mov    $0x2100c8,%rax
  2023e1:	00 00 00 
  2023e4:	48 89 10             	mov    %rdx,(%rax)
  2023e7:	8b 95 60 fd ff ff    	mov    -0x2a0(%rbp),%edx
  2023ed:	48 b8 14 60 22 00 00 	mov    $0x226014,%rax
  2023f4:	00 00 00 
  2023f7:	89 10                	mov    %edx,(%rax)
  2023f9:	48 8d 85 70 fd ff ff 	lea    -0x290(%rbp),%rax
  202400:	48 89 c7             	mov    %rax,%rdi
  202403:	48 b8 0c 49 20 00 00 	mov    $0x20490c,%rax
  20240a:	00 00 00 
  20240d:	ff d0                	callq  *%rax
  20240f:	48 8d 85 70 fd ff ff 	lea    -0x290(%rbp),%rax
  202416:	be 40 00 00 00       	mov    $0x40,%esi
  20241b:	48 89 c7             	mov    %rax,%rdi
  20241e:	48 b8 07 4a 20 00 00 	mov    $0x204a07,%rax
  202425:	00 00 00 
  202428:	ff d0                	callq  *%rax
  20242a:	48 8d 85 70 fd ff ff 	lea    -0x290(%rbp),%rax
  202431:	48 be f4 45 20 00 00 	mov    $0x2045f4,%rsi
  202438:	00 00 00 
  20243b:	48 89 c7             	mov    %rax,%rdi
  20243e:	48 b8 b6 4a 20 00 00 	mov    $0x204ab6,%rax
  202445:	00 00 00 
  202448:	ff d0                	callq  *%rax
  20244a:	48 b8 10 60 22 00 00 	mov    $0x226010,%rax
  202451:	00 00 00 
  202454:	8b 10                	mov    (%rax),%edx
  202456:	48 8d 85 70 fd ff ff 	lea    -0x290(%rbp),%rax
  20245d:	89 d6                	mov    %edx,%esi
  20245f:	48 89 c7             	mov    %rax,%rdi
  202462:	48 b8 60 4a 20 00 00 	mov    $0x204a60,%rax
  202469:	00 00 00 
  20246c:	ff d0                	callq  *%rax
  20246e:	48 b8 c8 00 21 00 00 	mov    $0x2100c8,%rax
  202475:	00 00 00 
  202478:	48 8b 10             	mov    (%rax),%rdx
  20247b:	48 8d 85 70 fd ff ff 	lea    -0x290(%rbp),%rax
  202482:	48 89 d6             	mov    %rdx,%rsi
  202485:	48 89 c7             	mov    %rax,%rdi
  202488:	48 b8 95 4a 20 00 00 	mov    $0x204a95,%rax
  20248f:	00 00 00 
  202492:	ff d0                	callq  *%rax
  202494:	48 8d 85 70 fd ff ff 	lea    -0x290(%rbp),%rax
  20249b:	48 be 34 25 20 00 00 	mov    $0x202534,%rsi
  2024a2:	00 00 00 
  2024a5:	48 89 c7             	mov    %rax,%rdi
  2024a8:	48 b8 c4 37 20 00 00 	mov    $0x2037c4,%rax
  2024af:	00 00 00 
  2024b2:	ff d0                	callq  *%rax
  2024b4:	eb 5f                	jmp    202515 <dump_rip+0x16b>
  2024b6:	48 8d 85 70 fd ff ff 	lea    -0x290(%rbp),%rax
  2024bd:	48 89 c7             	mov    %rax,%rdi
  2024c0:	48 b8 ea 4a 20 00 00 	mov    $0x204aea,%rax
  2024c7:	00 00 00 
  2024ca:	ff d0                	callq  *%rax
  2024cc:	48 89 c6             	mov    %rax,%rsi
  2024cf:	48 bf aa 8e 20 00 00 	mov    $0x208eaa,%rdi
  2024d6:	00 00 00 
  2024d9:	b8 00 00 00 00       	mov    $0x0,%eax
  2024de:	48 ba c8 87 20 00 00 	mov    $0x2087c8,%rdx
  2024e5:	00 00 00 
  2024e8:	ff d2                	callq  *%rdx
  2024ea:	48 b8 14 60 22 00 00 	mov    $0x226014,%rax
  2024f1:	00 00 00 
  2024f4:	8b 00                	mov    (%rax),%eax
  2024f6:	85 c0                	test   %eax,%eax
  2024f8:	74 37                	je     202531 <dump_rip+0x187>
  2024fa:	48 b8 14 60 22 00 00 	mov    $0x226014,%rax
  202501:	00 00 00 
  202504:	8b 00                	mov    (%rax),%eax
  202506:	8d 50 ff             	lea    -0x1(%rax),%edx
  202509:	48 b8 14 60 22 00 00 	mov    $0x226014,%rax
  202510:	00 00 00 
  202513:	89 10                	mov    %edx,(%rax)
  202515:	48 8d 85 70 fd ff ff 	lea    -0x290(%rbp),%rax
  20251c:	48 89 c7             	mov    %rax,%rdi
  20251f:	48 b8 75 49 20 00 00 	mov    $0x204975,%rax
  202526:	00 00 00 
  202529:	ff d0                	callq  *%rax
  20252b:	85 c0                	test   %eax,%eax
  20252d:	75 87                	jne    2024b6 <dump_rip+0x10c>
  20252f:	eb 01                	jmp    202532 <dump_rip+0x188>
  202531:	90                   	nop
  202532:	c9                   	leaveq 
  202533:	c3                   	retq   

0000000000202534 <input_hook_rip>:
  202534:	55                   	push   %rbp
  202535:	48 89 e5             	mov    %rsp,%rbp
  202538:	48 83 ec 18          	sub    $0x18,%rsp
  20253c:	48 89 7d e8          	mov    %rdi,-0x18(%rbp)
  202540:	48 b8 14 60 22 00 00 	mov    $0x226014,%rax
  202547:	00 00 00 
  20254a:	8b 00                	mov    (%rax),%eax
  20254c:	85 c0                	test   %eax,%eax
  20254e:	75 07                	jne    202557 <input_hook_rip+0x23>
  202550:	b8 ff ff ff ff       	mov    $0xffffffff,%eax
  202555:	eb 37                	jmp    20258e <input_hook_rip+0x5a>
  202557:	48 b8 c8 00 21 00 00 	mov    $0x2100c8,%rax
  20255e:	00 00 00 
  202561:	48 8b 00             	mov    (%rax),%rax
  202564:	0f b6 00             	movzbl (%rax),%eax
  202567:	0f b6 c0             	movzbl %al,%eax
  20256a:	89 45 fc             	mov    %eax,-0x4(%rbp)
  20256d:	48 b8 c8 00 21 00 00 	mov    $0x2100c8,%rax
  202574:	00 00 00 
  202577:	48 8b 00             	mov    (%rax),%rax
  20257a:	48 8d 50 01          	lea    0x1(%rax),%rdx
  20257e:	48 b8 c8 00 21 00 00 	mov    $0x2100c8,%rax
  202585:	00 00 00 
  202588:	48 89 10             	mov    %rdx,(%rax)
  20258b:	8b 45 fc             	mov    -0x4(%rbp),%eax
  20258e:	c9                   	leaveq 
  20258f:	c3                   	retq   

0000000000202590 <init_video>:
  202590:	55                   	push   %rbp
  202591:	48 89 e5             	mov    %rsp,%rbp
  202594:	53                   	push   %rbx
  202595:	48 83 ec 18          	sub    $0x18,%rsp
  202599:	bf cc 03 00 00       	mov    $0x3cc,%edi
  20259e:	48 b8 a0 7f 20 00 00 	mov    $0x207fa0,%rax
  2025a5:	00 00 00 
  2025a8:	ff d0                	callq  *%rax
  2025aa:	0f b6 c0             	movzbl %al,%eax
  2025ad:	83 e0 01             	and    $0x1,%eax
  2025b0:	84 c0                	test   %al,%al
  2025b2:	74 19                	je     2025cd <init_video+0x3d>
  2025b4:	48 c7 45 e0 00 80 0b 	movq   $0xb8000,-0x20(%rbp)
  2025bb:	00 
  2025bc:	48 b8 28 60 22 00 00 	mov    $0x226028,%rax
  2025c3:	00 00 00 
  2025c6:	66 c7 00 d4 03       	movw   $0x3d4,(%rax)
  2025cb:	eb 17                	jmp    2025e4 <init_video+0x54>
  2025cd:	48 c7 45 e0 00 00 0b 	movq   $0xb0000,-0x20(%rbp)
  2025d4:	00 
  2025d5:	48 b8 28 60 22 00 00 	mov    $0x226028,%rax
  2025dc:	00 00 00 
  2025df:	66 c7 00 b4 03       	movw   $0x3b4,(%rax)
  2025e4:	48 8b 55 e0          	mov    -0x20(%rbp),%rdx
  2025e8:	48 b8 20 60 22 00 00 	mov    $0x226020,%rax
  2025ef:	00 00 00 
  2025f2:	48 89 10             	mov    %rdx,(%rax)
  2025f5:	b8 4a 04 00 00       	mov    $0x44a,%eax
  2025fa:	0f b7 10             	movzwl (%rax),%edx
  2025fd:	48 b8 1c 60 22 00 00 	mov    $0x22601c,%rax
  202604:	00 00 00 
  202607:	66 89 10             	mov    %dx,(%rax)
  20260a:	b8 84 04 00 00       	mov    $0x484,%eax
  20260f:	0f b6 00             	movzbl (%rax),%eax
  202612:	0f b6 c0             	movzbl %al,%eax
  202615:	8d 50 01             	lea    0x1(%rax),%edx
  202618:	48 b8 1a 60 22 00 00 	mov    $0x22601a,%rax
  20261f:	00 00 00 
  202622:	66 89 10             	mov    %dx,(%rax)
  202625:	48 b8 19 60 22 00 00 	mov    $0x226019,%rax
  20262c:	00 00 00 
  20262f:	c6 00 00             	movb   $0x0,(%rax)
  202632:	48 b8 19 60 22 00 00 	mov    $0x226019,%rax
  202639:	00 00 00 
  20263c:	0f b6 10             	movzbl (%rax),%edx
  20263f:	48 b8 18 60 22 00 00 	mov    $0x226018,%rax
  202646:	00 00 00 
  202649:	88 10                	mov    %dl,(%rax)
  20264b:	66 c7 45 ee 00 00    	movw   $0x0,-0x12(%rbp)
  202651:	e9 cf 00 00 00       	jmpq   202725 <init_video+0x195>
  202656:	0f b7 4d ee          	movzwl -0x12(%rbp),%ecx
  20265a:	0f b7 45 ee          	movzwl -0x12(%rbp),%eax
  20265e:	48 ba 60 68 22 00 00 	mov    $0x226860,%rdx
  202665:	00 00 00 
  202668:	48 63 d8             	movslq %eax,%rbx
  20266b:	48 c1 e3 04          	shl    $0x4,%rbx
  20266f:	48 01 da             	add    %rbx,%rdx
  202672:	66 c7 42 02 00 00    	movw   $0x0,0x2(%rdx)
  202678:	48 ba 60 68 22 00 00 	mov    $0x226860,%rdx
  20267f:	00 00 00 
  202682:	48 98                	cltq   
  202684:	48 c1 e0 04          	shl    $0x4,%rax
  202688:	48 8d 04 02          	lea    (%rdx,%rax,1),%rax
  20268c:	0f b7 40 02          	movzwl 0x2(%rax),%eax
  202690:	48 ba 60 68 22 00 00 	mov    $0x226860,%rdx
  202697:	00 00 00 
  20269a:	48 63 c9             	movslq %ecx,%rcx
  20269d:	48 c1 e1 04          	shl    $0x4,%rcx
  2026a1:	48 01 ca             	add    %rcx,%rdx
  2026a4:	66 89 02             	mov    %ax,(%rdx)
  2026a7:	0f b7 55 ee          	movzwl -0x12(%rbp),%edx
  2026ab:	48 b8 60 68 22 00 00 	mov    $0x226860,%rax
  2026b2:	00 00 00 
  2026b5:	48 63 d2             	movslq %edx,%rdx
  2026b8:	48 c1 e2 04          	shl    $0x4,%rdx
  2026bc:	48 01 d0             	add    %rdx,%rax
  2026bf:	66 c7 40 04 00 07    	movw   $0x700,0x4(%rax)
  2026c5:	0f b7 4d ee          	movzwl -0x12(%rbp),%ecx
  2026c9:	48 b8 20 60 22 00 00 	mov    $0x226020,%rax
  2026d0:	00 00 00 
  2026d3:	48 8b 10             	mov    (%rax),%rdx
  2026d6:	48 b8 1a 60 22 00 00 	mov    $0x22601a,%rax
  2026dd:	00 00 00 
  2026e0:	0f b7 00             	movzwl (%rax),%eax
  2026e3:	0f b7 d8             	movzwl %ax,%ebx
  2026e6:	48 b8 1c 60 22 00 00 	mov    $0x22601c,%rax
  2026ed:	00 00 00 
  2026f0:	0f b7 00             	movzwl (%rax),%eax
  2026f3:	0f b7 c0             	movzwl %ax,%eax
  2026f6:	0f af d8             	imul   %eax,%ebx
  2026f9:	0f b7 45 ee          	movzwl -0x12(%rbp),%eax
  2026fd:	0f af c3             	imul   %ebx,%eax
  202700:	48 98                	cltq   
  202702:	48 01 c0             	add    %rax,%rax
  202705:	48 01 c2             	add    %rax,%rdx
  202708:	48 b8 60 68 22 00 00 	mov    $0x226860,%rax
  20270f:	00 00 00 
  202712:	48 63 c9             	movslq %ecx,%rcx
  202715:	48 c1 e1 04          	shl    $0x4,%rcx
  202719:	48 01 c8             	add    %rcx,%rax
  20271c:	48 89 50 08          	mov    %rdx,0x8(%rax)
  202720:	66 83 45 ee 01       	addw   $0x1,-0x12(%rbp)
  202725:	66 83 7d ee 07       	cmpw   $0x7,-0x12(%rbp)
  20272a:	0f 86 26 ff ff ff    	jbe    202656 <init_video+0xc6>
  202730:	48 b8 40 60 22 00 00 	mov    $0x226040,%rax
  202737:	00 00 00 
  20273a:	48 ba 60 68 22 00 00 	mov    $0x226860,%rdx
  202741:	00 00 00 
  202744:	48 89 10             	mov    %rdx,(%rax)
  202747:	b8 00 00 00 00       	mov    $0x0,%eax
  20274c:	48 ba 59 2a 20 00 00 	mov    $0x202a59,%rdx
  202753:	00 00 00 
  202756:	ff d2                	callq  *%rdx
  202758:	b8 01 00 00 00       	mov    $0x1,%eax
  20275d:	48 83 c4 18          	add    $0x18,%rsp
  202761:	5b                   	pop    %rbx
  202762:	c9                   	leaveq 
  202763:	c3                   	retq   

0000000000202764 <blink>:
  202764:	55                   	push   %rbp
  202765:	48 89 e5             	mov    %rsp,%rbp
  202768:	48 b8 40 60 22 00 00 	mov    $0x226040,%rax
  20276f:	00 00 00 
  202772:	48 8b 00             	mov    (%rax),%rax
  202775:	48 8b 40 08          	mov    0x8(%rax),%rax
  202779:	0f b6 10             	movzbl (%rax),%edx
  20277c:	83 c2 01             	add    $0x1,%edx
  20277f:	88 10                	mov    %dl,(%rax)
  202781:	c9                   	leaveq 
  202782:	c3                   	retq   

0000000000202783 <scroll>:
  202783:	55                   	push   %rbp
  202784:	48 89 e5             	mov    %rsp,%rbp
  202787:	48 83 ec 18          	sub    $0x18,%rsp
  20278b:	48 89 7d e8          	mov    %rdi,-0x18(%rbp)
  20278f:	c7 45 fc 00 00 00 00 	movl   $0x0,-0x4(%rbp)
  202796:	eb 40                	jmp    2027d8 <scroll+0x55>
  202798:	48 8b 45 e8          	mov    -0x18(%rbp),%rax
  20279c:	48 8b 40 08          	mov    0x8(%rax),%rax
  2027a0:	8b 55 fc             	mov    -0x4(%rbp),%edx
  2027a3:	48 01 d2             	add    %rdx,%rdx
  2027a6:	48 8d 14 10          	lea    (%rax,%rdx,1),%rdx
  2027aa:	48 8b 45 e8          	mov    -0x18(%rbp),%rax
  2027ae:	48 8b 48 08          	mov    0x8(%rax),%rcx
  2027b2:	48 b8 1c 60 22 00 00 	mov    $0x22601c,%rax
  2027b9:	00 00 00 
  2027bc:	0f b7 00             	movzwl (%rax),%eax
  2027bf:	0f b7 c0             	movzwl %ax,%eax
  2027c2:	03 45 fc             	add    -0x4(%rbp),%eax
  2027c5:	89 c0                	mov    %eax,%eax
  2027c7:	48 01 c0             	add    %rax,%rax
  2027ca:	48 8d 04 01          	lea    (%rcx,%rax,1),%rax
  2027ce:	0f b7 00             	movzwl (%rax),%eax
  2027d1:	66 89 02             	mov    %ax,(%rdx)
  2027d4:	83 45 fc 01          	addl   $0x1,-0x4(%rbp)
  2027d8:	48 b8 1c 60 22 00 00 	mov    $0x22601c,%rax
  2027df:	00 00 00 
  2027e2:	0f b7 00             	movzwl (%rax),%eax
  2027e5:	0f b7 d0             	movzwl %ax,%edx
  2027e8:	48 b8 1a 60 22 00 00 	mov    $0x22601a,%rax
  2027ef:	00 00 00 
  2027f2:	0f b7 00             	movzwl (%rax),%eax
  2027f5:	0f b7 c0             	movzwl %ax,%eax
  2027f8:	83 e8 01             	sub    $0x1,%eax
  2027fb:	0f af c2             	imul   %edx,%eax
  2027fe:	3b 45 fc             	cmp    -0x4(%rbp),%eax
  202801:	77 95                	ja     202798 <scroll+0x15>
  202803:	eb 2a                	jmp    20282f <scroll+0xac>
  202805:	48 8b 45 e8          	mov    -0x18(%rbp),%rax
  202809:	48 8b 40 08          	mov    0x8(%rax),%rax
  20280d:	8b 55 fc             	mov    -0x4(%rbp),%edx
  202810:	48 01 d2             	add    %rdx,%rdx
  202813:	48 8d 14 10          	lea    (%rax,%rdx,1),%rdx
  202817:	48 8b 45 e8          	mov    -0x18(%rbp),%rax
  20281b:	0f b7 40 04          	movzwl 0x4(%rax),%eax
  20281f:	0f b7 c0             	movzwl %ax,%eax
  202822:	c1 e0 08             	shl    $0x8,%eax
  202825:	83 c8 20             	or     $0x20,%eax
  202828:	66 89 02             	mov    %ax,(%rdx)
  20282b:	83 45 fc 01          	addl   $0x1,-0x4(%rbp)
  20282f:	48 b8 1c 60 22 00 00 	mov    $0x22601c,%rax
  202836:	00 00 00 
  202839:	0f b7 00             	movzwl (%rax),%eax
  20283c:	0f b7 d0             	movzwl %ax,%edx
  20283f:	48 b8 1a 60 22 00 00 	mov    $0x22601a,%rax
  202846:	00 00 00 
  202849:	0f b7 00             	movzwl (%rax),%eax
  20284c:	0f b7 c0             	movzwl %ax,%eax
  20284f:	0f af c2             	imul   %edx,%eax
  202852:	3b 45 fc             	cmp    -0x4(%rbp),%eax
  202855:	77 ae                	ja     202805 <scroll+0x82>
  202857:	48 b8 1a 60 22 00 00 	mov    $0x22601a,%rax
  20285e:	00 00 00 
  202861:	0f b7 00             	movzwl (%rax),%eax
  202864:	8d 50 ff             	lea    -0x1(%rax),%edx
  202867:	48 8b 45 e8          	mov    -0x18(%rbp),%rax
  20286b:	66 89 50 02          	mov    %dx,0x2(%rax)
  20286f:	48 8b 45 e8          	mov    -0x18(%rbp),%rax
  202873:	66 c7 00 00 00       	movw   $0x0,(%rax)
  202878:	c9                   	leaveq 
  202879:	c3                   	retq   

000000000020287a <move_scr>:
  20287a:	55                   	push   %rbp
  20287b:	48 89 e5             	mov    %rsp,%rbp
  20287e:	53                   	push   %rbx
  20287f:	48 83 ec 28          	sub    $0x28,%rsp
  202883:	48 89 7d d8          	mov    %rdi,-0x28(%rbp)
  202887:	48 8b 45 d8          	mov    -0x28(%rbp),%rax
  20288b:	0f b7 40 02          	movzwl 0x2(%rax),%eax
  20288f:	0f b7 d0             	movzwl %ax,%edx
  202892:	48 b8 1c 60 22 00 00 	mov    $0x22601c,%rax
  202899:	00 00 00 
  20289c:	0f b7 00             	movzwl (%rax),%eax
  20289f:	0f b7 c0             	movzwl %ax,%eax
  2028a2:	0f af d0             	imul   %eax,%edx
  2028a5:	48 8b 45 d8          	mov    -0x28(%rbp),%rax
  2028a9:	0f b7 00             	movzwl (%rax),%eax
  2028ac:	0f b7 c0             	movzwl %ax,%eax
  2028af:	8d 04 02             	lea    (%rdx,%rax,1),%eax
  2028b2:	89 c2                	mov    %eax,%edx
  2028b4:	48 8b 45 d8          	mov    -0x28(%rbp),%rax
  2028b8:	48 8b 40 08          	mov    0x8(%rax),%rax
  2028bc:	48 89 c1             	mov    %rax,%rcx
  2028bf:	48 b8 20 60 22 00 00 	mov    $0x226020,%rax
  2028c6:	00 00 00 
  2028c9:	48 8b 00             	mov    (%rax),%rax
  2028cc:	48 89 cb             	mov    %rcx,%rbx
  2028cf:	48 29 c3             	sub    %rax,%rbx
  2028d2:	48 89 d8             	mov    %rbx,%rax
  2028d5:	48 d1 f8             	sar    %rax
  2028d8:	8d 04 02             	lea    (%rdx,%rax,1),%eax
  2028db:	89 45 ec             	mov    %eax,-0x14(%rbp)
  2028de:	8b 45 ec             	mov    -0x14(%rbp),%eax
  2028e1:	3d ff ff 00 00       	cmp    $0xffff,%eax
  2028e6:	7e 16                	jle    2028fe <move_scr+0x84>
  2028e8:	48 b8 60 68 22 00 00 	mov    $0x226860,%rax
  2028ef:	00 00 00 
  2028f2:	48 8b 40 08          	mov    0x8(%rax),%rax
  2028f6:	0f b6 10             	movzbl (%rax),%edx
  2028f9:	83 c2 01             	add    $0x1,%edx
  2028fc:	88 10                	mov    %dl,(%rax)
  2028fe:	48 b8 28 60 22 00 00 	mov    $0x226028,%rax
  202905:	00 00 00 
  202908:	0f b7 00             	movzwl (%rax),%eax
  20290b:	0f b7 c0             	movzwl %ax,%eax
  20290e:	be 0e 00 00 00       	mov    $0xe,%esi
  202913:	89 c7                	mov    %eax,%edi
  202915:	48 b8 c8 7f 20 00 00 	mov    $0x207fc8,%rax
  20291c:	00 00 00 
  20291f:	ff d0                	callq  *%rax
  202921:	8b 45 ec             	mov    -0x14(%rbp),%eax
  202924:	c1 e8 08             	shr    $0x8,%eax
  202927:	0f b6 d0             	movzbl %al,%edx
  20292a:	48 b8 28 60 22 00 00 	mov    $0x226028,%rax
  202931:	00 00 00 
  202934:	0f b7 00             	movzwl (%rax),%eax
  202937:	0f b7 c0             	movzwl %ax,%eax
  20293a:	83 c0 01             	add    $0x1,%eax
  20293d:	89 d6                	mov    %edx,%esi
  20293f:	89 c7                	mov    %eax,%edi
  202941:	48 b8 c8 7f 20 00 00 	mov    $0x207fc8,%rax
  202948:	00 00 00 
  20294b:	ff d0                	callq  *%rax
  20294d:	48 b8 28 60 22 00 00 	mov    $0x226028,%rax
  202954:	00 00 00 
  202957:	0f b7 00             	movzwl (%rax),%eax
  20295a:	0f b7 c0             	movzwl %ax,%eax
  20295d:	be 0f 00 00 00       	mov    $0xf,%esi
  202962:	89 c7                	mov    %eax,%edi
  202964:	48 b8 c8 7f 20 00 00 	mov    $0x207fc8,%rax
  20296b:	00 00 00 
  20296e:	ff d0                	callq  *%rax
  202970:	8b 45 ec             	mov    -0x14(%rbp),%eax
  202973:	0f b6 d0             	movzbl %al,%edx
  202976:	48 b8 28 60 22 00 00 	mov    $0x226028,%rax
  20297d:	00 00 00 
  202980:	0f b7 00             	movzwl (%rax),%eax
  202983:	0f b7 c0             	movzwl %ax,%eax
  202986:	83 c0 01             	add    $0x1,%eax
  202989:	89 d6                	mov    %edx,%esi
  20298b:	89 c7                	mov    %eax,%edi
  20298d:	48 b8 c8 7f 20 00 00 	mov    $0x207fc8,%rax
  202994:	00 00 00 
  202997:	ff d0                	callq  *%rax
  202999:	48 83 c4 28          	add    $0x28,%rsp
  20299d:	5b                   	pop    %rbx
  20299e:	c9                   	leaveq 
  20299f:	c3                   	retq   

00000000002029a0 <display_cursor>:
  2029a0:	55                   	push   %rbp
  2029a1:	48 89 e5             	mov    %rsp,%rbp
  2029a4:	48 83 ec 10          	sub    $0x10,%rsp
  2029a8:	89 f8                	mov    %edi,%eax
  2029aa:	66 89 45 fc          	mov    %ax,-0x4(%rbp)
  2029ae:	48 b8 28 60 22 00 00 	mov    $0x226028,%rax
  2029b5:	00 00 00 
  2029b8:	0f b7 00             	movzwl (%rax),%eax
  2029bb:	0f b7 c0             	movzwl %ax,%eax
  2029be:	be 0a 00 00 00       	mov    $0xa,%esi
  2029c3:	89 c7                	mov    %eax,%edi
  2029c5:	48 b8 c8 7f 20 00 00 	mov    $0x207fc8,%rax
  2029cc:	00 00 00 
  2029cf:	ff d0                	callq  *%rax
  2029d1:	0f b7 45 fc          	movzwl -0x4(%rbp),%eax
  2029d5:	83 e0 1f             	and    $0x1f,%eax
  2029d8:	83 c8 20             	or     $0x20,%eax
  2029db:	0f b6 d0             	movzbl %al,%edx
  2029de:	48 b8 28 60 22 00 00 	mov    $0x226028,%rax
  2029e5:	00 00 00 
  2029e8:	0f b7 00             	movzwl (%rax),%eax
  2029eb:	0f b7 c0             	movzwl %ax,%eax
  2029ee:	83 c0 01             	add    $0x1,%eax
  2029f1:	89 d6                	mov    %edx,%esi
  2029f3:	89 c7                	mov    %eax,%edi
  2029f5:	48 b8 c8 7f 20 00 00 	mov    $0x207fc8,%rax
  2029fc:	00 00 00 
  2029ff:	ff d0                	callq  *%rax
  202a01:	48 b8 28 60 22 00 00 	mov    $0x226028,%rax
  202a08:	00 00 00 
  202a0b:	0f b7 00             	movzwl (%rax),%eax
  202a0e:	0f b7 c0             	movzwl %ax,%eax
  202a11:	be 0b 00 00 00       	mov    $0xb,%esi
  202a16:	89 c7                	mov    %eax,%edi
  202a18:	48 b8 c8 7f 20 00 00 	mov    $0x207fc8,%rax
  202a1f:	00 00 00 
  202a22:	ff d0                	callq  *%rax
  202a24:	0f b7 45 fc          	movzwl -0x4(%rbp),%eax
  202a28:	66 c1 e8 05          	shr    $0x5,%ax
  202a2c:	0f b6 c0             	movzbl %al,%eax
  202a2f:	89 c2                	mov    %eax,%edx
  202a31:	83 e2 1f             	and    $0x1f,%edx
  202a34:	48 b8 28 60 22 00 00 	mov    $0x226028,%rax
  202a3b:	00 00 00 
  202a3e:	0f b7 00             	movzwl (%rax),%eax
  202a41:	0f b7 c0             	movzwl %ax,%eax
  202a44:	83 c0 01             	add    $0x1,%eax
  202a47:	89 d6                	mov    %edx,%esi
  202a49:	89 c7                	mov    %eax,%edi
  202a4b:	48 b8 c8 7f 20 00 00 	mov    $0x207fc8,%rax
  202a52:	00 00 00 
  202a55:	ff d0                	callq  *%rax
  202a57:	c9                   	leaveq 
  202a58:	c3                   	retq   

0000000000202a59 <clscr>:
  202a59:	55                   	push   %rbp
  202a5a:	48 89 e5             	mov    %rsp,%rbp
  202a5d:	48 83 ec 10          	sub    $0x10,%rsp
  202a61:	66 c7 45 fe 00 00    	movw   $0x0,-0x2(%rbp)
  202a67:	eb 38                	jmp    202aa1 <clscr+0x48>
  202a69:	48 b8 40 60 22 00 00 	mov    $0x226040,%rax
  202a70:	00 00 00 
  202a73:	48 8b 00             	mov    (%rax),%rax
  202a76:	48 8b 40 08          	mov    0x8(%rax),%rax
  202a7a:	0f b7 55 fe          	movzwl -0x2(%rbp),%edx
  202a7e:	48 01 d2             	add    %rdx,%rdx
  202a81:	48 8d 14 10          	lea    (%rax,%rdx,1),%rdx
  202a85:	48 b8 40 60 22 00 00 	mov    $0x226040,%rax
  202a8c:	00 00 00 
  202a8f:	48 8b 00             	mov    (%rax),%rax
  202a92:	0f b7 40 04          	movzwl 0x4(%rax),%eax
  202a96:	83 c8 20             	or     $0x20,%eax
  202a99:	66 89 02             	mov    %ax,(%rdx)
  202a9c:	66 83 45 fe 01       	addw   $0x1,-0x2(%rbp)
  202aa1:	0f b7 55 fe          	movzwl -0x2(%rbp),%edx
  202aa5:	48 b8 1c 60 22 00 00 	mov    $0x22601c,%rax
  202aac:	00 00 00 
  202aaf:	0f b7 00             	movzwl (%rax),%eax
  202ab2:	0f b7 c8             	movzwl %ax,%ecx
  202ab5:	48 b8 1a 60 22 00 00 	mov    $0x22601a,%rax
  202abc:	00 00 00 
  202abf:	0f b7 00             	movzwl (%rax),%eax
  202ac2:	0f b7 c0             	movzwl %ax,%eax
  202ac5:	0f af c1             	imul   %ecx,%eax
  202ac8:	39 c2                	cmp    %eax,%edx
  202aca:	7c 9d                	jl     202a69 <clscr+0x10>
  202acc:	48 b8 40 60 22 00 00 	mov    $0x226040,%rax
  202ad3:	00 00 00 
  202ad6:	48 8b 10             	mov    (%rax),%rdx
  202ad9:	48 b8 40 60 22 00 00 	mov    $0x226040,%rax
  202ae0:	00 00 00 
  202ae3:	48 8b 00             	mov    (%rax),%rax
  202ae6:	66 c7 00 00 00       	movw   $0x0,(%rax)
  202aeb:	0f b7 00             	movzwl (%rax),%eax
  202aee:	66 89 42 02          	mov    %ax,0x2(%rdx)
  202af2:	48 b8 40 60 22 00 00 	mov    $0x226040,%rax
  202af9:	00 00 00 
  202afc:	48 8b 00             	mov    (%rax),%rax
  202aff:	48 89 c7             	mov    %rax,%rdi
  202b02:	48 b8 7a 28 20 00 00 	mov    $0x20287a,%rax
  202b09:	00 00 00 
  202b0c:	ff d0                	callq  *%rax
  202b0e:	c9                   	leaveq 
  202b0f:	c3                   	retq   

0000000000202b10 <alt_con>:
  202b10:	55                   	push   %rbp
  202b11:	48 89 e5             	mov    %rsp,%rbp
  202b14:	48 83 ec 20          	sub    $0x20,%rsp
  202b18:	89 f8                	mov    %edi,%eax
  202b1a:	66 89 45 ec          	mov    %ax,-0x14(%rbp)
  202b1e:	66 83 7d ec 07       	cmpw   $0x7,-0x14(%rbp)
  202b23:	76 0a                	jbe    202b2f <alt_con+0x1f>
  202b25:	b8 00 00 00 00       	mov    $0x0,%eax
  202b2a:	e9 27 01 00 00       	jmpq   202c56 <alt_con+0x146>
  202b2f:	0f b7 55 ec          	movzwl -0x14(%rbp),%edx
  202b33:	48 b8 60 68 22 00 00 	mov    $0x226860,%rax
  202b3a:	00 00 00 
  202b3d:	48 63 d2             	movslq %edx,%rdx
  202b40:	48 c1 e2 04          	shl    $0x4,%rdx
  202b44:	48 01 d0             	add    %rdx,%rax
  202b47:	48 8b 40 08          	mov    0x8(%rax),%rax
  202b4b:	48 89 c2             	mov    %rax,%rdx
  202b4e:	48 b8 20 60 22 00 00 	mov    $0x226020,%rax
  202b55:	00 00 00 
  202b58:	48 8b 00             	mov    (%rax),%rax
  202b5b:	48 89 d1             	mov    %rdx,%rcx
  202b5e:	48 29 c1             	sub    %rax,%rcx
  202b61:	48 89 c8             	mov    %rcx,%rax
  202b64:	48 d1 f8             	sar    %rax
  202b67:	89 45 fc             	mov    %eax,-0x4(%rbp)
  202b6a:	48 b8 28 60 22 00 00 	mov    $0x226028,%rax
  202b71:	00 00 00 
  202b74:	0f b7 00             	movzwl (%rax),%eax
  202b77:	0f b7 c0             	movzwl %ax,%eax
  202b7a:	be 0c 00 00 00       	mov    $0xc,%esi
  202b7f:	89 c7                	mov    %eax,%edi
  202b81:	48 b8 c8 7f 20 00 00 	mov    $0x207fc8,%rax
  202b88:	00 00 00 
  202b8b:	ff d0                	callq  *%rax
  202b8d:	8b 45 fc             	mov    -0x4(%rbp),%eax
  202b90:	c1 e8 08             	shr    $0x8,%eax
  202b93:	0f b6 d0             	movzbl %al,%edx
  202b96:	48 b8 28 60 22 00 00 	mov    $0x226028,%rax
  202b9d:	00 00 00 
  202ba0:	0f b7 00             	movzwl (%rax),%eax
  202ba3:	0f b7 c0             	movzwl %ax,%eax
  202ba6:	83 c0 01             	add    $0x1,%eax
  202ba9:	89 d6                	mov    %edx,%esi
  202bab:	89 c7                	mov    %eax,%edi
  202bad:	48 b8 c8 7f 20 00 00 	mov    $0x207fc8,%rax
  202bb4:	00 00 00 
  202bb7:	ff d0                	callq  *%rax
  202bb9:	48 b8 28 60 22 00 00 	mov    $0x226028,%rax
  202bc0:	00 00 00 
  202bc3:	0f b7 00             	movzwl (%rax),%eax
  202bc6:	0f b7 c0             	movzwl %ax,%eax
  202bc9:	be 0d 00 00 00       	mov    $0xd,%esi
  202bce:	89 c7                	mov    %eax,%edi
  202bd0:	48 b8 c8 7f 20 00 00 	mov    $0x207fc8,%rax
  202bd7:	00 00 00 
  202bda:	ff d0                	callq  *%rax
  202bdc:	8b 45 fc             	mov    -0x4(%rbp),%eax
  202bdf:	0f b6 d0             	movzbl %al,%edx
  202be2:	48 b8 28 60 22 00 00 	mov    $0x226028,%rax
  202be9:	00 00 00 
  202bec:	0f b7 00             	movzwl (%rax),%eax
  202bef:	0f b7 c0             	movzwl %ax,%eax
  202bf2:	83 c0 01             	add    $0x1,%eax
  202bf5:	89 d6                	mov    %edx,%esi
  202bf7:	89 c7                	mov    %eax,%edi
  202bf9:	48 b8 c8 7f 20 00 00 	mov    $0x207fc8,%rax
  202c00:	00 00 00 
  202c03:	ff d0                	callq  *%rax
  202c05:	0f b7 45 ec          	movzwl -0x14(%rbp),%eax
  202c09:	48 89 c2             	mov    %rax,%rdx
  202c0c:	48 c1 e2 04          	shl    $0x4,%rdx
  202c10:	48 b8 60 68 22 00 00 	mov    $0x226860,%rax
  202c17:	00 00 00 
  202c1a:	48 8d 04 02          	lea    (%rdx,%rax,1),%rax
  202c1e:	48 89 c7             	mov    %rax,%rdi
  202c21:	48 b8 7a 28 20 00 00 	mov    $0x20287a,%rax
  202c28:	00 00 00 
  202c2b:	ff d0                	callq  *%rax
  202c2d:	0f b7 45 ec          	movzwl -0x14(%rbp),%eax
  202c31:	89 c2                	mov    %eax,%edx
  202c33:	48 b8 18 60 22 00 00 	mov    $0x226018,%rax
  202c3a:	00 00 00 
  202c3d:	88 10                	mov    %dl,(%rax)
  202c3f:	0f b7 45 ec          	movzwl -0x14(%rbp),%eax
  202c43:	89 c7                	mov    %eax,%edi
  202c45:	48 b8 90 30 20 00 00 	mov    $0x203090,%rax
  202c4c:	00 00 00 
  202c4f:	ff d0                	callq  *%rax
  202c51:	b8 01 00 00 00       	mov    $0x1,%eax
  202c56:	c9                   	leaveq 
  202c57:	c3                   	retq   

0000000000202c58 <gotoxy>:
  202c58:	55                   	push   %rbp
  202c59:	48 89 e5             	mov    %rsp,%rbp
  202c5c:	48 83 ec 10          	sub    $0x10,%rsp
  202c60:	89 7d fc             	mov    %edi,-0x4(%rbp)
  202c63:	89 75 f8             	mov    %esi,-0x8(%rbp)
  202c66:	48 b8 1c 60 22 00 00 	mov    $0x22601c,%rax
  202c6d:	00 00 00 
  202c70:	0f b7 00             	movzwl (%rax),%eax
  202c73:	0f b7 c0             	movzwl %ax,%eax
  202c76:	3b 45 fc             	cmp    -0x4(%rbp),%eax
  202c79:	72 5f                	jb     202cda <gotoxy+0x82>
  202c7b:	48 b8 1a 60 22 00 00 	mov    $0x22601a,%rax
  202c82:	00 00 00 
  202c85:	0f b7 00             	movzwl (%rax),%eax
  202c88:	0f b7 c0             	movzwl %ax,%eax
  202c8b:	3b 45 f8             	cmp    -0x8(%rbp),%eax
  202c8e:	72 4a                	jb     202cda <gotoxy+0x82>
  202c90:	48 b8 40 60 22 00 00 	mov    $0x226040,%rax
  202c97:	00 00 00 
  202c9a:	48 8b 00             	mov    (%rax),%rax
  202c9d:	8b 55 f8             	mov    -0x8(%rbp),%edx
  202ca0:	66 89 50 02          	mov    %dx,0x2(%rax)
  202ca4:	48 b8 40 60 22 00 00 	mov    $0x226040,%rax
  202cab:	00 00 00 
  202cae:	48 8b 00             	mov    (%rax),%rax
  202cb1:	8b 55 fc             	mov    -0x4(%rbp),%edx
  202cb4:	66 89 10             	mov    %dx,(%rax)
  202cb7:	48 b8 40 60 22 00 00 	mov    $0x226040,%rax
  202cbe:	00 00 00 
  202cc1:	48 8b 00             	mov    (%rax),%rax
  202cc4:	48 89 c7             	mov    %rax,%rdi
  202cc7:	48 b8 7a 28 20 00 00 	mov    $0x20287a,%rax
  202cce:	00 00 00 
  202cd1:	ff d0                	callq  *%rax
  202cd3:	b8 01 00 00 00       	mov    $0x1,%eax
  202cd8:	eb 05                	jmp    202cdf <gotoxy+0x87>
  202cda:	b8 00 00 00 00       	mov    $0x0,%eax
  202cdf:	c9                   	leaveq 
  202ce0:	c3                   	retq   

0000000000202ce1 <putch>:
  202ce1:	55                   	push   %rbp
  202ce2:	48 89 e5             	mov    %rsp,%rbp
  202ce5:	48 83 ec 10          	sub    $0x10,%rsp
  202ce9:	89 f8                	mov    %edi,%eax
  202ceb:	88 45 fc             	mov    %al,-0x4(%rbp)
  202cee:	80 7d fc 08          	cmpb   $0x8,-0x4(%rbp)
  202cf2:	0f 85 d7 00 00 00    	jne    202dcf <putch+0xee>
  202cf8:	48 b8 40 60 22 00 00 	mov    $0x226040,%rax
  202cff:	00 00 00 
  202d02:	48 8b 00             	mov    (%rax),%rax
  202d05:	0f b7 00             	movzwl (%rax),%eax
  202d08:	66 85 c0             	test   %ax,%ax
  202d0b:	75 3a                	jne    202d47 <putch+0x66>
  202d0d:	48 b8 40 60 22 00 00 	mov    $0x226040,%rax
  202d14:	00 00 00 
  202d17:	48 8b 00             	mov    (%rax),%rax
  202d1a:	48 ba 1c 60 22 00 00 	mov    $0x22601c,%rdx
  202d21:	00 00 00 
  202d24:	0f b7 12             	movzwl (%rdx),%edx
  202d27:	83 ea 01             	sub    $0x1,%edx
  202d2a:	66 89 10             	mov    %dx,(%rax)
  202d2d:	48 b8 40 60 22 00 00 	mov    $0x226040,%rax
  202d34:	00 00 00 
  202d37:	48 8b 00             	mov    (%rax),%rax
  202d3a:	0f b7 50 02          	movzwl 0x2(%rax),%edx
  202d3e:	83 ea 01             	sub    $0x1,%edx
  202d41:	66 89 50 02          	mov    %dx,0x2(%rax)
  202d45:	eb 16                	jmp    202d5d <putch+0x7c>
  202d47:	48 b8 40 60 22 00 00 	mov    $0x226040,%rax
  202d4e:	00 00 00 
  202d51:	48 8b 00             	mov    (%rax),%rax
  202d54:	0f b7 10             	movzwl (%rax),%edx
  202d57:	83 ea 01             	sub    $0x1,%edx
  202d5a:	66 89 10             	mov    %dx,(%rax)
  202d5d:	48 b8 40 60 22 00 00 	mov    $0x226040,%rax
  202d64:	00 00 00 
  202d67:	48 8b 00             	mov    (%rax),%rax
  202d6a:	48 8b 50 08          	mov    0x8(%rax),%rdx
  202d6e:	48 b8 40 60 22 00 00 	mov    $0x226040,%rax
  202d75:	00 00 00 
  202d78:	48 8b 00             	mov    (%rax),%rax
  202d7b:	0f b7 40 02          	movzwl 0x2(%rax),%eax
  202d7f:	0f b7 c8             	movzwl %ax,%ecx
  202d82:	48 b8 1c 60 22 00 00 	mov    $0x22601c,%rax
  202d89:	00 00 00 
  202d8c:	0f b7 00             	movzwl (%rax),%eax
  202d8f:	0f b7 c0             	movzwl %ax,%eax
  202d92:	0f af c8             	imul   %eax,%ecx
  202d95:	48 b8 40 60 22 00 00 	mov    $0x226040,%rax
  202d9c:	00 00 00 
  202d9f:	48 8b 00             	mov    (%rax),%rax
  202da2:	0f b7 00             	movzwl (%rax),%eax
  202da5:	0f b7 c0             	movzwl %ax,%eax
  202da8:	8d 04 01             	lea    (%rcx,%rax,1),%eax
  202dab:	48 98                	cltq   
  202dad:	48 01 c0             	add    %rax,%rax
  202db0:	48 01 c2             	add    %rax,%rdx
  202db3:	48 b8 40 60 22 00 00 	mov    $0x226040,%rax
  202dba:	00 00 00 
  202dbd:	48 8b 00             	mov    (%rax),%rax
  202dc0:	0f b7 40 04          	movzwl 0x4(%rax),%eax
  202dc4:	83 c8 20             	or     $0x20,%eax
  202dc7:	66 89 02             	mov    %ax,(%rdx)
  202dca:	e9 0c 01 00 00       	jmpq   202edb <putch+0x1fa>
  202dcf:	80 7d fc 09          	cmpb   $0x9,-0x4(%rbp)
  202dd3:	75 2b                	jne    202e00 <putch+0x11f>
  202dd5:	48 b8 40 60 22 00 00 	mov    $0x226040,%rax
  202ddc:	00 00 00 
  202ddf:	48 8b 00             	mov    (%rax),%rax
  202de2:	48 ba 40 60 22 00 00 	mov    $0x226040,%rdx
  202de9:	00 00 00 
  202dec:	48 8b 12             	mov    (%rdx),%rdx
  202def:	0f b7 12             	movzwl (%rdx),%edx
  202df2:	83 c2 08             	add    $0x8,%edx
  202df5:	83 e2 f8             	and    $0xfffffffffffffff8,%edx
  202df8:	66 89 10             	mov    %dx,(%rax)
  202dfb:	e9 db 00 00 00       	jmpq   202edb <putch+0x1fa>
  202e00:	80 7d fc 0d          	cmpb   $0xd,-0x4(%rbp)
  202e04:	75 17                	jne    202e1d <putch+0x13c>
  202e06:	48 b8 40 60 22 00 00 	mov    $0x226040,%rax
  202e0d:	00 00 00 
  202e10:	48 8b 00             	mov    (%rax),%rax
  202e13:	66 c7 00 00 00       	movw   $0x0,(%rax)
  202e18:	e9 be 00 00 00       	jmpq   202edb <putch+0x1fa>
  202e1d:	80 7d fc 0a          	cmpb   $0xa,-0x4(%rbp)
  202e21:	75 2f                	jne    202e52 <putch+0x171>
  202e23:	48 b8 40 60 22 00 00 	mov    $0x226040,%rax
  202e2a:	00 00 00 
  202e2d:	48 8b 00             	mov    (%rax),%rax
  202e30:	66 c7 00 00 00       	movw   $0x0,(%rax)
  202e35:	48 b8 40 60 22 00 00 	mov    $0x226040,%rax
  202e3c:	00 00 00 
  202e3f:	48 8b 00             	mov    (%rax),%rax
  202e42:	0f b7 50 02          	movzwl 0x2(%rax),%edx
  202e46:	83 c2 01             	add    $0x1,%edx
  202e49:	66 89 50 02          	mov    %dx,0x2(%rax)
  202e4d:	e9 89 00 00 00       	jmpq   202edb <putch+0x1fa>
  202e52:	48 b8 40 60 22 00 00 	mov    $0x226040,%rax
  202e59:	00 00 00 
  202e5c:	48 8b 00             	mov    (%rax),%rax
  202e5f:	48 8b 50 08          	mov    0x8(%rax),%rdx
  202e63:	48 b8 40 60 22 00 00 	mov    $0x226040,%rax
  202e6a:	00 00 00 
  202e6d:	48 8b 00             	mov    (%rax),%rax
  202e70:	0f b7 40 02          	movzwl 0x2(%rax),%eax
  202e74:	0f b7 c8             	movzwl %ax,%ecx
  202e77:	48 b8 1c 60 22 00 00 	mov    $0x22601c,%rax
  202e7e:	00 00 00 
  202e81:	0f b7 00             	movzwl (%rax),%eax
  202e84:	0f b7 c0             	movzwl %ax,%eax
  202e87:	0f af c8             	imul   %eax,%ecx
  202e8a:	48 b8 40 60 22 00 00 	mov    $0x226040,%rax
  202e91:	00 00 00 
  202e94:	48 8b 00             	mov    (%rax),%rax
  202e97:	0f b7 00             	movzwl (%rax),%eax
  202e9a:	0f b7 c0             	movzwl %ax,%eax
  202e9d:	8d 04 01             	lea    (%rcx,%rax,1),%eax
  202ea0:	48 98                	cltq   
  202ea2:	48 01 c0             	add    %rax,%rax
  202ea5:	48 01 c2             	add    %rax,%rdx
  202ea8:	0f b6 45 fc          	movzbl -0x4(%rbp),%eax
  202eac:	0f b6 c8             	movzbl %al,%ecx
  202eaf:	48 b8 40 60 22 00 00 	mov    $0x226040,%rax
  202eb6:	00 00 00 
  202eb9:	48 8b 00             	mov    (%rax),%rax
  202ebc:	0f b7 40 04          	movzwl 0x4(%rax),%eax
  202ec0:	09 c8                	or     %ecx,%eax
  202ec2:	66 89 02             	mov    %ax,(%rdx)
  202ec5:	48 b8 40 60 22 00 00 	mov    $0x226040,%rax
  202ecc:	00 00 00 
  202ecf:	48 8b 00             	mov    (%rax),%rax
  202ed2:	0f b7 10             	movzwl (%rax),%edx
  202ed5:	83 c2 01             	add    $0x1,%edx
  202ed8:	66 89 10             	mov    %dx,(%rax)
  202edb:	48 b8 40 60 22 00 00 	mov    $0x226040,%rax
  202ee2:	00 00 00 
  202ee5:	48 8b 00             	mov    (%rax),%rax
  202ee8:	0f b7 10             	movzwl (%rax),%edx
  202eeb:	48 b8 1c 60 22 00 00 	mov    $0x22601c,%rax
  202ef2:	00 00 00 
  202ef5:	0f b7 00             	movzwl (%rax),%eax
  202ef8:	66 39 c2             	cmp    %ax,%dx
  202efb:	72 2a                	jb     202f27 <putch+0x246>
  202efd:	48 b8 40 60 22 00 00 	mov    $0x226040,%rax
  202f04:	00 00 00 
  202f07:	48 8b 00             	mov    (%rax),%rax
  202f0a:	66 c7 00 00 00       	movw   $0x0,(%rax)
  202f0f:	48 b8 40 60 22 00 00 	mov    $0x226040,%rax
  202f16:	00 00 00 
  202f19:	48 8b 00             	mov    (%rax),%rax
  202f1c:	0f b7 50 02          	movzwl 0x2(%rax),%edx
  202f20:	83 c2 01             	add    $0x1,%edx
  202f23:	66 89 50 02          	mov    %dx,0x2(%rax)
  202f27:	48 b8 40 60 22 00 00 	mov    $0x226040,%rax
  202f2e:	00 00 00 
  202f31:	48 8b 00             	mov    (%rax),%rax
  202f34:	0f b7 50 02          	movzwl 0x2(%rax),%edx
  202f38:	48 b8 1a 60 22 00 00 	mov    $0x22601a,%rax
  202f3f:	00 00 00 
  202f42:	0f b7 00             	movzwl (%rax),%eax
  202f45:	66 39 c2             	cmp    %ax,%dx
  202f48:	72 1c                	jb     202f66 <putch+0x285>
  202f4a:	48 b8 40 60 22 00 00 	mov    $0x226040,%rax
  202f51:	00 00 00 
  202f54:	48 8b 00             	mov    (%rax),%rax
  202f57:	48 89 c7             	mov    %rax,%rdi
  202f5a:	48 b8 83 27 20 00 00 	mov    $0x202783,%rax
  202f61:	00 00 00 
  202f64:	ff d0                	callq  *%rax
  202f66:	48 b8 18 60 22 00 00 	mov    $0x226018,%rax
  202f6d:	00 00 00 
  202f70:	0f b6 00             	movzbl (%rax),%eax
  202f73:	0f b6 c0             	movzbl %al,%eax
  202f76:	48 89 c2             	mov    %rax,%rdx
  202f79:	48 c1 e2 04          	shl    $0x4,%rdx
  202f7d:	48 b8 60 68 22 00 00 	mov    $0x226860,%rax
  202f84:	00 00 00 
  202f87:	48 01 c2             	add    %rax,%rdx
  202f8a:	48 b8 40 60 22 00 00 	mov    $0x226040,%rax
  202f91:	00 00 00 
  202f94:	48 8b 00             	mov    (%rax),%rax
  202f97:	48 39 c2             	cmp    %rax,%rdx
  202f9a:	75 1c                	jne    202fb8 <putch+0x2d7>
  202f9c:	48 b8 40 60 22 00 00 	mov    $0x226040,%rax
  202fa3:	00 00 00 
  202fa6:	48 8b 00             	mov    (%rax),%rax
  202fa9:	48 89 c7             	mov    %rax,%rdi
  202fac:	48 b8 7a 28 20 00 00 	mov    $0x20287a,%rax
  202fb3:	00 00 00 
  202fb6:	ff d0                	callq  *%rax
  202fb8:	c9                   	leaveq 
  202fb9:	c3                   	retq   

0000000000202fba <puts>:
  202fba:	55                   	push   %rbp
  202fbb:	48 89 e5             	mov    %rsp,%rbp
  202fbe:	48 83 ec 20          	sub    $0x20,%rsp
  202fc2:	48 89 7d e8          	mov    %rdi,-0x18(%rbp)
  202fc6:	48 8b 45 e8          	mov    -0x18(%rbp),%rax
  202fca:	48 89 45 f8          	mov    %rax,-0x8(%rbp)
  202fce:	eb 1d                	jmp    202fed <puts+0x33>
  202fd0:	48 8b 45 f8          	mov    -0x8(%rbp),%rax
  202fd4:	0f b6 00             	movzbl (%rax),%eax
  202fd7:	0f be c0             	movsbl %al,%eax
  202fda:	89 c7                	mov    %eax,%edi
  202fdc:	48 b8 e1 2c 20 00 00 	mov    $0x202ce1,%rax
  202fe3:	00 00 00 
  202fe6:	ff d0                	callq  *%rax
  202fe8:	48 83 45 f8 01       	addq   $0x1,-0x8(%rbp)
  202fed:	48 8b 45 f8          	mov    -0x8(%rbp),%rax
  202ff1:	0f b6 00             	movzbl (%rax),%eax
  202ff4:	84 c0                	test   %al,%al
  202ff6:	75 d8                	jne    202fd0 <puts+0x16>
  202ff8:	c9                   	leaveq 
  202ff9:	c3                   	retq   

0000000000202ffa <nputs>:
  202ffa:	55                   	push   %rbp
  202ffb:	48 89 e5             	mov    %rsp,%rbp
  202ffe:	48 83 ec 20          	sub    $0x20,%rsp
  203002:	48 89 7d e8          	mov    %rdi,-0x18(%rbp)
  203006:	89 75 e4             	mov    %esi,-0x1c(%rbp)
  203009:	8b 45 e4             	mov    -0x1c(%rbp),%eax
  20300c:	89 45 fc             	mov    %eax,-0x4(%rbp)
  20300f:	48 8b 45 e8          	mov    -0x18(%rbp),%rax
  203013:	48 89 45 f0          	mov    %rax,-0x10(%rbp)
  203017:	eb 21                	jmp    20303a <nputs+0x40>
  203019:	48 8b 45 f0          	mov    -0x10(%rbp),%rax
  20301d:	0f b6 00             	movzbl (%rax),%eax
  203020:	0f be c0             	movsbl %al,%eax
  203023:	89 c7                	mov    %eax,%edi
  203025:	48 b8 e1 2c 20 00 00 	mov    $0x202ce1,%rax
  20302c:	00 00 00 
  20302f:	ff d0                	callq  *%rax
  203031:	48 83 45 f0 01       	addq   $0x1,-0x10(%rbp)
  203036:	83 6d fc 01          	subl   $0x1,-0x4(%rbp)
  20303a:	83 7d fc 00          	cmpl   $0x0,-0x4(%rbp)
  20303e:	75 d9                	jne    203019 <nputs+0x1f>
  203040:	c9                   	leaveq 
  203041:	c3                   	retq   

0000000000203042 <set_color>:
  203042:	55                   	push   %rbp
  203043:	48 89 e5             	mov    %rsp,%rbp
  203046:	48 83 ec 08          	sub    $0x8,%rsp
  20304a:	89 fa                	mov    %edi,%edx
  20304c:	89 f0                	mov    %esi,%eax
  20304e:	88 55 fc             	mov    %dl,-0x4(%rbp)
  203051:	88 45 f8             	mov    %al,-0x8(%rbp)
  203054:	48 b8 40 60 22 00 00 	mov    $0x226040,%rax
  20305b:	00 00 00 
  20305e:	48 8b 00             	mov    (%rax),%rax
  203061:	0f b6 55 fc          	movzbl -0x4(%rbp),%edx
  203065:	89 d1                	mov    %edx,%ecx
  203067:	c1 e1 08             	shl    $0x8,%ecx
  20306a:	0f b6 55 f8          	movzbl -0x8(%rbp),%edx
  20306e:	c1 e2 0c             	shl    $0xc,%edx
  203071:	8d 14 11             	lea    (%rcx,%rdx,1),%edx
  203074:	66 89 50 04          	mov    %dx,0x4(%rax)
  203078:	c9                   	leaveq 
  203079:	c3                   	retq   

000000000020307a <get_con>:
  20307a:	55                   	push   %rbp
  20307b:	48 89 e5             	mov    %rsp,%rbp
  20307e:	48 b8 18 60 22 00 00 	mov    $0x226018,%rax
  203085:	00 00 00 
  203088:	0f b6 00             	movzbl (%rax),%eax
  20308b:	0f b6 c0             	movzbl %al,%eax
  20308e:	c9                   	leaveq 
  20308f:	c3                   	retq   

0000000000203090 <set_con>:
  203090:	55                   	push   %rbp
  203091:	48 89 e5             	mov    %rsp,%rbp
  203094:	48 83 ec 20          	sub    $0x20,%rsp
  203098:	89 f8                	mov    %edi,%eax
  20309a:	66 89 45 ec          	mov    %ax,-0x14(%rbp)
  20309e:	48 b8 19 60 22 00 00 	mov    $0x226019,%rax
  2030a5:	00 00 00 
  2030a8:	0f b6 00             	movzbl (%rax),%eax
  2030ab:	0f b6 c0             	movzbl %al,%eax
  2030ae:	89 45 fc             	mov    %eax,-0x4(%rbp)
  2030b1:	66 83 7d ec 07       	cmpw   $0x7,-0x14(%rbp)
  2030b6:	76 07                	jbe    2030bf <set_con+0x2f>
  2030b8:	b8 ff ff ff ff       	mov    $0xffffffff,%eax
  2030bd:	eb 56                	jmp    203115 <set_con+0x85>
  2030bf:	0f b7 45 ec          	movzwl -0x14(%rbp),%eax
  2030c3:	48 89 c2             	mov    %rax,%rdx
  2030c6:	48 c1 e2 04          	shl    $0x4,%rdx
  2030ca:	48 b8 60 68 22 00 00 	mov    $0x226860,%rax
  2030d1:	00 00 00 
  2030d4:	48 01 c2             	add    %rax,%rdx
  2030d7:	48 b8 40 60 22 00 00 	mov    $0x226040,%rax
  2030de:	00 00 00 
  2030e1:	48 89 10             	mov    %rdx,(%rax)
  2030e4:	0f b7 45 ec          	movzwl -0x14(%rbp),%eax
  2030e8:	89 c2                	mov    %eax,%edx
  2030ea:	48 b8 19 60 22 00 00 	mov    $0x226019,%rax
  2030f1:	00 00 00 
  2030f4:	88 10                	mov    %dl,(%rax)
  2030f6:	48 b8 40 60 22 00 00 	mov    $0x226040,%rax
  2030fd:	00 00 00 
  203100:	48 8b 00             	mov    (%rax),%rax
  203103:	48 89 c7             	mov    %rax,%rdi
  203106:	48 b8 7a 28 20 00 00 	mov    $0x20287a,%rax
  20310d:	00 00 00 
  203110:	ff d0                	callq  *%rax
  203112:	8b 45 fc             	mov    -0x4(%rbp),%eax
  203115:	c9                   	leaveq 
  203116:	c3                   	retq   

0000000000203117 <getxy>:
  203117:	55                   	push   %rbp
  203118:	48 89 e5             	mov    %rsp,%rbp
  20311b:	48 b8 40 60 22 00 00 	mov    $0x226040,%rax
  203122:	00 00 00 
  203125:	48 8b 00             	mov    (%rax),%rax
  203128:	0f b7 40 02          	movzwl 0x2(%rax),%eax
  20312c:	0f b7 d0             	movzwl %ax,%edx
  20312f:	48 b8 1c 60 22 00 00 	mov    $0x22601c,%rax
  203136:	00 00 00 
  203139:	0f b7 00             	movzwl (%rax),%eax
  20313c:	0f b7 c0             	movzwl %ax,%eax
  20313f:	0f af d0             	imul   %eax,%edx
  203142:	48 b8 40 60 22 00 00 	mov    $0x226040,%rax
  203149:	00 00 00 
  20314c:	48 8b 00             	mov    (%rax),%rax
  20314f:	0f b7 00             	movzwl (%rax),%eax
  203152:	0f b7 c0             	movzwl %ax,%eax
  203155:	8d 04 02             	lea    (%rdx,%rax,1),%eax
  203158:	c9                   	leaveq 
  203159:	c3                   	retq   
  20315a:	90                   	nop
  20315b:	90                   	nop

000000000020315c <map_ptr_pte>:
  20315c:	55                   	push   %rbp
  20315d:	48 89 e5             	mov    %rsp,%rbp
  203160:	48 83 ec 38          	sub    $0x38,%rsp
  203164:	48 89 7d c8          	mov    %rdi,-0x38(%rbp)
  203168:	48 8b 45 c8          	mov    -0x38(%rbp),%rax
  20316c:	48 c1 e8 27          	shr    $0x27,%rax
  203170:	25 ff 01 00 00       	and    $0x1ff,%eax
  203175:	89 45 fc             	mov    %eax,-0x4(%rbp)
  203178:	48 8b 45 c8          	mov    -0x38(%rbp),%rax
  20317c:	48 c1 e8 1e          	shr    $0x1e,%rax
  203180:	25 ff 01 00 00       	and    $0x1ff,%eax
  203185:	89 45 f8             	mov    %eax,-0x8(%rbp)
  203188:	48 8b 45 c8          	mov    -0x38(%rbp),%rax
  20318c:	48 c1 e8 15          	shr    $0x15,%rax
  203190:	25 ff 01 00 00       	and    $0x1ff,%eax
  203195:	89 45 f4             	mov    %eax,-0xc(%rbp)
  203198:	48 8b 45 c8          	mov    -0x38(%rbp),%rax
  20319c:	48 c1 e8 0c          	shr    $0xc,%rax
  2031a0:	25 ff 01 00 00       	and    $0x1ff,%eax
  2031a5:	89 45 f0             	mov    %eax,-0x10(%rbp)
  2031a8:	48 c7 45 e8 00 f0 ff 	movq   $0xfffffffffffff000,-0x18(%rbp)
  2031af:	ff 
  2031b0:	8b 45 fc             	mov    -0x4(%rbp),%eax
  2031b3:	48 98                	cltq   
  2031b5:	48 c1 e0 0c          	shl    $0xc,%rax
  2031b9:	48 2d 00 00 20 00    	sub    $0x200000,%rax
  2031bf:	48 89 45 e0          	mov    %rax,-0x20(%rbp)
  2031c3:	8b 45 fc             	mov    -0x4(%rbp),%eax
  2031c6:	48 98                	cltq   
  2031c8:	48 89 c2             	mov    %rax,%rdx
  2031cb:	48 c1 e2 15          	shl    $0x15,%rdx
  2031cf:	8b 45 f8             	mov    -0x8(%rbp),%eax
  2031d2:	48 98                	cltq   
  2031d4:	48 c1 e0 0c          	shl    $0xc,%rax
  2031d8:	48 8d 04 02          	lea    (%rdx,%rax,1),%rax
  2031dc:	48 2d 00 00 00 40    	sub    $0x40000000,%rax
  2031e2:	48 89 45 d8          	mov    %rax,-0x28(%rbp)
  2031e6:	8b 45 fc             	mov    -0x4(%rbp),%eax
  2031e9:	48 98                	cltq   
  2031eb:	48 89 c2             	mov    %rax,%rdx
  2031ee:	48 c1 e2 1e          	shl    $0x1e,%rdx
  2031f2:	8b 45 f8             	mov    -0x8(%rbp),%eax
  2031f5:	48 98                	cltq   
  2031f7:	48 c1 e0 15          	shl    $0x15,%rax
  2031fb:	48 01 c2             	add    %rax,%rdx
  2031fe:	8b 45 f4             	mov    -0xc(%rbp),%eax
  203201:	48 98                	cltq   
  203203:	48 c1 e0 0c          	shl    $0xc,%rax
  203207:	48 01 c2             	add    %rax,%rdx
  20320a:	48 b8 00 00 00 00 80 	mov    $0xffffff8000000000,%rax
  203211:	ff ff ff 
  203214:	48 8d 04 02          	lea    (%rdx,%rax,1),%rax
  203218:	48 89 45 d0          	mov    %rax,-0x30(%rbp)
  20321c:	c9                   	leaveq 
  20321d:	c3                   	retq   

000000000020321e <mmpage_init>:
  20321e:	55                   	push   %rbp
  20321f:	48 89 e5             	mov    %rsp,%rbp
  203222:	48 83 ec 30          	sub    $0x30,%rsp
  203226:	b8 00 00 00 00       	mov    $0x0,%eax
  20322b:	48 ba 00 33 20 00 00 	mov    $0x203300,%rdx
  203232:	00 00 00 
  203235:	ff d2                	callq  *%rdx
  203237:	48 b8 ff 1a 20 00 00 	mov    $0x201aff,%rax
  20323e:	00 00 00 
  203241:	ff d0                	callq  *%rax
  203243:	48 89 45 f0          	mov    %rax,-0x10(%rbp)
  203247:	48 8b 45 f0          	mov    -0x10(%rbp),%rax
  20324b:	48 05 f8 0f 00 00    	add    $0xff8,%rax
  203251:	48 8b 55 f0          	mov    -0x10(%rbp),%rdx
  203255:	48 83 ca 01          	or     $0x1,%rdx
  203259:	48 89 10             	mov    %rdx,(%rax)
  20325c:	48 8b 45 f0          	mov    -0x10(%rbp),%rax
  203260:	48 89 c7             	mov    %rax,%rdi
  203263:	48 b8 03 1b 20 00 00 	mov    $0x201b03,%rax
  20326a:	00 00 00 
  20326d:	ff d0                	callq  *%rax
  20326f:	48 c7 45 d0 00 00 80 	movq   $0x800000,-0x30(%rbp)
  203276:	00 
  203277:	c7 45 d8 00 20 80 e5 	movl   $0xe5802000,-0x28(%rbp)
  20327e:	c7 45 dc 7f 80 ff ff 	movl   $0xffff807f,-0x24(%rbp)
  203285:	c7 45 fc 00 00 00 00 	movl   $0x0,-0x4(%rbp)
  20328c:	eb 65                	jmp    2032f3 <mmpage_init+0xd5>
  20328e:	8b 45 fc             	mov    -0x4(%rbp),%eax
  203291:	48 98                	cltq   
  203293:	48 8b 44 c5 d0       	mov    -0x30(%rbp,%rax,8),%rax
  203298:	48 89 45 e8          	mov    %rax,-0x18(%rbp)
  20329c:	48 be 00 00 00 00 ff 	mov    $0xffffffff00000000,%rsi
  2032a3:	ff ff ff 
  2032a6:	48 bf b1 8e 20 00 00 	mov    $0x208eb1,%rdi
  2032ad:	00 00 00 
  2032b0:	b8 00 00 00 00       	mov    $0x0,%eax
  2032b5:	48 ba c8 87 20 00 00 	mov    $0x2087c8,%rdx
  2032bc:	00 00 00 
  2032bf:	ff d2                	callq  *%rdx
  2032c1:	48 8b 45 e8          	mov    -0x18(%rbp),%rax
  2032c5:	48 89 c7             	mov    %rax,%rdi
  2032c8:	48 b8 5c 31 20 00 00 	mov    $0x20315c,%rax
  2032cf:	00 00 00 
  2032d2:	ff d0                	callq  *%rax
  2032d4:	48 bf c1 8e 20 00 00 	mov    $0x208ec1,%rdi
  2032db:	00 00 00 
  2032de:	b8 00 00 00 00       	mov    $0x0,%eax
  2032e3:	48 ba c8 87 20 00 00 	mov    $0x2087c8,%rdx
  2032ea:	00 00 00 
  2032ed:	ff d2                	callq  *%rdx
  2032ef:	83 45 fc 01          	addl   $0x1,-0x4(%rbp)
  2032f3:	83 7d fc 01          	cmpl   $0x1,-0x4(%rbp)
  2032f7:	7e 95                	jle    20328e <mmpage_init+0x70>
  2032f9:	b8 00 00 00 00       	mov    $0x0,%eax
  2032fe:	c9                   	leaveq 
  2032ff:	c3                   	retq   

0000000000203300 <frame_init>:
  203300:	55                   	push   %rbp
  203301:	48 89 e5             	mov    %rsp,%rbp
  203304:	48 83 ec 20          	sub    $0x20,%rsp
  203308:	b8 00 00 00 00       	mov    $0x0,%eax
  20330d:	48 ba 90 25 20 00 00 	mov    $0x202590,%rdx
  203314:	00 00 00 
  203317:	ff d2                	callq  *%rdx
  203319:	48 b8 00 d0 20 00 00 	mov    $0x20d000,%rax
  203320:	00 00 00 
  203323:	48 8b 00             	mov    (%rax),%rax
  203326:	48 89 c6             	mov    %rax,%rsi
  203329:	48 bf c8 8e 20 00 00 	mov    $0x208ec8,%rdi
  203330:	00 00 00 
  203333:	b8 00 00 00 00       	mov    $0x0,%eax
  203338:	48 ba c8 87 20 00 00 	mov    $0x2087c8,%rdx
  20333f:	00 00 00 
  203342:	ff d2                	callq  *%rdx
  203344:	48 b8 00 d0 20 00 00 	mov    $0x20d000,%rax
  20334b:	00 00 00 
  20334e:	48 8b 00             	mov    (%rax),%rax
  203351:	8b 00                	mov    (%rax),%eax
  203353:	83 e0 01             	and    $0x1,%eax
  203356:	85 c0                	test   %eax,%eax
  203358:	75 1b                	jne    203375 <frame_init+0x75>
  20335a:	48 bf f8 8e 20 00 00 	mov    $0x208ef8,%rdi
  203361:	00 00 00 
  203364:	b8 00 00 00 00       	mov    $0x0,%eax
  203369:	48 ba e0 86 20 00 00 	mov    $0x2086e0,%rdx
  203370:	00 00 00 
  203373:	ff d2                	callq  *%rdx
  203375:	48 b8 00 d0 20 00 00 	mov    $0x20d000,%rax
  20337c:	00 00 00 
  20337f:	48 8b 00             	mov    (%rax),%rax
  203382:	8b 50 08             	mov    0x8(%rax),%edx
  203385:	48 b8 00 d0 20 00 00 	mov    $0x20d000,%rax
  20338c:	00 00 00 
  20338f:	48 8b 00             	mov    (%rax),%rax
  203392:	8b 40 04             	mov    0x4(%rax),%eax
  203395:	89 c6                	mov    %eax,%esi
  203397:	48 bf 38 8f 20 00 00 	mov    $0x208f38,%rdi
  20339e:	00 00 00 
  2033a1:	b8 00 00 00 00       	mov    $0x0,%eax
  2033a6:	48 b9 c8 87 20 00 00 	mov    $0x2087c8,%rcx
  2033ad:	00 00 00 
  2033b0:	ff d1                	callq  *%rcx
  2033b2:	48 b8 00 60 22 00 00 	mov    $0x226000,%rax
  2033b9:	00 00 00 
  2033bc:	48 c7 00 00 00 00 00 	movq   $0x0,(%rax)
  2033c3:	48 b8 00 d0 20 00 00 	mov    $0x20d000,%rax
  2033ca:	00 00 00 
  2033cd:	48 8b 00             	mov    (%rax),%rax
  2033d0:	8b 00                	mov    (%rax),%eax
  2033d2:	83 e0 08             	and    $0x8,%eax
  2033d5:	85 c0                	test   %eax,%eax
  2033d7:	74 7b                	je     203454 <frame_init+0x154>
  2033d9:	c7 45 fc 00 00 00 00 	movl   $0x0,-0x4(%rbp)
  2033e0:	eb 5b                	jmp    20343d <frame_init+0x13d>
  2033e2:	8b 45 fc             	mov    -0x4(%rbp),%eax
  2033e5:	48 98                	cltq   
  2033e7:	48 89 c2             	mov    %rax,%rdx
  2033ea:	48 c1 e2 04          	shl    $0x4,%rdx
  2033ee:	48 b8 00 d0 20 00 00 	mov    $0x20d000,%rax
  2033f5:	00 00 00 
  2033f8:	48 8b 00             	mov    (%rax),%rax
  2033fb:	8b 40 18             	mov    0x18(%rax),%eax
  2033fe:	89 c0                	mov    %eax,%eax
  203400:	48 8d 04 02          	lea    (%rdx,%rax,1),%rax
  203404:	48 89 45 f0          	mov    %rax,-0x10(%rbp)
  203408:	48 8b 45 f0          	mov    -0x10(%rbp),%rax
  20340c:	8b 40 04             	mov    0x4(%rax),%eax
  20340f:	89 c2                	mov    %eax,%edx
  203411:	48 b8 00 60 22 00 00 	mov    $0x226000,%rax
  203418:	00 00 00 
  20341b:	48 8b 00             	mov    (%rax),%rax
  20341e:	48 39 c2             	cmp    %rax,%rdx
  203421:	76 16                	jbe    203439 <frame_init+0x139>
  203423:	48 8b 45 f0          	mov    -0x10(%rbp),%rax
  203427:	8b 40 04             	mov    0x4(%rax),%eax
  20342a:	89 c2                	mov    %eax,%edx
  20342c:	48 b8 00 60 22 00 00 	mov    $0x226000,%rax
  203433:	00 00 00 
  203436:	48 89 10             	mov    %rdx,(%rax)
  203439:	83 45 fc 01          	addl   $0x1,-0x4(%rbp)
  20343d:	8b 55 fc             	mov    -0x4(%rbp),%edx
  203440:	48 b8 00 d0 20 00 00 	mov    $0x20d000,%rax
  203447:	00 00 00 
  20344a:	48 8b 00             	mov    (%rax),%rax
  20344d:	8b 40 14             	mov    0x14(%rax),%eax
  203450:	39 c2                	cmp    %eax,%edx
  203452:	72 8e                	jb     2033e2 <frame_init+0xe2>
  203454:	48 b8 00 60 22 00 00 	mov    $0x226000,%rax
  20345b:	00 00 00 
  20345e:	48 8b 10             	mov    (%rax),%rdx
  203461:	48 b8 00 70 22 00 00 	mov    $0x227000,%rax
  203468:	00 00 00 
  20346b:	48 39 c2             	cmp    %rax,%rdx
  20346e:	73 17                	jae    203487 <frame_init+0x187>
  203470:	48 ba 00 70 22 00 00 	mov    $0x227000,%rdx
  203477:	00 00 00 
  20347a:	48 b8 00 60 22 00 00 	mov    $0x226000,%rax
  203481:	00 00 00 
  203484:	48 89 10             	mov    %rdx,(%rax)
  203487:	48 b8 00 d0 20 00 00 	mov    $0x20d000,%rax
  20348e:	00 00 00 
  203491:	48 8b 00             	mov    (%rax),%rax
  203494:	8b 40 08             	mov    0x8(%rax),%eax
  203497:	05 40 04 00 00       	add    $0x440,%eax
  20349c:	c1 e0 0a             	shl    $0xa,%eax
  20349f:	89 c0                	mov    %eax,%eax
  2034a1:	48 89 45 e8          	mov    %rax,-0x18(%rbp)
  2034a5:	48 8b 45 e8          	mov    -0x18(%rbp),%rax
  2034a9:	48 89 c2             	mov    %rax,%rdx
  2034ac:	48 c1 ea 0c          	shr    $0xc,%rdx
  2034b0:	48 b8 e0 68 22 00 00 	mov    $0x2268e0,%rax
  2034b7:	00 00 00 
  2034ba:	48 89 10             	mov    %rdx,(%rax)
  2034bd:	48 b8 00 60 22 00 00 	mov    $0x226000,%rax
  2034c4:	00 00 00 
  2034c7:	48 8b 00             	mov    (%rax),%rax
  2034ca:	48 89 c2             	mov    %rax,%rdx
  2034cd:	48 b8 48 60 22 00 00 	mov    $0x226048,%rax
  2034d4:	00 00 00 
  2034d7:	48 89 10             	mov    %rdx,(%rax)
  2034da:	48 b8 e0 68 22 00 00 	mov    $0x2268e0,%rax
  2034e1:	00 00 00 
  2034e4:	48 8b 00             	mov    (%rax),%rax
  2034e7:	48 8d 14 85 00 00 00 	lea    0x0(,%rax,4),%rdx
  2034ee:	00 
  2034ef:	48 b8 00 60 22 00 00 	mov    $0x226000,%rax
  2034f6:	00 00 00 
  2034f9:	48 8b 00             	mov    (%rax),%rax
  2034fc:	48 01 c2             	add    %rax,%rdx
  2034ff:	48 b8 00 60 22 00 00 	mov    $0x226000,%rax
  203506:	00 00 00 
  203509:	48 89 10             	mov    %rdx,(%rax)
  20350c:	48 b8 00 60 22 00 00 	mov    $0x226000,%rax
  203513:	00 00 00 
  203516:	48 8b 00             	mov    (%rax),%rax
  203519:	48 8b 55 e8          	mov    -0x18(%rbp),%rdx
  20351d:	48 89 c6             	mov    %rax,%rsi
  203520:	48 bf 68 8f 20 00 00 	mov    $0x208f68,%rdi
  203527:	00 00 00 
  20352a:	b8 00 00 00 00       	mov    $0x0,%eax
  20352f:	48 b9 c8 87 20 00 00 	mov    $0x2087c8,%rcx
  203536:	00 00 00 
  203539:	ff d1                	callq  *%rcx
  20353b:	48 b8 48 60 22 00 00 	mov    $0x226048,%rax
  203542:	00 00 00 
  203545:	48 8b 10             	mov    (%rax),%rdx
  203548:	48 b8 e0 68 22 00 00 	mov    $0x2268e0,%rax
  20354f:	00 00 00 
  203552:	48 8b 00             	mov    (%rax),%rax
  203555:	48 89 c6             	mov    %rax,%rsi
  203558:	48 bf 86 8f 20 00 00 	mov    $0x208f86,%rdi
  20355f:	00 00 00 
  203562:	b8 00 00 00 00       	mov    $0x0,%eax
  203567:	48 b9 c8 87 20 00 00 	mov    $0x2087c8,%rcx
  20356e:	00 00 00 
  203571:	ff d1                	callq  *%rcx
  203573:	48 b8 00 60 22 00 00 	mov    $0x226000,%rax
  20357a:	00 00 00 
  20357d:	48 8b 00             	mov    (%rax),%rax
  203580:	25 ff 0f 00 00       	and    $0xfff,%eax
  203585:	48 85 c0             	test   %rax,%rax
  203588:	74 17                	je     2035a1 <frame_init+0x2a1>
  20358a:	48 b8 00 60 22 00 00 	mov    $0x226000,%rax
  203591:	00 00 00 
  203594:	48 8b 00             	mov    (%rax),%rax
  203597:	48 c1 e8 0c          	shr    $0xc,%rax
  20359b:	48 83 c0 01          	add    $0x1,%rax
  20359f:	eb 11                	jmp    2035b2 <frame_init+0x2b2>
  2035a1:	48 b8 00 60 22 00 00 	mov    $0x226000,%rax
  2035a8:	00 00 00 
  2035ab:	48 8b 00             	mov    (%rax),%rax
  2035ae:	48 c1 e8 0c          	shr    $0xc,%rax
  2035b2:	48 ba e8 68 22 00 00 	mov    $0x2268e8,%rdx
  2035b9:	00 00 00 
  2035bc:	48 89 02             	mov    %rax,(%rdx)
  2035bf:	48 b8 e8 68 22 00 00 	mov    $0x2268e8,%rax
  2035c6:	00 00 00 
  2035c9:	48 8b 00             	mov    (%rax),%rax
  2035cc:	89 45 fc             	mov    %eax,-0x4(%rbp)
  2035cf:	eb 27                	jmp    2035f8 <frame_init+0x2f8>
  2035d1:	48 b8 48 60 22 00 00 	mov    $0x226048,%rax
  2035d8:	00 00 00 
  2035db:	48 8b 00             	mov    (%rax),%rax
  2035de:	8b 55 fc             	mov    -0x4(%rbp),%edx
  2035e1:	48 63 d2             	movslq %edx,%rdx
  2035e4:	48 c1 e2 03          	shl    $0x3,%rdx
  2035e8:	48 8d 14 10          	lea    (%rax,%rdx,1),%rdx
  2035ec:	8b 45 fc             	mov    -0x4(%rbp),%eax
  2035ef:	48 98                	cltq   
  2035f1:	48 89 02             	mov    %rax,(%rdx)
  2035f4:	83 45 fc 01          	addl   $0x1,-0x4(%rbp)
  2035f8:	8b 45 fc             	mov    -0x4(%rbp),%eax
  2035fb:	48 63 d0             	movslq %eax,%rdx
  2035fe:	48 b8 e0 68 22 00 00 	mov    $0x2268e0,%rax
  203605:	00 00 00 
  203608:	48 8b 00             	mov    (%rax),%rax
  20360b:	48 39 c2             	cmp    %rax,%rdx
  20360e:	72 c1                	jb     2035d1 <frame_init+0x2d1>
  203610:	b8 00 00 00 00       	mov    $0x0,%eax
  203615:	c9                   	leaveq 
  203616:	c3                   	retq   

0000000000203617 <frame_get>:
  203617:	55                   	push   %rbp
  203618:	48 89 e5             	mov    %rsp,%rbp
  20361b:	48 b8 e8 68 22 00 00 	mov    $0x2268e8,%rax
  203622:	00 00 00 
  203625:	48 8b 10             	mov    (%rax),%rdx
  203628:	48 b8 e0 68 22 00 00 	mov    $0x2268e0,%rax
  20362f:	00 00 00 
  203632:	48 8b 00             	mov    (%rax),%rax
  203635:	48 39 c2             	cmp    %rax,%rdx
  203638:	72 27                	jb     203661 <frame_get+0x4a>
  20363a:	48 bf a8 8f 20 00 00 	mov    $0x208fa8,%rdi
  203641:	00 00 00 
  203644:	b8 00 00 00 00       	mov    $0x0,%eax
  203649:	48 ba e0 86 20 00 00 	mov    $0x2086e0,%rdx
  203650:	00 00 00 
  203653:	ff d2                	callq  *%rdx
  203655:	48 b8 00 00 00 00 00 	mov    $0xfff0000000000000,%rax
  20365c:	00 f0 ff 
  20365f:	eb 3a                	jmp    20369b <frame_get+0x84>
  203661:	48 b8 48 60 22 00 00 	mov    $0x226048,%rax
  203668:	00 00 00 
  20366b:	48 8b 08             	mov    (%rax),%rcx
  20366e:	48 b8 e8 68 22 00 00 	mov    $0x2268e8,%rax
  203675:	00 00 00 
  203678:	48 8b 10             	mov    (%rax),%rdx
  20367b:	48 8d 04 d5 00 00 00 	lea    0x0(,%rdx,8),%rax
  203682:	00 
  203683:	48 8d 04 01          	lea    (%rcx,%rax,1),%rax
  203687:	48 8b 00             	mov    (%rax),%rax
  20368a:	48 8d 4a 01          	lea    0x1(%rdx),%rcx
  20368e:	48 ba e8 68 22 00 00 	mov    $0x2268e8,%rdx
  203695:	00 00 00 
  203698:	48 89 0a             	mov    %rcx,(%rdx)
  20369b:	c9                   	leaveq 
  20369c:	c3                   	retq   

000000000020369d <frame_free>:
  20369d:	55                   	push   %rbp
  20369e:	48 89 e5             	mov    %rsp,%rbp
  2036a1:	48 83 ec 08          	sub    $0x8,%rsp
  2036a5:	48 89 7d f8          	mov    %rdi,-0x8(%rbp)
  2036a9:	48 83 7d f8 00       	cmpq   $0x0,-0x8(%rbp)
  2036ae:	74 58                	je     203708 <frame_free+0x6b>
  2036b0:	48 b8 ff ff ff ff ff 	mov    $0xffefffffffffffff,%rax
  2036b7:	ff ef ff 
  2036ba:	48 39 45 f8          	cmp    %rax,-0x8(%rbp)
  2036be:	77 4b                	ja     20370b <frame_free+0x6e>
  2036c0:	48 b8 48 60 22 00 00 	mov    $0x226048,%rax
  2036c7:	00 00 00 
  2036ca:	48 8b 10             	mov    (%rax),%rdx
  2036cd:	48 b8 e8 68 22 00 00 	mov    $0x2268e8,%rax
  2036d4:	00 00 00 
  2036d7:	48 8b 00             	mov    (%rax),%rax
  2036da:	48 8d 48 ff          	lea    -0x1(%rax),%rcx
  2036de:	48 b8 e8 68 22 00 00 	mov    $0x2268e8,%rax
  2036e5:	00 00 00 
  2036e8:	48 89 08             	mov    %rcx,(%rax)
  2036eb:	48 b8 e8 68 22 00 00 	mov    $0x2268e8,%rax
  2036f2:	00 00 00 
  2036f5:	48 8b 00             	mov    (%rax),%rax
  2036f8:	48 c1 e0 03          	shl    $0x3,%rax
  2036fc:	48 01 c2             	add    %rax,%rdx
  2036ff:	48 8b 45 f8          	mov    -0x8(%rbp),%rax
  203703:	48 89 02             	mov    %rax,(%rdx)
  203706:	eb 04                	jmp    20370c <frame_free+0x6f>
  203708:	90                   	nop
  203709:	eb 01                	jmp    20370c <frame_free+0x6f>
  20370b:	90                   	nop
  20370c:	c9                   	leaveq 
  20370d:	c3                   	retq   

000000000020370e <frame_check>:
  20370e:	55                   	push   %rbp
  20370f:	48 89 e5             	mov    %rsp,%rbp
  203712:	48 83 ec 08          	sub    $0x8,%rsp
  203716:	48 89 7d f8          	mov    %rdi,-0x8(%rbp)
  20371a:	b8 00 00 00 00       	mov    $0x0,%eax
  20371f:	c9                   	leaveq 
  203720:	c3                   	retq   

0000000000203721 <frame_free_count>:
  203721:	55                   	push   %rbp
  203722:	48 89 e5             	mov    %rsp,%rbp
  203725:	48 b8 e0 68 22 00 00 	mov    $0x2268e0,%rax
  20372c:	00 00 00 
  20372f:	48 8b 00             	mov    (%rax),%rax
  203732:	c9                   	leaveq 
  203733:	c3                   	retq   

0000000000203734 <main>:
  203734:	55                   	push   %rbp
  203735:	48 89 e5             	mov    %rsp,%rbp
  203738:	48 b8 0c 1b 20 00 00 	mov    $0x201b0c,%rax
  20373f:	00 00 00 
  203742:	ff d0                	callq  *%rax
  203744:	48 b8 6b 1c 20 00 00 	mov    $0x201c6b,%rax
  20374b:	00 00 00 
  20374e:	ff d0                	callq  *%rax
  203750:	48 b8 64 1c 20 00 00 	mov    $0x201c64,%rax
  203757:	00 00 00 
  20375a:	ff d0                	callq  *%rax
  20375c:	48 bf c8 8f 20 00 00 	mov    $0x208fc8,%rdi
  203763:	00 00 00 
  203766:	b8 00 00 00 00       	mov    $0x0,%eax
  20376b:	48 ba c8 87 20 00 00 	mov    $0x2087c8,%rdx
  203772:	00 00 00 
  203775:	ff d2                	callq  *%rdx
  203777:	b8 00 00 00 00       	mov    $0x0,%eax
  20377c:	c9                   	leaveq 
  20377d:	c3                   	retq   
	...

0000000000203780 <inp_buff_hook>:
  203780:	55                   	push   %rbp
  203781:	48 89 e5             	mov    %rsp,%rbp
  203784:	48 83 ec 08          	sub    $0x8,%rsp
  203788:	48 89 7d f8          	mov    %rdi,-0x8(%rbp)
  20378c:	48 8b 45 f8          	mov    -0x8(%rbp),%rax
  203790:	48 8b 50 20          	mov    0x20(%rax),%rdx
  203794:	48 8b 45 f8          	mov    -0x8(%rbp),%rax
  203798:	48 8b 40 28          	mov    0x28(%rax),%rax
  20379c:	48 39 c2             	cmp    %rax,%rdx
  20379f:	73 1c                	jae    2037bd <inp_buff_hook+0x3d>
  2037a1:	48 8b 45 f8          	mov    -0x8(%rbp),%rax
  2037a5:	48 8b 50 20          	mov    0x20(%rax),%rdx
  2037a9:	0f b6 02             	movzbl (%rdx),%eax
  2037ac:	0f b6 c0             	movzbl %al,%eax
  2037af:	48 8d 4a 01          	lea    0x1(%rdx),%rcx
  2037b3:	48 8b 55 f8          	mov    -0x8(%rbp),%rdx
  2037b7:	48 89 4a 20          	mov    %rcx,0x20(%rdx)
  2037bb:	eb 05                	jmp    2037c2 <inp_buff_hook+0x42>
  2037bd:	b8 ff ff ff ff       	mov    $0xffffffff,%eax
  2037c2:	c9                   	leaveq 
  2037c3:	c3                   	retq   

00000000002037c4 <ud_set_input_hook>:
  2037c4:	55                   	push   %rbp
  2037c5:	48 89 e5             	mov    %rsp,%rbp
  2037c8:	48 83 ec 08          	sub    $0x8,%rsp
  2037cc:	48 89 f8             	mov    %rdi,%rax
  2037cf:	48 89 75 f8          	mov    %rsi,-0x8(%rbp)
  2037d3:	48 8b 55 f8          	mov    -0x8(%rbp),%rdx
  2037d7:	48 89 10             	mov    %rdx,(%rax)
  2037da:	c6 40 08 00          	movb   $0x0,0x8(%rax)
  2037de:	c6 40 09 00          	movb   $0x0,0x9(%rax)
  2037e2:	c6 40 18 00          	movb   $0x0,0x18(%rax)
  2037e6:	c6 40 30 00          	movb   $0x0,0x30(%rax)
  2037ea:	c9                   	leaveq 
  2037eb:	c3                   	retq   

00000000002037ec <ud_set_input_buffer>:
  2037ec:	55                   	push   %rbp
  2037ed:	48 89 e5             	mov    %rsp,%rbp
  2037f0:	48 83 ec 10          	sub    $0x10,%rsp
  2037f4:	48 89 f8             	mov    %rdi,%rax
  2037f7:	48 89 75 f8          	mov    %rsi,-0x8(%rbp)
  2037fb:	89 55 f4             	mov    %edx,-0xc(%rbp)
  2037fe:	48 ba 80 37 20 00 00 	mov    $0x203780,%rdx
  203805:	00 00 00 
  203808:	48 89 10             	mov    %rdx,(%rax)
  20380b:	48 8b 55 f8          	mov    -0x8(%rbp),%rdx
  20380f:	48 89 50 20          	mov    %rdx,0x20(%rax)
  203813:	8b 55 f4             	mov    -0xc(%rbp),%edx
  203816:	48 03 55 f8          	add    -0x8(%rbp),%rdx
  20381a:	48 89 50 28          	mov    %rdx,0x28(%rax)
  20381e:	c6 40 08 00          	movb   $0x0,0x8(%rax)
  203822:	c6 40 09 00          	movb   $0x0,0x9(%rax)
  203826:	c6 40 18 00          	movb   $0x0,0x18(%rax)
  20382a:	c6 40 30 00          	movb   $0x0,0x30(%rax)
  20382e:	c9                   	leaveq 
  20382f:	c3                   	retq   

0000000000203830 <ud_input_skip>:
  203830:	55                   	push   %rbp
  203831:	48 89 e5             	mov    %rsp,%rbp
  203834:	48 83 ec 10          	sub    $0x10,%rsp
  203838:	48 89 7d f8          	mov    %rdi,-0x8(%rbp)
  20383c:	89 75 f4             	mov    %esi,-0xc(%rbp)
  20383f:	eb 10                	jmp    203851 <ud_input_skip+0x21>
  203841:	48 8b 45 f8          	mov    -0x8(%rbp),%rax
  203845:	48 8b 10             	mov    (%rax),%rdx
  203848:	48 8b 45 f8          	mov    -0x8(%rbp),%rax
  20384c:	48 89 c7             	mov    %rax,%rdi
  20384f:	ff d2                	callq  *%rdx
  203851:	83 7d f4 00          	cmpl   $0x0,-0xc(%rbp)
  203855:	0f 95 c0             	setne  %al
  203858:	83 6d f4 01          	subl   $0x1,-0xc(%rbp)
  20385c:	84 c0                	test   %al,%al
  20385e:	75 e1                	jne    203841 <ud_input_skip+0x11>
  203860:	c9                   	leaveq 
  203861:	c3                   	retq   

0000000000203862 <ud_input_end>:
  203862:	55                   	push   %rbp
  203863:	48 89 e5             	mov    %rsp,%rbp
  203866:	48 83 ec 08          	sub    $0x8,%rsp
  20386a:	48 89 7d f8          	mov    %rdi,-0x8(%rbp)
  20386e:	48 8b 45 f8          	mov    -0x8(%rbp),%rax
  203872:	0f b6 50 08          	movzbl 0x8(%rax),%edx
  203876:	48 8b 45 f8          	mov    -0x8(%rbp),%rax
  20387a:	0f b6 40 09          	movzbl 0x9(%rax),%eax
  20387e:	38 c2                	cmp    %al,%dl
  203880:	75 13                	jne    203895 <ud_input_end+0x33>
  203882:	48 8b 45 f8          	mov    -0x8(%rbp),%rax
  203886:	0f b6 40 30          	movzbl 0x30(%rax),%eax
  20388a:	84 c0                	test   %al,%al
  20388c:	74 07                	je     203895 <ud_input_end+0x33>
  20388e:	b8 01 00 00 00       	mov    $0x1,%eax
  203893:	eb 05                	jmp    20389a <ud_input_end+0x38>
  203895:	b8 00 00 00 00       	mov    $0x0,%eax
  20389a:	c9                   	leaveq 
  20389b:	c3                   	retq   

000000000020389c <inp_next>:
  20389c:	55                   	push   %rbp
  20389d:	48 89 e5             	mov    %rsp,%rbp
  2038a0:	53                   	push   %rbx
  2038a1:	48 83 ec 28          	sub    $0x28,%rsp
  2038a5:	48 89 7d d8          	mov    %rdi,-0x28(%rbp)
  2038a9:	c7 45 ec ff ff ff ff 	movl   $0xffffffff,-0x14(%rbp)
  2038b0:	48 8b 45 d8          	mov    -0x28(%rbp),%rax
  2038b4:	0f b6 50 08          	movzbl 0x8(%rax),%edx
  2038b8:	48 8b 45 d8          	mov    -0x28(%rbp),%rax
  2038bc:	0f b6 40 09          	movzbl 0x9(%rax),%eax
  2038c0:	38 c2                	cmp    %al,%dl
  2038c2:	74 33                	je     2038f7 <inp_next+0x5b>
  2038c4:	48 8b 45 d8          	mov    -0x28(%rbp),%rax
  2038c8:	0f b6 40 08          	movzbl 0x8(%rax),%eax
  2038cc:	8d 50 01             	lea    0x1(%rax),%edx
  2038cf:	48 8b 45 d8          	mov    -0x28(%rbp),%rax
  2038d3:	88 50 08             	mov    %dl,0x8(%rax)
  2038d6:	48 8b 45 d8          	mov    -0x28(%rbp),%rax
  2038da:	0f b6 40 08          	movzbl 0x8(%rax),%eax
  2038de:	0f b6 c0             	movzbl %al,%eax
  2038e1:	48 8b 55 d8          	mov    -0x28(%rbp),%rdx
  2038e5:	48 98                	cltq   
  2038e7:	0f b6 84 02 42 01 00 	movzbl 0x142(%rdx,%rax,1),%eax
  2038ee:	00 
  2038ef:	0f b6 c0             	movzbl %al,%eax
  2038f2:	89 45 ec             	mov    %eax,-0x14(%rbp)
  2038f5:	eb 7d                	jmp    203974 <inp_next+0xd8>
  2038f7:	48 8b 45 d8          	mov    -0x28(%rbp),%rax
  2038fb:	0f b6 40 30          	movzbl 0x30(%rax),%eax
  2038ff:	84 c0                	test   %al,%al
  203901:	75 19                	jne    20391c <inp_next+0x80>
  203903:	48 8b 45 d8          	mov    -0x28(%rbp),%rax
  203907:	48 8b 10             	mov    (%rax),%rdx
  20390a:	48 8b 45 d8          	mov    -0x28(%rbp),%rax
  20390e:	48 89 c7             	mov    %rax,%rdi
  203911:	ff d2                	callq  *%rdx
  203913:	89 45 ec             	mov    %eax,-0x14(%rbp)
  203916:	83 7d ec ff          	cmpl   $0xffffffffffffffff,-0x14(%rbp)
  20391a:	75 1a                	jne    203936 <inp_next+0x9a>
  20391c:	48 8b 45 d8          	mov    -0x28(%rbp),%rax
  203920:	c6 80 30 01 00 00 01 	movb   $0x1,0x130(%rax)
  203927:	48 8b 45 d8          	mov    -0x28(%rbp),%rax
  20392b:	c6 40 30 01          	movb   $0x1,0x30(%rax)
  20392f:	b8 00 00 00 00       	mov    $0x0,%eax
  203934:	eb 69                	jmp    20399f <inp_next+0x103>
  203936:	48 8b 45 d8          	mov    -0x28(%rbp),%rax
  20393a:	0f b6 40 09          	movzbl 0x9(%rax),%eax
  20393e:	8d 50 01             	lea    0x1(%rax),%edx
  203941:	48 8b 45 d8          	mov    -0x28(%rbp),%rax
  203945:	88 50 09             	mov    %dl,0x9(%rax)
  203948:	48 8b 45 d8          	mov    -0x28(%rbp),%rax
  20394c:	0f b6 50 09          	movzbl 0x9(%rax),%edx
  203950:	48 8b 45 d8          	mov    -0x28(%rbp),%rax
  203954:	88 50 08             	mov    %dl,0x8(%rax)
  203957:	48 8b 45 d8          	mov    -0x28(%rbp),%rax
  20395b:	0f b6 40 09          	movzbl 0x9(%rax),%eax
  20395f:	0f b6 c0             	movzbl %al,%eax
  203962:	8b 55 ec             	mov    -0x14(%rbp),%edx
  203965:	89 d1                	mov    %edx,%ecx
  203967:	48 8b 55 d8          	mov    -0x28(%rbp),%rdx
  20396b:	48 98                	cltq   
  20396d:	88 8c 02 42 01 00 00 	mov    %cl,0x142(%rdx,%rax,1)
  203974:	48 8b 45 d8          	mov    -0x28(%rbp),%rax
  203978:	0f b6 40 18          	movzbl 0x18(%rax),%eax
  20397c:	0f b6 d0             	movzbl %al,%edx
  20397f:	8b 4d ec             	mov    -0x14(%rbp),%ecx
  203982:	89 cb                	mov    %ecx,%ebx
  203984:	48 8b 4d d8          	mov    -0x28(%rbp),%rcx
  203988:	48 63 d2             	movslq %edx,%rdx
  20398b:	88 9c 11 42 02 00 00 	mov    %bl,0x242(%rcx,%rdx,1)
  203992:	8d 50 01             	lea    0x1(%rax),%edx
  203995:	48 8b 45 d8          	mov    -0x28(%rbp),%rax
  203999:	88 50 18             	mov    %dl,0x18(%rax)
  20399c:	8b 45 ec             	mov    -0x14(%rbp),%eax
  20399f:	48 83 c4 28          	add    $0x28,%rsp
  2039a3:	5b                   	pop    %rbx
  2039a4:	c9                   	leaveq 
  2039a5:	c3                   	retq   

00000000002039a6 <inp_back>:
  2039a6:	55                   	push   %rbp
  2039a7:	48 89 e5             	mov    %rsp,%rbp
  2039aa:	48 83 ec 08          	sub    $0x8,%rsp
  2039ae:	48 89 7d f8          	mov    %rdi,-0x8(%rbp)
  2039b2:	48 8b 45 f8          	mov    -0x8(%rbp),%rax
  2039b6:	0f b6 40 18          	movzbl 0x18(%rax),%eax
  2039ba:	84 c0                	test   %al,%al
  2039bc:	74 24                	je     2039e2 <inp_back+0x3c>
  2039be:	48 8b 45 f8          	mov    -0x8(%rbp),%rax
  2039c2:	0f b6 40 08          	movzbl 0x8(%rax),%eax
  2039c6:	8d 50 ff             	lea    -0x1(%rax),%edx
  2039c9:	48 8b 45 f8          	mov    -0x8(%rbp),%rax
  2039cd:	88 50 08             	mov    %dl,0x8(%rax)
  2039d0:	48 8b 45 f8          	mov    -0x8(%rbp),%rax
  2039d4:	0f b6 40 18          	movzbl 0x18(%rax),%eax
  2039d8:	8d 50 ff             	lea    -0x1(%rax),%edx
  2039db:	48 8b 45 f8          	mov    -0x8(%rbp),%rax
  2039df:	88 50 18             	mov    %dl,0x18(%rax)
  2039e2:	c9                   	leaveq 
  2039e3:	c3                   	retq   

00000000002039e4 <inp_peek>:
  2039e4:	55                   	push   %rbp
  2039e5:	48 89 e5             	mov    %rsp,%rbp
  2039e8:	48 83 ec 20          	sub    $0x20,%rsp
  2039ec:	48 89 7d e8          	mov    %rdi,-0x18(%rbp)
  2039f0:	48 8b 45 e8          	mov    -0x18(%rbp),%rax
  2039f4:	48 89 c7             	mov    %rax,%rdi
  2039f7:	48 b8 9c 38 20 00 00 	mov    $0x20389c,%rax
  2039fe:	00 00 00 
  203a01:	ff d0                	callq  *%rax
  203a03:	88 45 ff             	mov    %al,-0x1(%rbp)
  203a06:	48 8b 45 e8          	mov    -0x18(%rbp),%rax
  203a0a:	0f b6 80 30 01 00 00 	movzbl 0x130(%rax),%eax
  203a11:	84 c0                	test   %al,%al
  203a13:	75 13                	jne    203a28 <inp_peek+0x44>
  203a15:	48 8b 45 e8          	mov    -0x18(%rbp),%rax
  203a19:	48 89 c7             	mov    %rax,%rdi
  203a1c:	48 b8 a6 39 20 00 00 	mov    $0x2039a6,%rax
  203a23:	00 00 00 
  203a26:	ff d0                	callq  *%rax
  203a28:	0f b6 45 ff          	movzbl -0x1(%rbp),%eax
  203a2c:	c9                   	leaveq 
  203a2d:	c3                   	retq   

0000000000203a2e <inp_move>:
  203a2e:	55                   	push   %rbp
  203a2f:	48 89 e5             	mov    %rsp,%rbp
  203a32:	48 83 ec 10          	sub    $0x10,%rsp
  203a36:	48 89 7d f8          	mov    %rdi,-0x8(%rbp)
  203a3a:	89 75 f4             	mov    %esi,-0xc(%rbp)
  203a3d:	eb 13                	jmp    203a52 <inp_move+0x24>
  203a3f:	48 8b 45 f8          	mov    -0x8(%rbp),%rax
  203a43:	48 89 c7             	mov    %rax,%rdi
  203a46:	48 b8 9c 38 20 00 00 	mov    $0x20389c,%rax
  203a4d:	00 00 00 
  203a50:	ff d0                	callq  *%rax
  203a52:	83 7d f4 00          	cmpl   $0x0,-0xc(%rbp)
  203a56:	0f 95 c0             	setne  %al
  203a59:	83 6d f4 01          	subl   $0x1,-0xc(%rbp)
  203a5d:	84 c0                	test   %al,%al
  203a5f:	75 de                	jne    203a3f <inp_move+0x11>
  203a61:	c9                   	leaveq 
  203a62:	c3                   	retq   

0000000000203a63 <inp_uint8>:
  203a63:	55                   	push   %rbp
  203a64:	48 89 e5             	mov    %rsp,%rbp
  203a67:	48 83 ec 10          	sub    $0x10,%rsp
  203a6b:	48 89 7d f8          	mov    %rdi,-0x8(%rbp)
  203a6f:	48 8b 45 f8          	mov    -0x8(%rbp),%rax
  203a73:	48 89 c7             	mov    %rax,%rdi
  203a76:	48 b8 9c 38 20 00 00 	mov    $0x20389c,%rax
  203a7d:	00 00 00 
  203a80:	ff d0                	callq  *%rax
  203a82:	c9                   	leaveq 
  203a83:	c3                   	retq   

0000000000203a84 <inp_uint16>:
  203a84:	55                   	push   %rbp
  203a85:	48 89 e5             	mov    %rsp,%rbp
  203a88:	48 83 ec 20          	sub    $0x20,%rsp
  203a8c:	48 89 7d e8          	mov    %rdi,-0x18(%rbp)
  203a90:	48 8b 45 e8          	mov    -0x18(%rbp),%rax
  203a94:	48 89 c7             	mov    %rax,%rdi
  203a97:	48 b8 9c 38 20 00 00 	mov    $0x20389c,%rax
  203a9e:	00 00 00 
  203aa1:	ff d0                	callq  *%rax
  203aa3:	0f b6 c0             	movzbl %al,%eax
  203aa6:	66 89 45 fe          	mov    %ax,-0x2(%rbp)
  203aaa:	48 8b 45 e8          	mov    -0x18(%rbp),%rax
  203aae:	48 89 c7             	mov    %rax,%rdi
  203ab1:	48 b8 9c 38 20 00 00 	mov    $0x20389c,%rax
  203ab8:	00 00 00 
  203abb:	ff d0                	callq  *%rax
  203abd:	0f b6 c0             	movzbl %al,%eax
  203ac0:	66 89 45 fc          	mov    %ax,-0x4(%rbp)
  203ac4:	0f b7 45 fc          	movzwl -0x4(%rbp),%eax
  203ac8:	c1 e0 08             	shl    $0x8,%eax
  203acb:	89 c2                	mov    %eax,%edx
  203acd:	0f b7 45 fe          	movzwl -0x2(%rbp),%eax
  203ad1:	09 d0                	or     %edx,%eax
  203ad3:	c9                   	leaveq 
  203ad4:	c3                   	retq   

0000000000203ad5 <inp_uint32>:
  203ad5:	55                   	push   %rbp
  203ad6:	48 89 e5             	mov    %rsp,%rbp
  203ad9:	48 83 ec 20          	sub    $0x20,%rsp
  203add:	48 89 7d e8          	mov    %rdi,-0x18(%rbp)
  203ae1:	48 8b 45 e8          	mov    -0x18(%rbp),%rax
  203ae5:	48 89 c7             	mov    %rax,%rdi
  203ae8:	48 b8 9c 38 20 00 00 	mov    $0x20389c,%rax
  203aef:	00 00 00 
  203af2:	ff d0                	callq  *%rax
  203af4:	0f b6 c0             	movzbl %al,%eax
  203af7:	89 45 fc             	mov    %eax,-0x4(%rbp)
  203afa:	48 8b 45 e8          	mov    -0x18(%rbp),%rax
  203afe:	48 89 c7             	mov    %rax,%rdi
  203b01:	48 b8 9c 38 20 00 00 	mov    $0x20389c,%rax
  203b08:	00 00 00 
  203b0b:	ff d0                	callq  *%rax
  203b0d:	0f b6 c0             	movzbl %al,%eax
  203b10:	89 45 f8             	mov    %eax,-0x8(%rbp)
  203b13:	8b 45 f8             	mov    -0x8(%rbp),%eax
  203b16:	c1 e0 08             	shl    $0x8,%eax
  203b19:	09 45 fc             	or     %eax,-0x4(%rbp)
  203b1c:	48 8b 45 e8          	mov    -0x18(%rbp),%rax
  203b20:	48 89 c7             	mov    %rax,%rdi
  203b23:	48 b8 9c 38 20 00 00 	mov    $0x20389c,%rax
  203b2a:	00 00 00 
  203b2d:	ff d0                	callq  *%rax
  203b2f:	0f b6 c0             	movzbl %al,%eax
  203b32:	89 45 f8             	mov    %eax,-0x8(%rbp)
  203b35:	8b 45 f8             	mov    -0x8(%rbp),%eax
  203b38:	c1 e0 10             	shl    $0x10,%eax
  203b3b:	09 45 fc             	or     %eax,-0x4(%rbp)
  203b3e:	48 8b 45 e8          	mov    -0x18(%rbp),%rax
  203b42:	48 89 c7             	mov    %rax,%rdi
  203b45:	48 b8 9c 38 20 00 00 	mov    $0x20389c,%rax
  203b4c:	00 00 00 
  203b4f:	ff d0                	callq  *%rax
  203b51:	0f b6 c0             	movzbl %al,%eax
  203b54:	89 45 f8             	mov    %eax,-0x8(%rbp)
  203b57:	8b 45 f8             	mov    -0x8(%rbp),%eax
  203b5a:	c1 e0 18             	shl    $0x18,%eax
  203b5d:	0b 45 fc             	or     -0x4(%rbp),%eax
  203b60:	c9                   	leaveq 
  203b61:	c3                   	retq   

0000000000203b62 <inp_uint64>:
  203b62:	55                   	push   %rbp
  203b63:	48 89 e5             	mov    %rsp,%rbp
  203b66:	48 83 ec 20          	sub    $0x20,%rsp
  203b6a:	48 89 7d e8          	mov    %rdi,-0x18(%rbp)
  203b6e:	48 8b 45 e8          	mov    -0x18(%rbp),%rax
  203b72:	48 89 c7             	mov    %rax,%rdi
  203b75:	48 b8 9c 38 20 00 00 	mov    $0x20389c,%rax
  203b7c:	00 00 00 
  203b7f:	ff d0                	callq  *%rax
  203b81:	0f b6 c0             	movzbl %al,%eax
  203b84:	48 89 45 f8          	mov    %rax,-0x8(%rbp)
  203b88:	48 8b 45 e8          	mov    -0x18(%rbp),%rax
  203b8c:	48 89 c7             	mov    %rax,%rdi
  203b8f:	48 b8 9c 38 20 00 00 	mov    $0x20389c,%rax
  203b96:	00 00 00 
  203b99:	ff d0                	callq  *%rax
  203b9b:	0f b6 c0             	movzbl %al,%eax
  203b9e:	48 89 45 f0          	mov    %rax,-0x10(%rbp)
  203ba2:	48 8b 45 f0          	mov    -0x10(%rbp),%rax
  203ba6:	48 c1 e0 08          	shl    $0x8,%rax
  203baa:	48 09 45 f8          	or     %rax,-0x8(%rbp)
  203bae:	48 8b 45 e8          	mov    -0x18(%rbp),%rax
  203bb2:	48 89 c7             	mov    %rax,%rdi
  203bb5:	48 b8 9c 38 20 00 00 	mov    $0x20389c,%rax
  203bbc:	00 00 00 
  203bbf:	ff d0                	callq  *%rax
  203bc1:	0f b6 c0             	movzbl %al,%eax
  203bc4:	48 89 45 f0          	mov    %rax,-0x10(%rbp)
  203bc8:	48 8b 45 f0          	mov    -0x10(%rbp),%rax
  203bcc:	48 c1 e0 10          	shl    $0x10,%rax
  203bd0:	48 09 45 f8          	or     %rax,-0x8(%rbp)
  203bd4:	48 8b 45 e8          	mov    -0x18(%rbp),%rax
  203bd8:	48 89 c7             	mov    %rax,%rdi
  203bdb:	48 b8 9c 38 20 00 00 	mov    $0x20389c,%rax
  203be2:	00 00 00 
  203be5:	ff d0                	callq  *%rax
  203be7:	0f b6 c0             	movzbl %al,%eax
  203bea:	48 89 45 f0          	mov    %rax,-0x10(%rbp)
  203bee:	48 8b 45 f0          	mov    -0x10(%rbp),%rax
  203bf2:	48 c1 e0 18          	shl    $0x18,%rax
  203bf6:	48 09 45 f8          	or     %rax,-0x8(%rbp)
  203bfa:	48 8b 45 e8          	mov    -0x18(%rbp),%rax
  203bfe:	48 89 c7             	mov    %rax,%rdi
  203c01:	48 b8 9c 38 20 00 00 	mov    $0x20389c,%rax
  203c08:	00 00 00 
  203c0b:	ff d0                	callq  *%rax
  203c0d:	0f b6 c0             	movzbl %al,%eax
  203c10:	48 89 45 f0          	mov    %rax,-0x10(%rbp)
  203c14:	48 8b 45 f0          	mov    -0x10(%rbp),%rax
  203c18:	48 c1 e0 20          	shl    $0x20,%rax
  203c1c:	48 09 45 f8          	or     %rax,-0x8(%rbp)
  203c20:	48 8b 45 e8          	mov    -0x18(%rbp),%rax
  203c24:	48 89 c7             	mov    %rax,%rdi
  203c27:	48 b8 9c 38 20 00 00 	mov    $0x20389c,%rax
  203c2e:	00 00 00 
  203c31:	ff d0                	callq  *%rax
  203c33:	0f b6 c0             	movzbl %al,%eax
  203c36:	48 89 45 f0          	mov    %rax,-0x10(%rbp)
  203c3a:	48 8b 45 f0          	mov    -0x10(%rbp),%rax
  203c3e:	48 c1 e0 28          	shl    $0x28,%rax
  203c42:	48 09 45 f8          	or     %rax,-0x8(%rbp)
  203c46:	48 8b 45 e8          	mov    -0x18(%rbp),%rax
  203c4a:	48 89 c7             	mov    %rax,%rdi
  203c4d:	48 b8 9c 38 20 00 00 	mov    $0x20389c,%rax
  203c54:	00 00 00 
  203c57:	ff d0                	callq  *%rax
  203c59:	0f b6 c0             	movzbl %al,%eax
  203c5c:	48 89 45 f0          	mov    %rax,-0x10(%rbp)
  203c60:	48 8b 45 f0          	mov    -0x10(%rbp),%rax
  203c64:	48 c1 e0 30          	shl    $0x30,%rax
  203c68:	48 09 45 f8          	or     %rax,-0x8(%rbp)
  203c6c:	48 8b 45 e8          	mov    -0x18(%rbp),%rax
  203c70:	48 89 c7             	mov    %rax,%rdi
  203c73:	48 b8 9c 38 20 00 00 	mov    $0x20389c,%rax
  203c7a:	00 00 00 
  203c7d:	ff d0                	callq  *%rax
  203c7f:	0f b6 c0             	movzbl %al,%eax
  203c82:	48 89 45 f0          	mov    %rax,-0x10(%rbp)
  203c86:	48 8b 45 f0          	mov    -0x10(%rbp),%rax
  203c8a:	48 c1 e0 38          	shl    $0x38,%rax
  203c8e:	48 0b 45 f8          	or     -0x8(%rbp),%rax
  203c92:	c9                   	leaveq 
  203c93:	c3                   	retq   

0000000000203c94 <mkasm>:
  203c94:	55                   	push   %rbp
  203c95:	48 89 e5             	mov    %rsp,%rbp
  203c98:	53                   	push   %rbx
  203c99:	48 83 ec 58          	sub    $0x58,%rsp
  203c9d:	48 89 7d a8          	mov    %rdi,-0x58(%rbp)
  203ca1:	48 89 55 d0          	mov    %rdx,-0x30(%rbp)
  203ca5:	48 89 4d d8          	mov    %rcx,-0x28(%rbp)
  203ca9:	4c 89 45 e0          	mov    %r8,-0x20(%rbp)
  203cad:	4c 89 4d e8          	mov    %r9,-0x18(%rbp)
  203cb1:	48 89 75 a0          	mov    %rsi,-0x60(%rbp)
  203cb5:	48 8d 45 a0          	lea    -0x60(%rbp),%rax
  203cb9:	48 83 c0 08          	add    $0x8,%rax
  203cbd:	48 89 45 b8          	mov    %rax,-0x48(%rbp)
  203cc1:	48 8b 45 a8          	mov    -0x58(%rbp),%rax
  203cc5:	8b 98 a8 00 00 00    	mov    0xa8(%rax),%ebx
  203ccb:	48 8b 45 a0          	mov    -0x60(%rbp),%rax
  203ccf:	48 8b 55 a8          	mov    -0x58(%rbp),%rdx
  203cd3:	48 8d 4a 68          	lea    0x68(%rdx),%rcx
  203cd7:	48 8b 55 a8          	mov    -0x58(%rbp),%rdx
  203cdb:	8b 92 a8 00 00 00    	mov    0xa8(%rdx),%edx
  203ce1:	89 d2                	mov    %edx,%edx
  203ce3:	48 01 d1             	add    %rdx,%rcx
  203ce6:	48 8b 55 b8          	mov    -0x48(%rbp),%rdx
  203cea:	48 89 c6             	mov    %rax,%rsi
  203ced:	48 89 cf             	mov    %rcx,%rdi
  203cf0:	48 b8 3c 88 20 00 00 	mov    $0x20883c,%rax
  203cf7:	00 00 00 
  203cfa:	ff d0                	callq  *%rax
  203cfc:	8d 14 03             	lea    (%rbx,%rax,1),%edx
  203cff:	48 8b 45 a8          	mov    -0x58(%rbp),%rax
  203d03:	89 90 a8 00 00 00    	mov    %edx,0xa8(%rax)
  203d09:	48 83 c4 58          	add    $0x58,%rsp
  203d0d:	5b                   	pop    %rbx
  203d0e:	c9                   	leaveq 
  203d0f:	c3                   	retq   

0000000000203d10 <opr_cast>:
  203d10:	55                   	push   %rbp
  203d11:	48 89 e5             	mov    %rsp,%rbp
  203d14:	48 83 ec 10          	sub    $0x10,%rsp
  203d18:	48 89 7d f8          	mov    %rdi,-0x8(%rbp)
  203d1c:	48 89 75 f0          	mov    %rsi,-0x10(%rbp)
  203d20:	48 8b 45 f0          	mov    -0x10(%rbp),%rax
  203d24:	0f b6 40 04          	movzbl 0x4(%rax),%eax
  203d28:	0f b6 c0             	movzbl %al,%eax
  203d2b:	83 f8 20             	cmp    $0x20,%eax
  203d2e:	74 72                	je     203da2 <opr_cast+0x92>
  203d30:	83 f8 20             	cmp    $0x20,%eax
  203d33:	7f 0f                	jg     203d44 <opr_cast+0x34>
  203d35:	83 f8 08             	cmp    $0x8,%eax
  203d38:	74 1d                	je     203d57 <opr_cast+0x47>
  203d3a:	83 f8 10             	cmp    $0x10,%eax
  203d3d:	74 3f                	je     203d7e <opr_cast+0x6e>
  203d3f:	e9 c9 00 00 00       	jmpq   203e0d <opr_cast+0xfd>
  203d44:	83 f8 40             	cmp    $0x40,%eax
  203d47:	74 7d                	je     203dc6 <opr_cast+0xb6>
  203d49:	83 f8 50             	cmp    $0x50,%eax
  203d4c:	0f 84 98 00 00 00    	je     203dea <opr_cast+0xda>
  203d52:	e9 b6 00 00 00       	jmpq   203e0d <opr_cast+0xfd>
  203d57:	48 8b 45 f8          	mov    -0x8(%rbp),%rax
  203d5b:	48 be 00 90 20 00 00 	mov    $0x209000,%rsi
  203d62:	00 00 00 
  203d65:	48 89 c7             	mov    %rax,%rdi
  203d68:	b8 00 00 00 00       	mov    $0x0,%eax
  203d6d:	48 ba 94 3c 20 00 00 	mov    $0x203c94,%rdx
  203d74:	00 00 00 
  203d77:	ff d2                	callq  *%rdx
  203d79:	e9 8f 00 00 00       	jmpq   203e0d <opr_cast+0xfd>
  203d7e:	48 8b 45 f8          	mov    -0x8(%rbp),%rax
  203d82:	48 be 06 90 20 00 00 	mov    $0x209006,%rsi
  203d89:	00 00 00 
  203d8c:	48 89 c7             	mov    %rax,%rdi
  203d8f:	b8 00 00 00 00       	mov    $0x0,%eax
  203d94:	48 ba 94 3c 20 00 00 	mov    $0x203c94,%rdx
  203d9b:	00 00 00 
  203d9e:	ff d2                	callq  *%rdx
  203da0:	eb 6b                	jmp    203e0d <opr_cast+0xfd>
  203da2:	48 8b 45 f8          	mov    -0x8(%rbp),%rax
  203da6:	48 be 0c 90 20 00 00 	mov    $0x20900c,%rsi
  203dad:	00 00 00 
  203db0:	48 89 c7             	mov    %rax,%rdi
  203db3:	b8 00 00 00 00       	mov    $0x0,%eax
  203db8:	48 ba 94 3c 20 00 00 	mov    $0x203c94,%rdx
  203dbf:	00 00 00 
  203dc2:	ff d2                	callq  *%rdx
  203dc4:	eb 47                	jmp    203e0d <opr_cast+0xfd>
  203dc6:	48 8b 45 f8          	mov    -0x8(%rbp),%rax
  203dca:	48 be 13 90 20 00 00 	mov    $0x209013,%rsi
  203dd1:	00 00 00 
  203dd4:	48 89 c7             	mov    %rax,%rdi
  203dd7:	b8 00 00 00 00       	mov    $0x0,%eax
  203ddc:	48 ba 94 3c 20 00 00 	mov    $0x203c94,%rdx
  203de3:	00 00 00 
  203de6:	ff d2                	callq  *%rdx
  203de8:	eb 23                	jmp    203e0d <opr_cast+0xfd>
  203dea:	48 8b 45 f8          	mov    -0x8(%rbp),%rax
  203dee:	48 be 1a 90 20 00 00 	mov    $0x20901a,%rsi
  203df5:	00 00 00 
  203df8:	48 89 c7             	mov    %rax,%rdi
  203dfb:	b8 00 00 00 00       	mov    $0x0,%eax
  203e00:	48 ba 94 3c 20 00 00 	mov    $0x203c94,%rdx
  203e07:	00 00 00 
  203e0a:	ff d2                	callq  *%rdx
  203e0c:	90                   	nop
  203e0d:	48 8b 45 f8          	mov    -0x8(%rbp),%rax
  203e11:	0f b6 80 3d 01 00 00 	movzbl 0x13d(%rax),%eax
  203e18:	84 c0                	test   %al,%al
  203e1a:	74 24                	je     203e40 <opr_cast+0x130>
  203e1c:	48 8b 45 f8          	mov    -0x8(%rbp),%rax
  203e20:	48 be 21 90 20 00 00 	mov    $0x209021,%rsi
  203e27:	00 00 00 
  203e2a:	48 89 c7             	mov    %rax,%rdi
  203e2d:	b8 00 00 00 00       	mov    $0x0,%eax
  203e32:	48 ba 94 3c 20 00 00 	mov    $0x203c94,%rdx
  203e39:	00 00 00 
  203e3c:	ff d2                	callq  *%rdx
  203e3e:	eb 31                	jmp    203e71 <opr_cast+0x161>
  203e40:	48 8b 45 f8          	mov    -0x8(%rbp),%rax
  203e44:	0f b6 80 3e 01 00 00 	movzbl 0x13e(%rax),%eax
  203e4b:	84 c0                	test   %al,%al
  203e4d:	74 22                	je     203e71 <opr_cast+0x161>
  203e4f:	48 8b 45 f8          	mov    -0x8(%rbp),%rax
  203e53:	48 be 26 90 20 00 00 	mov    $0x209026,%rsi
  203e5a:	00 00 00 
  203e5d:	48 89 c7             	mov    %rax,%rdi
  203e60:	b8 00 00 00 00       	mov    $0x0,%eax
  203e65:	48 ba 94 3c 20 00 00 	mov    $0x203c94,%rdx
  203e6c:	00 00 00 
  203e6f:	ff d2                	callq  *%rdx
  203e71:	c9                   	leaveq 
  203e72:	c3                   	retq   

0000000000203e73 <gen_operand>:
  203e73:	55                   	push   %rbp
  203e74:	48 89 e5             	mov    %rsp,%rbp
  203e77:	53                   	push   %rbx
  203e78:	48 83 ec 38          	sub    $0x38,%rsp
  203e7c:	48 89 7d d8          	mov    %rdi,-0x28(%rbp)
  203e80:	48 89 75 d0          	mov    %rsi,-0x30(%rbp)
  203e84:	89 55 cc             	mov    %edx,-0x34(%rbp)
  203e87:	48 8b 45 d0          	mov    -0x30(%rbp),%rax
  203e8b:	8b 00                	mov    (%rax),%eax
  203e8d:	2d 8c 00 00 00       	sub    $0x8c,%eax
  203e92:	83 f8 05             	cmp    $0x5,%eax
  203e95:	0f 87 51 07 00 00    	ja     2045ec <gen_operand+0x779>
  203e9b:	89 c0                	mov    %eax,%eax
  203e9d:	48 8d 14 c5 00 00 00 	lea    0x0(,%rax,8),%rdx
  203ea4:	00 
  203ea5:	48 b8 88 90 20 00 00 	mov    $0x209088,%rax
  203eac:	00 00 00 
  203eaf:	48 8d 04 02          	lea    (%rdx,%rax,1),%rax
  203eb3:	48 8b 00             	mov    (%rax),%rax
  203eb6:	ff e0                	jmpq   *%rax
  203eb8:	48 8b 45 d0          	mov    -0x30(%rbp),%rax
  203ebc:	8b 40 10             	mov    0x10(%rax),%eax
  203ebf:	8d 50 ff             	lea    -0x1(%rax),%edx
  203ec2:	48 b8 80 22 22 00 00 	mov    $0x222280,%rax
  203ec9:	00 00 00 
  203ecc:	89 d2                	mov    %edx,%edx
  203ece:	48 8b 14 d0          	mov    (%rax,%rdx,8),%rdx
  203ed2:	48 8b 45 d8          	mov    -0x28(%rbp),%rax
  203ed6:	48 89 d6             	mov    %rdx,%rsi
  203ed9:	48 89 c7             	mov    %rax,%rdi
  203edc:	b8 00 00 00 00       	mov    $0x0,%eax
  203ee1:	48 ba 94 3c 20 00 00 	mov    $0x203c94,%rdx
  203ee8:	00 00 00 
  203eeb:	ff d2                	callq  *%rdx
  203eed:	e9 fb 06 00 00       	jmpq   2045ed <gen_operand+0x77a>
  203ef2:	c7 45 ec 00 00 00 00 	movl   $0x0,-0x14(%rbp)
  203ef9:	83 7d cc 00          	cmpl   $0x0,-0x34(%rbp)
  203efd:	74 1a                	je     203f19 <gen_operand+0xa6>
  203eff:	48 8b 55 d0          	mov    -0x30(%rbp),%rdx
  203f03:	48 8b 45 d8          	mov    -0x28(%rbp),%rax
  203f07:	48 89 d6             	mov    %rdx,%rsi
  203f0a:	48 89 c7             	mov    %rax,%rdi
  203f0d:	48 b8 10 3d 20 00 00 	mov    $0x203d10,%rax
  203f14:	00 00 00 
  203f17:	ff d0                	callq  *%rax
  203f19:	48 8b 45 d8          	mov    -0x28(%rbp),%rax
  203f1d:	48 be 2c 90 20 00 00 	mov    $0x20902c,%rsi
  203f24:	00 00 00 
  203f27:	48 89 c7             	mov    %rax,%rdi
  203f2a:	b8 00 00 00 00       	mov    $0x0,%eax
  203f2f:	48 ba 94 3c 20 00 00 	mov    $0x203c94,%rdx
  203f36:	00 00 00 
  203f39:	ff d2                	callq  *%rdx
  203f3b:	48 8b 45 d8          	mov    -0x28(%rbp),%rax
  203f3f:	0f b6 80 32 01 00 00 	movzbl 0x132(%rax),%eax
  203f46:	84 c0                	test   %al,%al
  203f48:	74 44                	je     203f8e <gen_operand+0x11b>
  203f4a:	48 8b 45 d8          	mov    -0x28(%rbp),%rax
  203f4e:	0f b6 80 32 01 00 00 	movzbl 0x132(%rax),%eax
  203f55:	0f b6 c0             	movzbl %al,%eax
  203f58:	8d 50 ff             	lea    -0x1(%rax),%edx
  203f5b:	48 b8 80 22 22 00 00 	mov    $0x222280,%rax
  203f62:	00 00 00 
  203f65:	48 63 d2             	movslq %edx,%rdx
  203f68:	48 8b 14 d0          	mov    (%rax,%rdx,8),%rdx
  203f6c:	48 8b 45 d8          	mov    -0x28(%rbp),%rax
  203f70:	48 be 2e 90 20 00 00 	mov    $0x20902e,%rsi
  203f77:	00 00 00 
  203f7a:	48 89 c7             	mov    %rax,%rdi
  203f7d:	b8 00 00 00 00       	mov    $0x0,%eax
  203f82:	48 b9 94 3c 20 00 00 	mov    $0x203c94,%rcx
  203f89:	00 00 00 
  203f8c:	ff d1                	callq  *%rcx
  203f8e:	48 8b 45 d0          	mov    -0x30(%rbp),%rax
  203f92:	8b 40 10             	mov    0x10(%rax),%eax
  203f95:	85 c0                	test   %eax,%eax
  203f97:	74 43                	je     203fdc <gen_operand+0x169>
  203f99:	48 8b 45 d0          	mov    -0x30(%rbp),%rax
  203f9d:	8b 40 10             	mov    0x10(%rax),%eax
  203fa0:	8d 50 ff             	lea    -0x1(%rax),%edx
  203fa3:	48 b8 80 22 22 00 00 	mov    $0x222280,%rax
  203faa:	00 00 00 
  203fad:	89 d2                	mov    %edx,%edx
  203faf:	48 8b 14 d0          	mov    (%rax,%rdx,8),%rdx
  203fb3:	48 8b 45 d8          	mov    -0x28(%rbp),%rax
  203fb7:	48 be 32 90 20 00 00 	mov    $0x209032,%rsi
  203fbe:	00 00 00 
  203fc1:	48 89 c7             	mov    %rax,%rdi
  203fc4:	b8 00 00 00 00       	mov    $0x0,%eax
  203fc9:	48 b9 94 3c 20 00 00 	mov    $0x203c94,%rcx
  203fd0:	00 00 00 
  203fd3:	ff d1                	callq  *%rcx
  203fd5:	c7 45 ec 01 00 00 00 	movl   $0x1,-0x14(%rbp)
  203fdc:	48 8b 45 d0          	mov    -0x30(%rbp),%rax
  203fe0:	8b 40 14             	mov    0x14(%rax),%eax
  203fe3:	85 c0                	test   %eax,%eax
  203fe5:	74 6b                	je     204052 <gen_operand+0x1df>
  203fe7:	83 7d ec 00          	cmpl   $0x0,-0x14(%rbp)
  203feb:	74 22                	je     20400f <gen_operand+0x19c>
  203fed:	48 8b 45 d8          	mov    -0x28(%rbp),%rax
  203ff1:	48 be 35 90 20 00 00 	mov    $0x209035,%rsi
  203ff8:	00 00 00 
  203ffb:	48 89 c7             	mov    %rax,%rdi
  203ffe:	b8 00 00 00 00       	mov    $0x0,%eax
  204003:	48 ba 94 3c 20 00 00 	mov    $0x203c94,%rdx
  20400a:	00 00 00 
  20400d:	ff d2                	callq  *%rdx
  20400f:	48 8b 45 d0          	mov    -0x30(%rbp),%rax
  204013:	8b 40 14             	mov    0x14(%rax),%eax
  204016:	8d 50 ff             	lea    -0x1(%rax),%edx
  204019:	48 b8 80 22 22 00 00 	mov    $0x222280,%rax
  204020:	00 00 00 
  204023:	89 d2                	mov    %edx,%edx
  204025:	48 8b 14 d0          	mov    (%rax,%rdx,8),%rdx
  204029:	48 8b 45 d8          	mov    -0x28(%rbp),%rax
  20402d:	48 be 32 90 20 00 00 	mov    $0x209032,%rsi
  204034:	00 00 00 
  204037:	48 89 c7             	mov    %rax,%rdi
  20403a:	b8 00 00 00 00       	mov    $0x0,%eax
  20403f:	48 b9 94 3c 20 00 00 	mov    $0x203c94,%rcx
  204046:	00 00 00 
  204049:	ff d1                	callq  *%rcx
  20404b:	c7 45 ec 01 00 00 00 	movl   $0x1,-0x14(%rbp)
  204052:	48 8b 45 d0          	mov    -0x30(%rbp),%rax
  204056:	0f b6 40 19          	movzbl 0x19(%rax),%eax
  20405a:	84 c0                	test   %al,%al
  20405c:	74 2d                	je     20408b <gen_operand+0x218>
  20405e:	48 8b 45 d0          	mov    -0x30(%rbp),%rax
  204062:	0f b6 40 19          	movzbl 0x19(%rax),%eax
  204066:	0f b6 d0             	movzbl %al,%edx
  204069:	48 8b 45 d8          	mov    -0x28(%rbp),%rax
  20406d:	48 be 37 90 20 00 00 	mov    $0x209037,%rsi
  204074:	00 00 00 
  204077:	48 89 c7             	mov    %rax,%rdi
  20407a:	b8 00 00 00 00       	mov    $0x0,%eax
  20407f:	48 b9 94 3c 20 00 00 	mov    $0x203c94,%rcx
  204086:	00 00 00 
  204089:	ff d1                	callq  *%rcx
  20408b:	48 8b 45 d0          	mov    -0x30(%rbp),%rax
  20408f:	0f b6 40 18          	movzbl 0x18(%rax),%eax
  204093:	3c 08                	cmp    $0x8,%al
  204095:	0f 85 95 00 00 00    	jne    204130 <gen_operand+0x2bd>
  20409b:	48 8b 45 d0          	mov    -0x30(%rbp),%rax
  20409f:	0f b6 40 08          	movzbl 0x8(%rax),%eax
  2040a3:	84 c0                	test   %al,%al
  2040a5:	79 36                	jns    2040dd <gen_operand+0x26a>
  2040a7:	48 8b 45 d0          	mov    -0x30(%rbp),%rax
  2040ab:	0f b6 40 08          	movzbl 0x8(%rax),%eax
  2040af:	0f be c0             	movsbl %al,%eax
  2040b2:	89 c2                	mov    %eax,%edx
  2040b4:	f7 da                	neg    %edx
  2040b6:	48 8b 45 d8          	mov    -0x28(%rbp),%rax
  2040ba:	48 be 3b 90 20 00 00 	mov    $0x20903b,%rsi
  2040c1:	00 00 00 
  2040c4:	48 89 c7             	mov    %rax,%rdi
  2040c7:	b8 00 00 00 00       	mov    $0x0,%eax
  2040cc:	48 b9 94 3c 20 00 00 	mov    $0x203c94,%rcx
  2040d3:	00 00 00 
  2040d6:	ff d1                	callq  *%rcx
  2040d8:	e9 05 02 00 00       	jmpq   2042e2 <gen_operand+0x46f>
  2040dd:	48 8b 45 d0          	mov    -0x30(%rbp),%rax
  2040e1:	0f b6 40 08          	movzbl 0x8(%rax),%eax
  2040e5:	0f be d0             	movsbl %al,%edx
  2040e8:	83 7d ec 00          	cmpl   $0x0,-0x14(%rbp)
  2040ec:	74 0c                	je     2040fa <gen_operand+0x287>
  2040ee:	48 b8 35 90 20 00 00 	mov    $0x209035,%rax
  2040f5:	00 00 00 
  2040f8:	eb 0a                	jmp    204104 <gen_operand+0x291>
  2040fa:	48 b8 41 90 20 00 00 	mov    $0x209041,%rax
  204101:	00 00 00 
  204104:	48 8b 5d d8          	mov    -0x28(%rbp),%rbx
  204108:	89 d1                	mov    %edx,%ecx
  20410a:	48 89 c2             	mov    %rax,%rdx
  20410d:	48 be 42 90 20 00 00 	mov    $0x209042,%rsi
  204114:	00 00 00 
  204117:	48 89 df             	mov    %rbx,%rdi
  20411a:	b8 00 00 00 00       	mov    $0x0,%eax
  20411f:	48 bb 94 3c 20 00 00 	mov    $0x203c94,%rbx
  204126:	00 00 00 
  204129:	ff d3                	callq  *%rbx
  20412b:	e9 b2 01 00 00       	jmpq   2042e2 <gen_operand+0x46f>
  204130:	48 8b 45 d0          	mov    -0x30(%rbp),%rax
  204134:	0f b6 40 18          	movzbl 0x18(%rax),%eax
  204138:	3c 10                	cmp    $0x10,%al
  20413a:	75 53                	jne    20418f <gen_operand+0x31c>
  20413c:	48 8b 45 d0          	mov    -0x30(%rbp),%rax
  204140:	0f b7 40 08          	movzwl 0x8(%rax),%eax
  204144:	0f b7 d0             	movzwl %ax,%edx
  204147:	83 7d ec 00          	cmpl   $0x0,-0x14(%rbp)
  20414b:	74 0c                	je     204159 <gen_operand+0x2e6>
  20414d:	48 b8 35 90 20 00 00 	mov    $0x209035,%rax
  204154:	00 00 00 
  204157:	eb 0a                	jmp    204163 <gen_operand+0x2f0>
  204159:	48 b8 41 90 20 00 00 	mov    $0x209041,%rax
  204160:	00 00 00 
  204163:	48 8b 5d d8          	mov    -0x28(%rbp),%rbx
  204167:	89 d1                	mov    %edx,%ecx
  204169:	48 89 c2             	mov    %rax,%rdx
  20416c:	48 be 42 90 20 00 00 	mov    $0x209042,%rsi
  204173:	00 00 00 
  204176:	48 89 df             	mov    %rbx,%rdi
  204179:	b8 00 00 00 00       	mov    $0x0,%eax
  20417e:	48 bb 94 3c 20 00 00 	mov    $0x203c94,%rbx
  204185:	00 00 00 
  204188:	ff d3                	callq  *%rbx
  20418a:	e9 53 01 00 00       	jmpq   2042e2 <gen_operand+0x46f>
  20418f:	48 8b 45 d0          	mov    -0x30(%rbp),%rax
  204193:	0f b6 40 18          	movzbl 0x18(%rax),%eax
  204197:	3c 20                	cmp    $0x20,%al
  204199:	0f 85 eb 00 00 00    	jne    20428a <gen_operand+0x417>
  20419f:	48 8b 45 d8          	mov    -0x28(%rbp),%rax
  2041a3:	0f b6 80 3c 01 00 00 	movzbl 0x13c(%rax),%eax
  2041aa:	3c 40                	cmp    $0x40,%al
  2041ac:	0f 85 8c 00 00 00    	jne    20423e <gen_operand+0x3cb>
  2041b2:	48 8b 45 d0          	mov    -0x30(%rbp),%rax
  2041b6:	8b 40 08             	mov    0x8(%rax),%eax
  2041b9:	85 c0                	test   %eax,%eax
  2041bb:	79 32                	jns    2041ef <gen_operand+0x37c>
  2041bd:	48 8b 45 d0          	mov    -0x30(%rbp),%rax
  2041c1:	8b 40 08             	mov    0x8(%rax),%eax
  2041c4:	89 c2                	mov    %eax,%edx
  2041c6:	f7 da                	neg    %edx
  2041c8:	48 8b 45 d8          	mov    -0x28(%rbp),%rax
  2041cc:	48 be 3b 90 20 00 00 	mov    $0x20903b,%rsi
  2041d3:	00 00 00 
  2041d6:	48 89 c7             	mov    %rax,%rdi
  2041d9:	b8 00 00 00 00       	mov    $0x0,%eax
  2041de:	48 b9 94 3c 20 00 00 	mov    $0x203c94,%rcx
  2041e5:	00 00 00 
  2041e8:	ff d1                	callq  *%rcx
  2041ea:	e9 f3 00 00 00       	jmpq   2042e2 <gen_operand+0x46f>
  2041ef:	48 8b 45 d0          	mov    -0x30(%rbp),%rax
  2041f3:	8b 50 08             	mov    0x8(%rax),%edx
  2041f6:	83 7d ec 00          	cmpl   $0x0,-0x14(%rbp)
  2041fa:	74 0c                	je     204208 <gen_operand+0x395>
  2041fc:	48 b8 35 90 20 00 00 	mov    $0x209035,%rax
  204203:	00 00 00 
  204206:	eb 0a                	jmp    204212 <gen_operand+0x39f>
  204208:	48 b8 41 90 20 00 00 	mov    $0x209041,%rax
  20420f:	00 00 00 
  204212:	48 8b 5d d8          	mov    -0x28(%rbp),%rbx
  204216:	89 d1                	mov    %edx,%ecx
  204218:	48 89 c2             	mov    %rax,%rdx
  20421b:	48 be 42 90 20 00 00 	mov    $0x209042,%rsi
  204222:	00 00 00 
  204225:	48 89 df             	mov    %rbx,%rdi
  204228:	b8 00 00 00 00       	mov    $0x0,%eax
  20422d:	48 bb 94 3c 20 00 00 	mov    $0x203c94,%rbx
  204234:	00 00 00 
  204237:	ff d3                	callq  *%rbx
  204239:	e9 a4 00 00 00       	jmpq   2042e2 <gen_operand+0x46f>
  20423e:	48 8b 45 d0          	mov    -0x30(%rbp),%rax
  204242:	8b 50 08             	mov    0x8(%rax),%edx
  204245:	83 7d ec 00          	cmpl   $0x0,-0x14(%rbp)
  204249:	74 0c                	je     204257 <gen_operand+0x3e4>
  20424b:	48 b8 35 90 20 00 00 	mov    $0x209035,%rax
  204252:	00 00 00 
  204255:	eb 0a                	jmp    204261 <gen_operand+0x3ee>
  204257:	48 b8 41 90 20 00 00 	mov    $0x209041,%rax
  20425e:	00 00 00 
  204261:	48 8b 5d d8          	mov    -0x28(%rbp),%rbx
  204265:	89 d1                	mov    %edx,%ecx
  204267:	48 89 c2             	mov    %rax,%rdx
  20426a:	48 be 49 90 20 00 00 	mov    $0x209049,%rsi
  204271:	00 00 00 
  204274:	48 89 df             	mov    %rbx,%rdi
  204277:	b8 00 00 00 00       	mov    $0x0,%eax
  20427c:	48 bb 94 3c 20 00 00 	mov    $0x203c94,%rbx
  204283:	00 00 00 
  204286:	ff d3                	callq  *%rbx
  204288:	eb 58                	jmp    2042e2 <gen_operand+0x46f>
  20428a:	48 8b 45 d0          	mov    -0x30(%rbp),%rax
  20428e:	0f b6 40 18          	movzbl 0x18(%rax),%eax
  204292:	3c 40                	cmp    $0x40,%al
  204294:	75 4c                	jne    2042e2 <gen_operand+0x46f>
  204296:	48 8b 45 d0          	mov    -0x30(%rbp),%rax
  20429a:	48 8b 50 08          	mov    0x8(%rax),%rdx
  20429e:	83 7d ec 00          	cmpl   $0x0,-0x14(%rbp)
  2042a2:	74 0c                	je     2042b0 <gen_operand+0x43d>
  2042a4:	48 b8 35 90 20 00 00 	mov    $0x209035,%rax
  2042ab:	00 00 00 
  2042ae:	eb 0a                	jmp    2042ba <gen_operand+0x447>
  2042b0:	48 b8 41 90 20 00 00 	mov    $0x209041,%rax
  2042b7:	00 00 00 
  2042ba:	48 8b 5d d8          	mov    -0x28(%rbp),%rbx
  2042be:	48 89 d1             	mov    %rdx,%rcx
  2042c1:	48 89 c2             	mov    %rax,%rdx
  2042c4:	48 be 49 90 20 00 00 	mov    $0x209049,%rsi
  2042cb:	00 00 00 
  2042ce:	48 89 df             	mov    %rbx,%rdi
  2042d1:	b8 00 00 00 00       	mov    $0x0,%eax
  2042d6:	48 bb 94 3c 20 00 00 	mov    $0x203c94,%rbx
  2042dd:	00 00 00 
  2042e0:	ff d3                	callq  *%rbx
  2042e2:	48 8b 45 d8          	mov    -0x28(%rbp),%rax
  2042e6:	48 be 51 90 20 00 00 	mov    $0x209051,%rsi
  2042ed:	00 00 00 
  2042f0:	48 89 c7             	mov    %rax,%rdi
  2042f3:	b8 00 00 00 00       	mov    $0x0,%eax
  2042f8:	48 ba 94 3c 20 00 00 	mov    $0x203c94,%rdx
  2042ff:	00 00 00 
  204302:	ff d2                	callq  *%rdx
  204304:	e9 e4 02 00 00       	jmpq   2045ed <gen_operand+0x77a>
  204309:	83 7d cc 00          	cmpl   $0x0,-0x34(%rbp)
  20430d:	74 1a                	je     204329 <gen_operand+0x4b6>
  20430f:	48 8b 55 d0          	mov    -0x30(%rbp),%rdx
  204313:	48 8b 45 d8          	mov    -0x28(%rbp),%rax
  204317:	48 89 d6             	mov    %rdx,%rsi
  20431a:	48 89 c7             	mov    %rax,%rdi
  20431d:	48 b8 10 3d 20 00 00 	mov    $0x203d10,%rax
  204324:	00 00 00 
  204327:	ff d0                	callq  *%rax
  204329:	48 8b 45 d0          	mov    -0x30(%rbp),%rax
  20432d:	0f b6 40 04          	movzbl 0x4(%rax),%eax
  204331:	0f b6 c0             	movzbl %al,%eax
  204334:	83 f8 10             	cmp    $0x10,%eax
  204337:	74 54                	je     20438d <gen_operand+0x51a>
  204339:	83 f8 10             	cmp    $0x10,%eax
  20433c:	7f 0a                	jg     204348 <gen_operand+0x4d5>
  20433e:	83 f8 08             	cmp    $0x8,%eax
  204341:	74 18                	je     20435b <gen_operand+0x4e8>
  204343:	e9 cb 00 00 00       	jmpq   204413 <gen_operand+0x5a0>
  204348:	83 f8 20             	cmp    $0x20,%eax
  20434b:	74 6f                	je     2043bc <gen_operand+0x549>
  20434d:	83 f8 40             	cmp    $0x40,%eax
  204350:	0f 84 91 00 00 00    	je     2043e7 <gen_operand+0x574>
  204356:	e9 b8 00 00 00       	jmpq   204413 <gen_operand+0x5a0>
  20435b:	48 8b 45 d0          	mov    -0x30(%rbp),%rax
  20435f:	0f b6 40 08          	movzbl 0x8(%rax),%eax
  204363:	0f b6 d0             	movzbl %al,%edx
  204366:	48 8b 45 d8          	mov    -0x28(%rbp),%rax
  20436a:	48 be 53 90 20 00 00 	mov    $0x209053,%rsi
  204371:	00 00 00 
  204374:	48 89 c7             	mov    %rax,%rdi
  204377:	b8 00 00 00 00       	mov    $0x0,%eax
  20437c:	48 b9 94 3c 20 00 00 	mov    $0x203c94,%rcx
  204383:	00 00 00 
  204386:	ff d1                	callq  *%rcx
  204388:	e9 87 00 00 00       	jmpq   204414 <gen_operand+0x5a1>
  20438d:	48 8b 45 d0          	mov    -0x30(%rbp),%rax
  204391:	0f b7 40 08          	movzwl 0x8(%rax),%eax
  204395:	0f b7 d0             	movzwl %ax,%edx
  204398:	48 8b 45 d8          	mov    -0x28(%rbp),%rax
  20439c:	48 be 53 90 20 00 00 	mov    $0x209053,%rsi
  2043a3:	00 00 00 
  2043a6:	48 89 c7             	mov    %rax,%rdi
  2043a9:	b8 00 00 00 00       	mov    $0x0,%eax
  2043ae:	48 b9 94 3c 20 00 00 	mov    $0x203c94,%rcx
  2043b5:	00 00 00 
  2043b8:	ff d1                	callq  *%rcx
  2043ba:	eb 58                	jmp    204414 <gen_operand+0x5a1>
  2043bc:	48 8b 45 d0          	mov    -0x30(%rbp),%rax
  2043c0:	8b 50 08             	mov    0x8(%rax),%edx
  2043c3:	48 8b 45 d8          	mov    -0x28(%rbp),%rax
  2043c7:	48 be 58 90 20 00 00 	mov    $0x209058,%rsi
  2043ce:	00 00 00 
  2043d1:	48 89 c7             	mov    %rax,%rdi
  2043d4:	b8 00 00 00 00       	mov    $0x0,%eax
  2043d9:	48 b9 94 3c 20 00 00 	mov    $0x203c94,%rcx
  2043e0:	00 00 00 
  2043e3:	ff d1                	callq  *%rcx
  2043e5:	eb 2d                	jmp    204414 <gen_operand+0x5a1>
  2043e7:	48 8b 45 d0          	mov    -0x30(%rbp),%rax
  2043eb:	48 8b 50 08          	mov    0x8(%rax),%rdx
  2043ef:	48 8b 45 d8          	mov    -0x28(%rbp),%rax
  2043f3:	48 be 58 90 20 00 00 	mov    $0x209058,%rsi
  2043fa:	00 00 00 
  2043fd:	48 89 c7             	mov    %rax,%rdi
  204400:	b8 00 00 00 00       	mov    $0x0,%eax
  204405:	48 b9 94 3c 20 00 00 	mov    $0x203c94,%rcx
  20440c:	00 00 00 
  20440f:	ff d1                	callq  *%rcx
  204411:	eb 01                	jmp    204414 <gen_operand+0x5a1>
  204413:	90                   	nop
  204414:	e9 d4 01 00 00       	jmpq   2045ed <gen_operand+0x77a>
  204419:	83 7d cc 00          	cmpl   $0x0,-0x34(%rbp)
  20441d:	74 1a                	je     204439 <gen_operand+0x5c6>
  20441f:	48 8b 55 d0          	mov    -0x30(%rbp),%rdx
  204423:	48 8b 45 d8          	mov    -0x28(%rbp),%rax
  204427:	48 89 d6             	mov    %rdx,%rsi
  20442a:	48 89 c7             	mov    %rax,%rdi
  20442d:	48 b8 10 3d 20 00 00 	mov    $0x203d10,%rax
  204434:	00 00 00 
  204437:	ff d0                	callq  *%rax
  204439:	48 8b 45 d0          	mov    -0x30(%rbp),%rax
  20443d:	0f b6 40 04          	movzbl 0x4(%rax),%eax
  204441:	0f b6 c0             	movzbl %al,%eax
  204444:	83 f8 10             	cmp    $0x10,%eax
  204447:	74 51                	je     20449a <gen_operand+0x627>
  204449:	83 f8 20             	cmp    $0x20,%eax
  20444c:	0f 84 86 00 00 00    	je     2044d8 <gen_operand+0x665>
  204452:	83 f8 08             	cmp    $0x8,%eax
  204455:	74 05                	je     20445c <gen_operand+0x5e9>
  204457:	e9 b6 00 00 00       	jmpq   204512 <gen_operand+0x69f>
  20445c:	48 8b 45 d8          	mov    -0x28(%rbp),%rax
  204460:	48 8b 90 b0 00 00 00 	mov    0xb0(%rax),%rdx
  204467:	48 8b 45 d0          	mov    -0x30(%rbp),%rax
  20446b:	0f b6 40 08          	movzbl 0x8(%rax),%eax
  20446f:	48 0f be c0          	movsbq %al,%rax
  204473:	48 01 c2             	add    %rax,%rdx
  204476:	48 8b 45 d8          	mov    -0x28(%rbp),%rax
  20447a:	48 be 58 90 20 00 00 	mov    $0x209058,%rsi
  204481:	00 00 00 
  204484:	48 89 c7             	mov    %rax,%rdi
  204487:	b8 00 00 00 00       	mov    $0x0,%eax
  20448c:	48 b9 94 3c 20 00 00 	mov    $0x203c94,%rcx
  204493:	00 00 00 
  204496:	ff d1                	callq  *%rcx
  204498:	eb 78                	jmp    204512 <gen_operand+0x69f>
  20449a:	48 8b 45 d8          	mov    -0x28(%rbp),%rax
  20449e:	48 8b 90 b0 00 00 00 	mov    0xb0(%rax),%rdx
  2044a5:	48 8b 45 d0          	mov    -0x30(%rbp),%rax
  2044a9:	0f b7 40 08          	movzwl 0x8(%rax),%eax
  2044ad:	48 0f bf c0          	movswq %ax,%rax
  2044b1:	48 01 c2             	add    %rax,%rdx
  2044b4:	48 8b 45 d8          	mov    -0x28(%rbp),%rax
  2044b8:	48 be 58 90 20 00 00 	mov    $0x209058,%rsi
  2044bf:	00 00 00 
  2044c2:	48 89 c7             	mov    %rax,%rdi
  2044c5:	b8 00 00 00 00       	mov    $0x0,%eax
  2044ca:	48 b9 94 3c 20 00 00 	mov    $0x203c94,%rcx
  2044d1:	00 00 00 
  2044d4:	ff d1                	callq  *%rcx
  2044d6:	eb 3a                	jmp    204512 <gen_operand+0x69f>
  2044d8:	48 8b 45 d8          	mov    -0x28(%rbp),%rax
  2044dc:	48 8b 90 b0 00 00 00 	mov    0xb0(%rax),%rdx
  2044e3:	48 8b 45 d0          	mov    -0x30(%rbp),%rax
  2044e7:	8b 40 08             	mov    0x8(%rax),%eax
  2044ea:	48 98                	cltq   
  2044ec:	48 01 c2             	add    %rax,%rdx
  2044ef:	48 8b 45 d8          	mov    -0x28(%rbp),%rax
  2044f3:	48 be 58 90 20 00 00 	mov    $0x209058,%rsi
  2044fa:	00 00 00 
  2044fd:	48 89 c7             	mov    %rax,%rdi
  204500:	b8 00 00 00 00       	mov    $0x0,%eax
  204505:	48 b9 94 3c 20 00 00 	mov    $0x203c94,%rcx
  20450c:	00 00 00 
  20450f:	ff d1                	callq  *%rcx
  204511:	90                   	nop
  204512:	e9 d6 00 00 00       	jmpq   2045ed <gen_operand+0x77a>
  204517:	48 8b 45 d0          	mov    -0x30(%rbp),%rax
  20451b:	0f b6 40 04          	movzbl 0x4(%rax),%eax
  20451f:	0f b6 c0             	movzbl %al,%eax
  204522:	83 f8 20             	cmp    $0x20,%eax
  204525:	74 0a                	je     204531 <gen_operand+0x6be>
  204527:	83 f8 30             	cmp    $0x30,%eax
  20452a:	74 3e                	je     20456a <gen_operand+0x6f7>
  20452c:	e9 bc 00 00 00       	jmpq   2045ed <gen_operand+0x77a>
  204531:	48 8b 45 d0          	mov    -0x30(%rbp),%rax
  204535:	8b 40 0c             	mov    0xc(%rax),%eax
  204538:	0f b7 c8             	movzwl %ax,%ecx
  20453b:	48 8b 45 d0          	mov    -0x30(%rbp),%rax
  20453f:	0f b7 40 08          	movzwl 0x8(%rax),%eax
  204543:	0f b7 d0             	movzwl %ax,%edx
  204546:	48 8b 45 d8          	mov    -0x28(%rbp),%rax
  20454a:	48 be 5e 90 20 00 00 	mov    $0x20905e,%rsi
  204551:	00 00 00 
  204554:	48 89 c7             	mov    %rax,%rdi
  204557:	b8 00 00 00 00       	mov    $0x0,%eax
  20455c:	48 bb 94 3c 20 00 00 	mov    $0x203c94,%rbx
  204563:	00 00 00 
  204566:	ff d3                	callq  *%rbx
  204568:	eb 35                	jmp    20459f <gen_operand+0x72c>
  20456a:	48 8b 45 d0          	mov    -0x30(%rbp),%rax
  20456e:	8b 48 0c             	mov    0xc(%rax),%ecx
  204571:	48 8b 45 d0          	mov    -0x30(%rbp),%rax
  204575:	0f b7 40 08          	movzwl 0x8(%rax),%eax
  204579:	0f b7 d0             	movzwl %ax,%edx
  20457c:	48 8b 45 d8          	mov    -0x28(%rbp),%rax
  204580:	48 be 6d 90 20 00 00 	mov    $0x20906d,%rsi
  204587:	00 00 00 
  20458a:	48 89 c7             	mov    %rax,%rdi
  20458d:	b8 00 00 00 00       	mov    $0x0,%eax
  204592:	48 bb 94 3c 20 00 00 	mov    $0x203c94,%rbx
  204599:	00 00 00 
  20459c:	ff d3                	callq  *%rbx
  20459e:	90                   	nop
  20459f:	eb 4c                	jmp    2045ed <gen_operand+0x77a>
  2045a1:	83 7d cc 00          	cmpl   $0x0,-0x34(%rbp)
  2045a5:	74 1a                	je     2045c1 <gen_operand+0x74e>
  2045a7:	48 8b 55 d0          	mov    -0x30(%rbp),%rdx
  2045ab:	48 8b 45 d8          	mov    -0x28(%rbp),%rax
  2045af:	48 89 d6             	mov    %rdx,%rsi
  2045b2:	48 89 c7             	mov    %rax,%rdi
  2045b5:	48 b8 10 3d 20 00 00 	mov    $0x203d10,%rax
  2045bc:	00 00 00 
  2045bf:	ff d0                	callq  *%rax
  2045c1:	48 8b 45 d0          	mov    -0x30(%rbp),%rax
  2045c5:	8b 50 08             	mov    0x8(%rax),%edx
  2045c8:	48 8b 45 d8          	mov    -0x28(%rbp),%rax
  2045cc:	48 be 7e 90 20 00 00 	mov    $0x20907e,%rsi
  2045d3:	00 00 00 
  2045d6:	48 89 c7             	mov    %rax,%rdi
  2045d9:	b8 00 00 00 00       	mov    $0x0,%eax
  2045de:	48 b9 94 3c 20 00 00 	mov    $0x203c94,%rcx
  2045e5:	00 00 00 
  2045e8:	ff d1                	callq  *%rcx
  2045ea:	eb 01                	jmp    2045ed <gen_operand+0x77a>
  2045ec:	90                   	nop
  2045ed:	48 83 c4 38          	add    $0x38,%rsp
  2045f1:	5b                   	pop    %rbx
  2045f2:	c9                   	leaveq 
  2045f3:	c3                   	retq   

00000000002045f4 <ud_translate_intel>:
  2045f4:	55                   	push   %rbp
  2045f5:	48 89 e5             	mov    %rsp,%rbp
  2045f8:	48 83 ec 10          	sub    $0x10,%rsp
  2045fc:	48 89 7d f8          	mov    %rdi,-0x8(%rbp)
  204600:	48 8b 45 f8          	mov    -0x8(%rbp),%rax
  204604:	48 8b 80 c0 00 00 00 	mov    0xc0(%rax),%rax
  20460b:	8b 40 1c             	mov    0x1c(%rax),%eax
  20460e:	83 e0 04             	and    $0x4,%eax
  204611:	85 c0                	test   %eax,%eax
  204613:	75 73                	jne    204688 <ud_translate_intel+0x94>
  204615:	48 8b 45 f8          	mov    -0x8(%rbp),%rax
  204619:	0f b6 80 33 01 00 00 	movzbl 0x133(%rax),%eax
  204620:	84 c0                	test   %al,%al
  204622:	74 64                	je     204688 <ud_translate_intel+0x94>
  204624:	48 8b 45 f8          	mov    -0x8(%rbp),%rax
  204628:	0f b6 80 ac 00 00 00 	movzbl 0xac(%rax),%eax
  20462f:	0f b6 c0             	movzbl %al,%eax
  204632:	83 f8 20             	cmp    $0x20,%eax
  204635:	74 2e                	je     204665 <ud_translate_intel+0x71>
  204637:	83 f8 40             	cmp    $0x40,%eax
  20463a:	74 29                	je     204665 <ud_translate_intel+0x71>
  20463c:	83 f8 10             	cmp    $0x10,%eax
  20463f:	75 47                	jne    204688 <ud_translate_intel+0x94>
  204641:	48 8b 45 f8          	mov    -0x8(%rbp),%rax
  204645:	48 be b8 90 20 00 00 	mov    $0x2090b8,%rsi
  20464c:	00 00 00 
  20464f:	48 89 c7             	mov    %rax,%rdi
  204652:	b8 00 00 00 00       	mov    $0x0,%eax
  204657:	48 ba 94 3c 20 00 00 	mov    $0x203c94,%rdx
  20465e:	00 00 00 
  204661:	ff d2                	callq  *%rdx
  204663:	eb 23                	jmp    204688 <ud_translate_intel+0x94>
  204665:	48 8b 45 f8          	mov    -0x8(%rbp),%rax
  204669:	48 be bd 90 20 00 00 	mov    $0x2090bd,%rsi
  204670:	00 00 00 
  204673:	48 89 c7             	mov    %rax,%rdi
  204676:	b8 00 00 00 00       	mov    $0x0,%eax
  20467b:	48 ba 94 3c 20 00 00 	mov    $0x203c94,%rdx
  204682:	00 00 00 
  204685:	ff d2                	callq  *%rdx
  204687:	90                   	nop
  204688:	48 8b 45 f8          	mov    -0x8(%rbp),%rax
  20468c:	48 8b 80 c0 00 00 00 	mov    0xc0(%rax),%rax
  204693:	8b 40 1c             	mov    0x1c(%rax),%eax
  204696:	83 e0 01             	and    $0x1,%eax
  204699:	85 c0                	test   %eax,%eax
  20469b:	0f 85 9b 00 00 00    	jne    20473c <ud_translate_intel+0x148>
  2046a1:	48 8b 45 f8          	mov    -0x8(%rbp),%rax
  2046a5:	0f b6 80 34 01 00 00 	movzbl 0x134(%rax),%eax
  2046ac:	84 c0                	test   %al,%al
  2046ae:	0f 84 88 00 00 00    	je     20473c <ud_translate_intel+0x148>
  2046b4:	48 8b 45 f8          	mov    -0x8(%rbp),%rax
  2046b8:	0f b6 80 ac 00 00 00 	movzbl 0xac(%rax),%eax
  2046bf:	0f b6 c0             	movzbl %al,%eax
  2046c2:	83 f8 20             	cmp    $0x20,%eax
  2046c5:	74 2e                	je     2046f5 <ud_translate_intel+0x101>
  2046c7:	83 f8 40             	cmp    $0x40,%eax
  2046ca:	74 4d                	je     204719 <ud_translate_intel+0x125>
  2046cc:	83 f8 10             	cmp    $0x10,%eax
  2046cf:	75 6b                	jne    20473c <ud_translate_intel+0x148>
  2046d1:	48 8b 45 f8          	mov    -0x8(%rbp),%rax
  2046d5:	48 be c2 90 20 00 00 	mov    $0x2090c2,%rsi
  2046dc:	00 00 00 
  2046df:	48 89 c7             	mov    %rax,%rdi
  2046e2:	b8 00 00 00 00       	mov    $0x0,%eax
  2046e7:	48 ba 94 3c 20 00 00 	mov    $0x203c94,%rdx
  2046ee:	00 00 00 
  2046f1:	ff d2                	callq  *%rdx
  2046f3:	eb 47                	jmp    20473c <ud_translate_intel+0x148>
  2046f5:	48 8b 45 f8          	mov    -0x8(%rbp),%rax
  2046f9:	48 be c7 90 20 00 00 	mov    $0x2090c7,%rsi
  204700:	00 00 00 
  204703:	48 89 c7             	mov    %rax,%rdi
  204706:	b8 00 00 00 00       	mov    $0x0,%eax
  20470b:	48 ba 94 3c 20 00 00 	mov    $0x203c94,%rdx
  204712:	00 00 00 
  204715:	ff d2                	callq  *%rdx
  204717:	eb 23                	jmp    20473c <ud_translate_intel+0x148>
  204719:	48 8b 45 f8          	mov    -0x8(%rbp),%rax
  20471d:	48 be c2 90 20 00 00 	mov    $0x2090c2,%rsi
  204724:	00 00 00 
  204727:	48 89 c7             	mov    %rax,%rdi
  20472a:	b8 00 00 00 00       	mov    $0x0,%eax
  20472f:	48 ba 94 3c 20 00 00 	mov    $0x203c94,%rdx
  204736:	00 00 00 
  204739:	ff d2                	callq  *%rdx
  20473b:	90                   	nop
  20473c:	48 8b 45 f8          	mov    -0x8(%rbp),%rax
  204740:	0f b6 80 35 01 00 00 	movzbl 0x135(%rax),%eax
  204747:	84 c0                	test   %al,%al
  204749:	74 22                	je     20476d <ud_translate_intel+0x179>
  20474b:	48 8b 45 f8          	mov    -0x8(%rbp),%rax
  20474f:	48 be cc 90 20 00 00 	mov    $0x2090cc,%rsi
  204756:	00 00 00 
  204759:	48 89 c7             	mov    %rax,%rdi
  20475c:	b8 00 00 00 00       	mov    $0x0,%eax
  204761:	48 ba 94 3c 20 00 00 	mov    $0x203c94,%rdx
  204768:	00 00 00 
  20476b:	ff d2                	callq  *%rdx
  20476d:	48 8b 45 f8          	mov    -0x8(%rbp),%rax
  204771:	0f b6 80 36 01 00 00 	movzbl 0x136(%rax),%eax
  204778:	84 c0                	test   %al,%al
  20477a:	74 22                	je     20479e <ud_translate_intel+0x1aa>
  20477c:	48 8b 45 f8          	mov    -0x8(%rbp),%rax
  204780:	48 be d2 90 20 00 00 	mov    $0x2090d2,%rsi
  204787:	00 00 00 
  20478a:	48 89 c7             	mov    %rax,%rdi
  20478d:	b8 00 00 00 00       	mov    $0x0,%eax
  204792:	48 ba 94 3c 20 00 00 	mov    $0x203c94,%rdx
  204799:	00 00 00 
  20479c:	ff d2                	callq  *%rdx
  20479e:	48 8b 45 f8          	mov    -0x8(%rbp),%rax
  2047a2:	0f b6 80 38 01 00 00 	movzbl 0x138(%rax),%eax
  2047a9:	84 c0                	test   %al,%al
  2047ab:	74 22                	je     2047cf <ud_translate_intel+0x1db>
  2047ad:	48 8b 45 f8          	mov    -0x8(%rbp),%rax
  2047b1:	48 be d7 90 20 00 00 	mov    $0x2090d7,%rsi
  2047b8:	00 00 00 
  2047bb:	48 89 c7             	mov    %rax,%rdi
  2047be:	b8 00 00 00 00       	mov    $0x0,%eax
  2047c3:	48 ba 94 3c 20 00 00 	mov    $0x203c94,%rdx
  2047ca:	00 00 00 
  2047cd:	ff d2                	callq  *%rdx
  2047cf:	48 8b 45 f8          	mov    -0x8(%rbp),%rax
  2047d3:	8b 80 c8 00 00 00    	mov    0xc8(%rax),%eax
  2047d9:	89 c7                	mov    %eax,%edi
  2047db:	48 b8 eb 57 20 00 00 	mov    $0x2057eb,%rax
  2047e2:	00 00 00 
  2047e5:	ff d0                	callq  *%rax
  2047e7:	48 89 c2             	mov    %rax,%rdx
  2047ea:	48 8b 45 f8          	mov    -0x8(%rbp),%rax
  2047ee:	48 be de 90 20 00 00 	mov    $0x2090de,%rsi
  2047f5:	00 00 00 
  2047f8:	48 89 c7             	mov    %rax,%rdi
  2047fb:	b8 00 00 00 00       	mov    $0x0,%eax
  204800:	48 b9 94 3c 20 00 00 	mov    $0x203c94,%rcx
  204807:	00 00 00 
  20480a:	ff d1                	callq  *%rcx
  20480c:	48 8b 45 f8          	mov    -0x8(%rbp),%rax
  204810:	8b 80 d0 00 00 00    	mov    0xd0(%rax),%eax
  204816:	85 c0                	test   %eax,%eax
  204818:	74 2f                	je     204849 <ud_translate_intel+0x255>
  20481a:	48 8b 45 f8          	mov    -0x8(%rbp),%rax
  20481e:	0f b6 80 3f 01 00 00 	movzbl 0x13f(%rax),%eax
  204825:	0f b6 d0             	movzbl %al,%edx
  204828:	48 8b 45 f8          	mov    -0x8(%rbp),%rax
  20482c:	48 8d 88 d0 00 00 00 	lea    0xd0(%rax),%rcx
  204833:	48 8b 45 f8          	mov    -0x8(%rbp),%rax
  204837:	48 89 ce             	mov    %rcx,%rsi
  20483a:	48 89 c7             	mov    %rax,%rdi
  20483d:	48 b8 73 3e 20 00 00 	mov    $0x203e73,%rax
  204844:	00 00 00 
  204847:	ff d0                	callq  *%rax
  204849:	48 8b 45 f8          	mov    -0x8(%rbp),%rax
  20484d:	8b 80 f0 00 00 00    	mov    0xf0(%rax),%eax
  204853:	85 c0                	test   %eax,%eax
  204855:	74 51                	je     2048a8 <ud_translate_intel+0x2b4>
  204857:	48 8b 45 f8          	mov    -0x8(%rbp),%rax
  20485b:	48 be e2 90 20 00 00 	mov    $0x2090e2,%rsi
  204862:	00 00 00 
  204865:	48 89 c7             	mov    %rax,%rdi
  204868:	b8 00 00 00 00       	mov    $0x0,%eax
  20486d:	48 ba 94 3c 20 00 00 	mov    $0x203c94,%rdx
  204874:	00 00 00 
  204877:	ff d2                	callq  *%rdx
  204879:	48 8b 45 f8          	mov    -0x8(%rbp),%rax
  20487d:	0f b6 80 40 01 00 00 	movzbl 0x140(%rax),%eax
  204884:	0f b6 d0             	movzbl %al,%edx
  204887:	48 8b 45 f8          	mov    -0x8(%rbp),%rax
  20488b:	48 8d 88 f0 00 00 00 	lea    0xf0(%rax),%rcx
  204892:	48 8b 45 f8          	mov    -0x8(%rbp),%rax
  204896:	48 89 ce             	mov    %rcx,%rsi
  204899:	48 89 c7             	mov    %rax,%rdi
  20489c:	48 b8 73 3e 20 00 00 	mov    $0x203e73,%rax
  2048a3:	00 00 00 
  2048a6:	ff d0                	callq  *%rax
  2048a8:	48 8b 45 f8          	mov    -0x8(%rbp),%rax
  2048ac:	8b 80 10 01 00 00    	mov    0x110(%rax),%eax
  2048b2:	85 c0                	test   %eax,%eax
  2048b4:	74 51                	je     204907 <ud_translate_intel+0x313>
  2048b6:	48 8b 45 f8          	mov    -0x8(%rbp),%rax
  2048ba:	48 be e2 90 20 00 00 	mov    $0x2090e2,%rsi
  2048c1:	00 00 00 
  2048c4:	48 89 c7             	mov    %rax,%rdi
  2048c7:	b8 00 00 00 00       	mov    $0x0,%eax
  2048cc:	48 ba 94 3c 20 00 00 	mov    $0x203c94,%rdx
  2048d3:	00 00 00 
  2048d6:	ff d2                	callq  *%rdx
  2048d8:	48 8b 45 f8          	mov    -0x8(%rbp),%rax
  2048dc:	0f b6 80 41 01 00 00 	movzbl 0x141(%rax),%eax
  2048e3:	0f b6 d0             	movzbl %al,%edx
  2048e6:	48 8b 45 f8          	mov    -0x8(%rbp),%rax
  2048ea:	48 8d 88 10 01 00 00 	lea    0x110(%rax),%rcx
  2048f1:	48 8b 45 f8          	mov    -0x8(%rbp),%rax
  2048f5:	48 89 ce             	mov    %rcx,%rsi
  2048f8:	48 89 c7             	mov    %rax,%rdi
  2048fb:	48 b8 73 3e 20 00 00 	mov    $0x203e73,%rax
  204902:	00 00 00 
  204905:	ff d0                	callq  *%rax
  204907:	c9                   	leaveq 
  204908:	c3                   	retq   
  204909:	00 00                	add    %al,(%rax)
	...

000000000020490c <ud_init>:
  20490c:	55                   	push   %rbp
  20490d:	48 89 e5             	mov    %rsp,%rbp
  204910:	48 83 ec 10          	sub    $0x10,%rsp
  204914:	48 89 7d f8          	mov    %rdi,-0x8(%rbp)
  204918:	48 8b 45 f8          	mov    -0x8(%rbp),%rax
  20491c:	ba 88 02 00 00       	mov    $0x288,%edx
  204921:	be 00 00 00 00       	mov    $0x0,%esi
  204926:	48 89 c7             	mov    %rax,%rdi
  204929:	48 b8 58 7f 20 00 00 	mov    $0x207f58,%rax
  204930:	00 00 00 
  204933:	ff d0                	callq  *%rax
  204935:	48 8b 45 f8          	mov    -0x8(%rbp),%rax
  204939:	be 10 00 00 00       	mov    $0x10,%esi
  20493e:	48 89 c7             	mov    %rax,%rdi
  204941:	48 b8 07 4a 20 00 00 	mov    $0x204a07,%rax
  204948:	00 00 00 
  20494b:	ff d0                	callq  *%rax
  20494d:	48 8b 45 f8          	mov    -0x8(%rbp),%rax
  204951:	c7 80 c8 00 00 00 15 	movl   $0x215,0xc8(%rax)
  204958:	02 00 00 
  20495b:	48 8b 45 f8          	mov    -0x8(%rbp),%rax
  20495f:	be 00 00 00 00       	mov    $0x0,%esi
  204964:	48 89 c7             	mov    %rax,%rdi
  204967:	48 b8 95 4a 20 00 00 	mov    $0x204a95,%rax
  20496e:	00 00 00 
  204971:	ff d0                	callq  *%rax
  204973:	c9                   	leaveq 
  204974:	c3                   	retq   

0000000000204975 <ud_disassemble>:
  204975:	55                   	push   %rbp
  204976:	48 89 e5             	mov    %rsp,%rbp
  204979:	48 83 ec 10          	sub    $0x10,%rsp
  20497d:	48 89 7d f8          	mov    %rdi,-0x8(%rbp)
  204981:	48 8b 45 f8          	mov    -0x8(%rbp),%rax
  204985:	48 89 c7             	mov    %rax,%rdi
  204988:	48 b8 62 38 20 00 00 	mov    $0x203862,%rax
  20498f:	00 00 00 
  204992:	ff d0                	callq  *%rax
  204994:	85 c0                	test   %eax,%eax
  204996:	74 07                	je     20499f <ud_disassemble+0x2a>
  204998:	b8 00 00 00 00       	mov    $0x0,%eax
  20499d:	eb 66                	jmp    204a05 <ud_disassemble+0x90>
  20499f:	48 8b 45 f8          	mov    -0x8(%rbp),%rax
  2049a3:	c6 40 48 00          	movb   $0x0,0x48(%rax)
  2049a7:	48 8b 45 f8          	mov    -0x8(%rbp),%rax
  2049ab:	0f b6 50 48          	movzbl 0x48(%rax),%edx
  2049af:	48 8b 45 f8          	mov    -0x8(%rbp),%rax
  2049b3:	88 50 68             	mov    %dl,0x68(%rax)
  2049b6:	48 8b 45 f8          	mov    -0x8(%rbp),%rax
  2049ba:	48 89 c7             	mov    %rax,%rdi
  2049bd:	48 b8 01 7e 20 00 00 	mov    $0x207e01,%rax
  2049c4:	00 00 00 
  2049c7:	ff d0                	callq  *%rax
  2049c9:	85 c0                	test   %eax,%eax
  2049cb:	75 07                	jne    2049d4 <ud_disassemble+0x5f>
  2049cd:	b8 00 00 00 00       	mov    $0x0,%eax
  2049d2:	eb 31                	jmp    204a05 <ud_disassemble+0x90>
  2049d4:	48 8b 45 f8          	mov    -0x8(%rbp),%rax
  2049d8:	48 8b 40 38          	mov    0x38(%rax),%rax
  2049dc:	48 85 c0             	test   %rax,%rax
  2049df:	74 11                	je     2049f2 <ud_disassemble+0x7d>
  2049e1:	48 8b 45 f8          	mov    -0x8(%rbp),%rax
  2049e5:	48 8b 50 38          	mov    0x38(%rax),%rdx
  2049e9:	48 8b 45 f8          	mov    -0x8(%rbp),%rax
  2049ed:	48 89 c7             	mov    %rax,%rdi
  2049f0:	ff d2                	callq  *%rdx
  2049f2:	48 8b 45 f8          	mov    -0x8(%rbp),%rax
  2049f6:	48 89 c7             	mov    %rax,%rdi
  2049f9:	48 b8 2e 4b 20 00 00 	mov    $0x204b2e,%rax
  204a00:	00 00 00 
  204a03:	ff d0                	callq  *%rax
  204a05:	c9                   	leaveq 
  204a06:	c3                   	retq   

0000000000204a07 <ud_set_mode>:
  204a07:	55                   	push   %rbp
  204a08:	48 89 e5             	mov    %rsp,%rbp
  204a0b:	48 83 ec 10          	sub    $0x10,%rsp
  204a0f:	48 89 7d f8          	mov    %rdi,-0x8(%rbp)
  204a13:	89 f0                	mov    %esi,%eax
  204a15:	88 45 f4             	mov    %al,-0xc(%rbp)
  204a18:	0f b6 45 f4          	movzbl -0xc(%rbp),%eax
  204a1c:	83 e8 10             	sub    $0x10,%eax
  204a1f:	83 f8 30             	cmp    $0x30,%eax
  204a22:	77 2e                	ja     204a52 <ud_set_mode+0x4b>
  204a24:	48 98                	cltq   
  204a26:	ba 01 00 00 00       	mov    $0x1,%edx
  204a2b:	89 c1                	mov    %eax,%ecx
  204a2d:	48 d3 e2             	shl    %cl,%rdx
  204a30:	48 b8 01 00 01 00 00 	mov    $0x1000000010001,%rax
  204a37:	00 01 00 
  204a3a:	48 21 d0             	and    %rdx,%rax
  204a3d:	48 85 c0             	test   %rax,%rax
  204a40:	74 10                	je     204a52 <ud_set_mode+0x4b>
  204a42:	48 8b 45 f8          	mov    -0x8(%rbp),%rax
  204a46:	0f b6 55 f4          	movzbl -0xc(%rbp),%edx
  204a4a:	88 90 ac 00 00 00    	mov    %dl,0xac(%rax)
  204a50:	eb 0c                	jmp    204a5e <ud_set_mode+0x57>
  204a52:	48 8b 45 f8          	mov    -0x8(%rbp),%rax
  204a56:	c6 80 ac 00 00 00 10 	movb   $0x10,0xac(%rax)
  204a5d:	90                   	nop
  204a5e:	c9                   	leaveq 
  204a5f:	c3                   	retq   

0000000000204a60 <ud_set_vendor>:
  204a60:	55                   	push   %rbp
  204a61:	48 89 e5             	mov    %rsp,%rbp
  204a64:	48 83 ec 10          	sub    $0x10,%rsp
  204a68:	48 89 7d f8          	mov    %rdi,-0x8(%rbp)
  204a6c:	89 75 f4             	mov    %esi,-0xc(%rbp)
  204a6f:	8b 45 f4             	mov    -0xc(%rbp),%eax
  204a72:	83 f8 01             	cmp    $0x1,%eax
  204a75:	75 11                	jne    204a88 <ud_set_vendor+0x28>
  204a77:	8b 45 f4             	mov    -0xc(%rbp),%eax
  204a7a:	89 c2                	mov    %eax,%edx
  204a7c:	48 8b 45 f8          	mov    -0x8(%rbp),%rax
  204a80:	88 90 b8 00 00 00    	mov    %dl,0xb8(%rax)
  204a86:	eb 0b                	jmp    204a93 <ud_set_vendor+0x33>
  204a88:	48 8b 45 f8          	mov    -0x8(%rbp),%rax
  204a8c:	c6 80 b8 00 00 00 00 	movb   $0x0,0xb8(%rax)
  204a93:	c9                   	leaveq 
  204a94:	c3                   	retq   

0000000000204a95 <ud_set_pc>:
  204a95:	55                   	push   %rbp
  204a96:	48 89 e5             	mov    %rsp,%rbp
  204a99:	48 83 ec 10          	sub    $0x10,%rsp
  204a9d:	48 89 7d f8          	mov    %rdi,-0x8(%rbp)
  204aa1:	48 89 75 f0          	mov    %rsi,-0x10(%rbp)
  204aa5:	48 8b 45 f8          	mov    -0x8(%rbp),%rax
  204aa9:	48 8b 55 f0          	mov    -0x10(%rbp),%rdx
  204aad:	48 89 90 b0 00 00 00 	mov    %rdx,0xb0(%rax)
  204ab4:	c9                   	leaveq 
  204ab5:	c3                   	retq   

0000000000204ab6 <ud_set_syntax>:
  204ab6:	55                   	push   %rbp
  204ab7:	48 89 e5             	mov    %rsp,%rbp
  204aba:	48 83 ec 10          	sub    $0x10,%rsp
  204abe:	48 89 7d f8          	mov    %rdi,-0x8(%rbp)
  204ac2:	48 89 75 f0          	mov    %rsi,-0x10(%rbp)
  204ac6:	48 8b 45 f8          	mov    -0x8(%rbp),%rax
  204aca:	48 8b 55 f0          	mov    -0x10(%rbp),%rdx
  204ace:	48 89 50 38          	mov    %rdx,0x38(%rax)
  204ad2:	c9                   	leaveq 
  204ad3:	c3                   	retq   

0000000000204ad4 <ud_insn_asm>:
  204ad4:	55                   	push   %rbp
  204ad5:	48 89 e5             	mov    %rsp,%rbp
  204ad8:	48 83 ec 08          	sub    $0x8,%rsp
  204adc:	48 89 7d f8          	mov    %rdi,-0x8(%rbp)
  204ae0:	48 8b 45 f8          	mov    -0x8(%rbp),%rax
  204ae4:	48 83 c0 68          	add    $0x68,%rax
  204ae8:	c9                   	leaveq 
  204ae9:	c3                   	retq   

0000000000204aea <ud_insn_off>:
  204aea:	55                   	push   %rbp
  204aeb:	48 89 e5             	mov    %rsp,%rbp
  204aee:	48 83 ec 08          	sub    $0x8,%rsp
  204af2:	48 89 7d f8          	mov    %rdi,-0x8(%rbp)
  204af6:	48 8b 45 f8          	mov    -0x8(%rbp),%rax
  204afa:	48 8b 40 40          	mov    0x40(%rax),%rax
  204afe:	c9                   	leaveq 
  204aff:	c3                   	retq   

0000000000204b00 <ud_insn_hex>:
  204b00:	55                   	push   %rbp
  204b01:	48 89 e5             	mov    %rsp,%rbp
  204b04:	48 83 ec 08          	sub    $0x8,%rsp
  204b08:	48 89 7d f8          	mov    %rdi,-0x8(%rbp)
  204b0c:	48 8b 45 f8          	mov    -0x8(%rbp),%rax
  204b10:	48 83 c0 48          	add    $0x48,%rax
  204b14:	c9                   	leaveq 
  204b15:	c3                   	retq   

0000000000204b16 <ud_insn_ptr>:
  204b16:	55                   	push   %rbp
  204b17:	48 89 e5             	mov    %rsp,%rbp
  204b1a:	48 83 ec 08          	sub    $0x8,%rsp
  204b1e:	48 89 7d f8          	mov    %rdi,-0x8(%rbp)
  204b22:	48 8b 45 f8          	mov    -0x8(%rbp),%rax
  204b26:	48 05 42 02 00 00    	add    $0x242,%rax
  204b2c:	c9                   	leaveq 
  204b2d:	c3                   	retq   

0000000000204b2e <ud_insn_len>:
  204b2e:	55                   	push   %rbp
  204b2f:	48 89 e5             	mov    %rsp,%rbp
  204b32:	48 83 ec 08          	sub    $0x8,%rsp
  204b36:	48 89 7d f8          	mov    %rdi,-0x8(%rbp)
  204b3a:	48 8b 45 f8          	mov    -0x8(%rbp),%rax
  204b3e:	0f b6 40 18          	movzbl 0x18(%rax),%eax
  204b42:	0f b6 c0             	movzbl %al,%eax
  204b45:	c9                   	leaveq 
  204b46:	c3                   	retq   
	...

0000000000204b48 <ud_me_db>:
  204b48:	55                   	push   %rbp
  204b49:	48 89 e5             	mov    %rsp,%rbp
  204b4c:	48 b8 40 22 22 00 00 	mov    $0x222240,%rax
  204b53:	00 00 00 
  204b56:	c9                   	leaveq 
  204b57:	c3                   	retq   

0000000000204b58 <ud_me_invalid>:
  204b58:	55                   	push   %rbp
  204b59:	48 89 e5             	mov    %rsp,%rbp
  204b5c:	48 b8 60 22 22 00 00 	mov    $0x222260,%rax
  204b63:	00 00 00 
  204b66:	c9                   	leaveq 
  204b67:	c3                   	retq   

0000000000204b68 <ud_map_get_3dnow>:
  204b68:	55                   	push   %rbp
  204b69:	48 89 e5             	mov    %rsp,%rbp
  204b6c:	48 83 ec 08          	sub    $0x8,%rsp
  204b70:	89 f8                	mov    %edi,%eax
  204b72:	88 45 fc             	mov    %al,-0x4(%rbp)
  204b75:	0f b6 45 fc          	movzbl -0x4(%rbp),%eax
  204b79:	83 e8 0c             	sub    $0xc,%eax
  204b7c:	3d b3 00 00 00       	cmp    $0xb3,%eax
  204b81:	0f 87 d7 00 00 00    	ja     204c5e <ud_map_get_3dnow+0xf6>
  204b87:	89 c0                	mov    %eax,%eax
  204b89:	48 8d 14 c5 00 00 00 	lea    0x0(,%rax,8),%rdx
  204b90:	00 
  204b91:	48 b8 e8 90 20 00 00 	mov    $0x2090e8,%rax
  204b98:	00 00 00 
  204b9b:	48 8d 04 02          	lea    (%rdx,%rax,1),%rax
  204b9f:	48 8b 00             	mov    (%rax),%rax
  204ba2:	ff e0                	jmpq   *%rax
  204ba4:	b8 77 01 00 00       	mov    $0x177,%eax
  204ba9:	e9 b5 00 00 00       	jmpq   204c63 <ud_map_get_3dnow+0xfb>
  204bae:	b8 76 01 00 00       	mov    $0x176,%eax
  204bb3:	e9 ab 00 00 00       	jmpq   204c63 <ud_map_get_3dnow+0xfb>
  204bb8:	b8 64 01 00 00       	mov    $0x164,%eax
  204bbd:	e9 a1 00 00 00       	jmpq   204c63 <ud_map_get_3dnow+0xfb>
  204bc2:	b8 63 01 00 00       	mov    $0x163,%eax
  204bc7:	e9 97 00 00 00       	jmpq   204c63 <ud_map_get_3dnow+0xfb>
  204bcc:	b8 6d 01 00 00       	mov    $0x16d,%eax
  204bd1:	e9 8d 00 00 00       	jmpq   204c63 <ud_map_get_3dnow+0xfb>
  204bd6:	b8 6e 01 00 00       	mov    $0x16e,%eax
  204bdb:	e9 83 00 00 00       	jmpq   204c63 <ud_map_get_3dnow+0xfb>
  204be0:	b8 68 01 00 00       	mov    $0x168,%eax
  204be5:	eb 7c                	jmp    204c63 <ud_map_get_3dnow+0xfb>
  204be7:	b8 6b 01 00 00       	mov    $0x16b,%eax
  204bec:	eb 75                	jmp    204c63 <ud_map_get_3dnow+0xfb>
  204bee:	b8 6f 01 00 00       	mov    $0x16f,%eax
  204bf3:	eb 6e                	jmp    204c63 <ud_map_get_3dnow+0xfb>
  204bf5:	b8 73 01 00 00       	mov    $0x173,%eax
  204bfa:	eb 67                	jmp    204c63 <ud_map_get_3dnow+0xfb>
  204bfc:	b8 74 01 00 00       	mov    $0x174,%eax
  204c01:	eb 60                	jmp    204c63 <ud_map_get_3dnow+0xfb>
  204c03:	b8 66 01 00 00       	mov    $0x166,%eax
  204c08:	eb 59                	jmp    204c63 <ud_map_get_3dnow+0xfb>
  204c0a:	b8 69 01 00 00       	mov    $0x169,%eax
  204c0f:	eb 52                	jmp    204c63 <ud_map_get_3dnow+0xfb>
  204c11:	b8 6a 01 00 00       	mov    $0x16a,%eax
  204c16:	eb 4b                	jmp    204c63 <ud_map_get_3dnow+0xfb>
  204c18:	b8 70 01 00 00       	mov    $0x170,%eax
  204c1d:	eb 44                	jmp    204c63 <ud_map_get_3dnow+0xfb>
  204c1f:	b8 72 01 00 00       	mov    $0x172,%eax
  204c24:	eb 3d                	jmp    204c63 <ud_map_get_3dnow+0xfb>
  204c26:	b8 75 01 00 00       	mov    $0x175,%eax
  204c2b:	eb 36                	jmp    204c63 <ud_map_get_3dnow+0xfb>
  204c2d:	b8 65 01 00 00       	mov    $0x165,%eax
  204c32:	eb 2f                	jmp    204c63 <ud_map_get_3dnow+0xfb>
  204c34:	b8 67 01 00 00       	mov    $0x167,%eax
  204c39:	eb 28                	jmp    204c63 <ud_map_get_3dnow+0xfb>
  204c3b:	b8 6c 01 00 00       	mov    $0x16c,%eax
  204c40:	eb 21                	jmp    204c63 <ud_map_get_3dnow+0xfb>
  204c42:	b8 71 01 00 00       	mov    $0x171,%eax
  204c47:	eb 1a                	jmp    204c63 <ud_map_get_3dnow+0xfb>
  204c49:	b8 7f 01 00 00       	mov    $0x17f,%eax
  204c4e:	eb 13                	jmp    204c63 <ud_map_get_3dnow+0xfb>
  204c50:	b8 a4 01 00 00       	mov    $0x1a4,%eax
  204c55:	eb 0c                	jmp    204c63 <ud_map_get_3dnow+0xfb>
  204c57:	b8 5a 01 00 00       	mov    $0x15a,%eax
  204c5c:	eb 05                	jmp    204c63 <ud_map_get_3dnow+0xfb>
  204c5e:	b8 00 00 00 00       	mov    $0x0,%eax
  204c63:	c9                   	leaveq 
  204c64:	c3                   	retq   

0000000000204c65 <search_1byte_insn>:
  204c65:	55                   	push   %rbp
  204c66:	48 89 e5             	mov    %rsp,%rbp
  204c69:	48 83 ec 20          	sub    $0x20,%rsp
  204c6d:	48 89 7d e8          	mov    %rdi,-0x18(%rbp)
  204c71:	48 8b 45 e8          	mov    -0x18(%rbp),%rax
  204c75:	0f b6 40 08          	movzbl 0x8(%rax),%eax
  204c79:	0f b6 c0             	movzbl %al,%eax
  204c7c:	48 8b 55 e8          	mov    -0x18(%rbp),%rdx
  204c80:	48 98                	cltq   
  204c82:	0f b6 84 02 42 01 00 	movzbl 0x142(%rdx,%rax,1),%eax
  204c89:	00 
  204c8a:	88 45 ff             	mov    %al,-0x1(%rbp)
  204c8d:	48 8b 45 e8          	mov    -0x18(%rbp),%rax
  204c91:	0f b6 80 30 01 00 00 	movzbl 0x130(%rax),%eax
  204c98:	84 c0                	test   %al,%al
  204c9a:	74 0a                	je     204ca6 <search_1byte_insn+0x41>
  204c9c:	b8 ff ff ff ff       	mov    $0xffffffff,%eax
  204ca1:	e9 9b 02 00 00       	jmpq   204f41 <search_1byte_insn+0x2dc>
  204ca6:	0f b6 45 ff          	movzbl -0x1(%rbp),%eax
  204caa:	48 89 c2             	mov    %rax,%rdx
  204cad:	48 c1 e2 05          	shl    $0x5,%rdx
  204cb1:	48 b8 e0 00 21 00 00 	mov    $0x2100e0,%rax
  204cb8:	00 00 00 
  204cbb:	48 01 c2             	add    %rax,%rdx
  204cbe:	48 8b 45 e8          	mov    -0x18(%rbp),%rax
  204cc2:	48 89 90 c0 00 00 00 	mov    %rdx,0xc0(%rax)
  204cc9:	48 8b 45 e8          	mov    -0x18(%rbp),%rax
  204ccd:	48 8b 80 c0 00 00 00 	mov    0xc0(%rax),%rax
  204cd4:	8b 00                	mov    (%rax),%eax
  204cd6:	3d 16 02 00 00       	cmp    $0x216,%eax
  204cdb:	0f 85 a3 00 00 00    	jne    204d84 <search_1byte_insn+0x11f>
  204ce1:	48 8b 45 e8          	mov    -0x18(%rbp),%rax
  204ce5:	48 89 c7             	mov    %rax,%rdi
  204ce8:	48 b8 e4 39 20 00 00 	mov    $0x2039e4,%rax
  204cef:	00 00 00 
  204cf2:	ff d0                	callq  *%rax
  204cf4:	88 45 fe             	mov    %al,-0x2(%rbp)
  204cf7:	48 8b 45 e8          	mov    -0x18(%rbp),%rax
  204cfb:	0f b6 80 30 01 00 00 	movzbl 0x130(%rax),%eax
  204d02:	84 c0                	test   %al,%al
  204d04:	74 0a                	je     204d10 <search_1byte_insn+0xab>
  204d06:	b8 ff ff ff ff       	mov    $0xffffffff,%eax
  204d0b:	e9 31 02 00 00       	jmpq   204f41 <search_1byte_insn+0x2dc>
  204d10:	48 8b 45 e8          	mov    -0x18(%rbp),%rax
  204d14:	48 8b 80 c0 00 00 00 	mov    0xc0(%rax),%rax
  204d1b:	8b 50 1c             	mov    0x1c(%rax),%edx
  204d1e:	48 b8 40 d1 21 00 00 	mov    $0x21d140,%rax
  204d25:	00 00 00 
  204d28:	89 d2                	mov    %edx,%edx
  204d2a:	48 c1 e2 05          	shl    $0x5,%rdx
  204d2e:	48 01 d0             	add    %rdx,%rax
  204d31:	48 8b 00             	mov    (%rax),%rax
  204d34:	0f b6 55 fe          	movzbl -0x2(%rbp),%edx
  204d38:	c0 ea 03             	shr    $0x3,%dl
  204d3b:	0f b6 d2             	movzbl %dl,%edx
  204d3e:	83 e2 07             	and    $0x7,%edx
  204d41:	48 c1 e2 05          	shl    $0x5,%rdx
  204d45:	48 8d 14 10          	lea    (%rax,%rdx,1),%rdx
  204d49:	48 8b 45 e8          	mov    -0x18(%rbp),%rax
  204d4d:	48 89 90 c0 00 00 00 	mov    %rdx,0xc0(%rax)
  204d54:	48 8b 45 e8          	mov    -0x18(%rbp),%rax
  204d58:	48 8b 80 c0 00 00 00 	mov    0xc0(%rax),%rax
  204d5f:	8b 00                	mov    (%rax),%eax
  204d61:	3d 15 02 00 00       	cmp    $0x215,%eax
  204d66:	0f 85 d0 01 00 00    	jne    204f3c <search_1byte_insn+0x2d7>
  204d6c:	48 8b 45 e8          	mov    -0x18(%rbp),%rax
  204d70:	48 89 c7             	mov    %rax,%rdi
  204d73:	48 b8 9c 38 20 00 00 	mov    $0x20389c,%rax
  204d7a:	00 00 00 
  204d7d:	ff d0                	callq  *%rax
  204d7f:	e9 b8 01 00 00       	jmpq   204f3c <search_1byte_insn+0x2d7>
  204d84:	80 7d ff 90          	cmpb   $0x90,-0x1(%rbp)
  204d88:	75 76                	jne    204e00 <search_1byte_insn+0x19b>
  204d8a:	48 8b 45 e8          	mov    -0x18(%rbp),%rax
  204d8e:	0f b6 80 ac 00 00 00 	movzbl 0xac(%rax),%eax
  204d95:	3c 40                	cmp    $0x40,%al
  204d97:	75 19                	jne    204db2 <search_1byte_insn+0x14d>
  204d99:	48 8b 45 e8          	mov    -0x18(%rbp),%rax
  204d9d:	0f b6 80 31 01 00 00 	movzbl 0x131(%rax),%eax
  204da4:	0f b6 c0             	movzbl %al,%eax
  204da7:	83 e0 01             	and    $0x1,%eax
  204daa:	85 c0                	test   %eax,%eax
  204dac:	0f 85 8a 01 00 00    	jne    204f3c <search_1byte_insn+0x2d7>
  204db2:	48 8b 45 e8          	mov    -0x18(%rbp),%rax
  204db6:	0f b6 80 36 01 00 00 	movzbl 0x136(%rax),%eax
  204dbd:	84 c0                	test   %al,%al
  204dbf:	74 25                	je     204de6 <search_1byte_insn+0x181>
  204dc1:	48 8b 45 e8          	mov    -0x18(%rbp),%rax
  204dc5:	48 ba 00 22 22 00 00 	mov    $0x222200,%rdx
  204dcc:	00 00 00 
  204dcf:	48 89 90 c0 00 00 00 	mov    %rdx,0xc0(%rax)
  204dd6:	48 8b 45 e8          	mov    -0x18(%rbp),%rax
  204dda:	c6 80 36 01 00 00 00 	movb   $0x0,0x136(%rax)
  204de1:	e9 56 01 00 00       	jmpq   204f3c <search_1byte_insn+0x2d7>
  204de6:	48 8b 45 e8          	mov    -0x18(%rbp),%rax
  204dea:	48 ba e0 21 22 00 00 	mov    $0x2221e0,%rdx
  204df1:	00 00 00 
  204df4:	48 89 90 c0 00 00 00 	mov    %rdx,0xc0(%rax)
  204dfb:	e9 3c 01 00 00       	jmpq   204f3c <search_1byte_insn+0x2d7>
  204e00:	48 8b 45 e8          	mov    -0x18(%rbp),%rax
  204e04:	48 8b 80 c0 00 00 00 	mov    0xc0(%rax),%rax
  204e0b:	8b 00                	mov    (%rax),%eax
  204e0d:	3d 1f 02 00 00       	cmp    $0x21f,%eax
  204e12:	0f 85 ee 00 00 00    	jne    204f06 <search_1byte_insn+0x2a1>
  204e18:	48 8b 45 e8          	mov    -0x18(%rbp),%rax
  204e1c:	48 89 c7             	mov    %rax,%rdi
  204e1f:	48 b8 e4 39 20 00 00 	mov    $0x2039e4,%rax
  204e26:	00 00 00 
  204e29:	ff d0                	callq  *%rax
  204e2b:	88 45 fd             	mov    %al,-0x3(%rbp)
  204e2e:	48 8b 45 e8          	mov    -0x18(%rbp),%rax
  204e32:	0f b6 80 30 01 00 00 	movzbl 0x130(%rax),%eax
  204e39:	84 c0                	test   %al,%al
  204e3b:	74 0a                	je     204e47 <search_1byte_insn+0x1e2>
  204e3d:	b8 ff ff ff ff       	mov    $0xffffffff,%eax
  204e42:	e9 fa 00 00 00       	jmpq   204f41 <search_1byte_insn+0x2dc>
  204e47:	80 7d fd bf          	cmpb   $0xbf,-0x3(%rbp)
  204e4b:	77 6b                	ja     204eb8 <search_1byte_insn+0x253>
  204e4d:	0f b6 45 ff          	movzbl -0x1(%rbp),%eax
  204e51:	8d 90 28 ff ff ff    	lea    -0xd8(%rax),%edx
  204e57:	48 b8 40 e0 21 00 00 	mov    $0x21e040,%rax
  204e5e:	00 00 00 
  204e61:	48 63 d2             	movslq %edx,%rdx
  204e64:	48 8b 04 d0          	mov    (%rax,%rdx,8),%rax
  204e68:	0f b6 55 fd          	movzbl -0x3(%rbp),%edx
  204e6c:	c0 ea 03             	shr    $0x3,%dl
  204e6f:	0f b6 d2             	movzbl %dl,%edx
  204e72:	83 e2 07             	and    $0x7,%edx
  204e75:	48 c1 e2 05          	shl    $0x5,%rdx
  204e79:	48 8d 14 10          	lea    (%rax,%rdx,1),%rdx
  204e7d:	48 8b 45 e8          	mov    -0x18(%rbp),%rax
  204e81:	48 89 90 c0 00 00 00 	mov    %rdx,0xc0(%rax)
  204e88:	48 8b 45 e8          	mov    -0x18(%rbp),%rax
  204e8c:	48 8b 80 c0 00 00 00 	mov    0xc0(%rax),%rax
  204e93:	8b 00                	mov    (%rax),%eax
  204e95:	3d 15 02 00 00       	cmp    $0x215,%eax
  204e9a:	0f 85 9c 00 00 00    	jne    204f3c <search_1byte_insn+0x2d7>
  204ea0:	48 8b 45 e8          	mov    -0x18(%rbp),%rax
  204ea4:	48 89 c7             	mov    %rax,%rdi
  204ea7:	48 b8 9c 38 20 00 00 	mov    $0x20389c,%rax
  204eae:	00 00 00 
  204eb1:	ff d0                	callq  *%rax
  204eb3:	e9 84 00 00 00       	jmpq   204f3c <search_1byte_insn+0x2d7>
  204eb8:	0f b6 45 ff          	movzbl -0x1(%rbp),%eax
  204ebc:	8d 90 28 ff ff ff    	lea    -0xd8(%rax),%edx
  204ec2:	48 b8 80 20 22 00 00 	mov    $0x222080,%rax
  204ec9:	00 00 00 
  204ecc:	48 63 d2             	movslq %edx,%rdx
  204ecf:	48 8b 04 d0          	mov    (%rax,%rdx,8),%rax
  204ed3:	0f b6 55 fd          	movzbl -0x3(%rbp),%edx
  204ed7:	48 81 ea c0 00 00 00 	sub    $0xc0,%rdx
  204ede:	48 c1 e2 05          	shl    $0x5,%rdx
  204ee2:	48 8d 14 10          	lea    (%rax,%rdx,1),%rdx
  204ee6:	48 8b 45 e8          	mov    -0x18(%rbp),%rax
  204eea:	48 89 90 c0 00 00 00 	mov    %rdx,0xc0(%rax)
  204ef1:	48 8b 45 e8          	mov    -0x18(%rbp),%rax
  204ef5:	48 89 c7             	mov    %rax,%rdi
  204ef8:	48 b8 9c 38 20 00 00 	mov    $0x20389c,%rax
  204eff:	00 00 00 
  204f02:	ff d0                	callq  *%rax
  204f04:	eb 36                	jmp    204f3c <search_1byte_insn+0x2d7>
  204f06:	48 8b 45 e8          	mov    -0x18(%rbp),%rax
  204f0a:	0f b6 80 ac 00 00 00 	movzbl 0xac(%rax),%eax
  204f11:	3c 40                	cmp    $0x40,%al
  204f13:	75 27                	jne    204f3c <search_1byte_insn+0x2d7>
  204f15:	48 8b 45 e8          	mov    -0x18(%rbp),%rax
  204f19:	48 8b 80 c0 00 00 00 	mov    0xc0(%rax),%rax
  204f20:	8b 00                	mov    (%rax),%eax
  204f22:	83 f8 0f             	cmp    $0xf,%eax
  204f25:	75 15                	jne    204f3c <search_1byte_insn+0x2d7>
  204f27:	48 8b 45 e8          	mov    -0x18(%rbp),%rax
  204f2b:	48 ba 20 22 22 00 00 	mov    $0x222220,%rdx
  204f32:	00 00 00 
  204f35:	48 89 90 c0 00 00 00 	mov    %rdx,0xc0(%rax)
  204f3c:	b8 00 00 00 00       	mov    $0x0,%eax
  204f41:	c9                   	leaveq 
  204f42:	c3                   	retq   

0000000000204f43 <search_2byte_insn>:
  204f43:	55                   	push   %rbp
  204f44:	48 89 e5             	mov    %rsp,%rbp
  204f47:	48 83 ec 20          	sub    $0x20,%rsp
  204f4b:	48 89 7d e8          	mov    %rdi,-0x18(%rbp)
  204f4f:	48 8b 45 e8          	mov    -0x18(%rbp),%rax
  204f53:	0f b6 80 30 01 00 00 	movzbl 0x130(%rax),%eax
  204f5a:	84 c0                	test   %al,%al
  204f5c:	74 0a                	je     204f68 <search_2byte_insn+0x25>
  204f5e:	b8 01 00 00 00       	mov    $0x1,%eax
  204f63:	e9 93 07 00 00       	jmpq   2056fb <search_2byte_insn+0x7b8>
  204f68:	48 8b 45 e8          	mov    -0x18(%rbp),%rax
  204f6c:	0f b6 40 08          	movzbl 0x8(%rax),%eax
  204f70:	0f b6 c0             	movzbl %al,%eax
  204f73:	48 8b 55 e8          	mov    -0x18(%rbp),%rdx
  204f77:	48 98                	cltq   
  204f79:	0f b6 84 02 42 01 00 	movzbl 0x142(%rdx,%rax,1),%eax
  204f80:	00 
  204f81:	88 45 ff             	mov    %al,-0x1(%rbp)
  204f84:	48 8b 45 e8          	mov    -0x18(%rbp),%rax
  204f88:	0f b6 80 39 01 00 00 	movzbl 0x139(%rax),%eax
  204f8f:	3c 66                	cmp    $0x66,%al
  204f91:	75 5f                	jne    204ff2 <search_2byte_insn+0xaf>
  204f93:	0f b6 45 ff          	movzbl -0x1(%rbp),%eax
  204f97:	48 89 c2             	mov    %rax,%rdx
  204f9a:	48 c1 e2 05          	shl    $0x5,%rdx
  204f9e:	48 b8 e0 60 21 00 00 	mov    $0x2160e0,%rax
  204fa5:	00 00 00 
  204fa8:	48 01 c2             	add    %rax,%rdx
  204fab:	48 8b 45 e8          	mov    -0x18(%rbp),%rax
  204faf:	48 89 90 c0 00 00 00 	mov    %rdx,0xc0(%rax)
  204fb6:	48 8b 45 e8          	mov    -0x18(%rbp),%rax
  204fba:	48 8b 80 c0 00 00 00 	mov    0xc0(%rax),%rax
  204fc1:	48 85 c0             	test   %rax,%rax
  204fc4:	0f 84 f0 00 00 00    	je     2050ba <search_2byte_insn+0x177>
  204fca:	48 8b 45 e8          	mov    -0x18(%rbp),%rax
  204fce:	48 8b 80 c0 00 00 00 	mov    0xc0(%rax),%rax
  204fd5:	8b 00                	mov    (%rax),%eax
  204fd7:	3d 44 02 00 00       	cmp    $0x244,%eax
  204fdc:	0f 84 d8 00 00 00    	je     2050ba <search_2byte_insn+0x177>
  204fe2:	48 8b 45 e8          	mov    -0x18(%rbp),%rax
  204fe6:	c6 80 33 01 00 00 00 	movb   $0x0,0x133(%rax)
  204fed:	e9 c8 00 00 00       	jmpq   2050ba <search_2byte_insn+0x177>
  204ff2:	48 8b 45 e8          	mov    -0x18(%rbp),%rax
  204ff6:	0f b6 80 39 01 00 00 	movzbl 0x139(%rax),%eax
  204ffd:	3c f2                	cmp    $0xf2,%al
  204fff:	75 58                	jne    205059 <search_2byte_insn+0x116>
  205001:	0f b6 45 ff          	movzbl -0x1(%rbp),%eax
  205005:	48 89 c2             	mov    %rax,%rdx
  205008:	48 c1 e2 05          	shl    $0x5,%rdx
  20500c:	48 b8 e0 80 21 00 00 	mov    $0x2180e0,%rax
  205013:	00 00 00 
  205016:	48 01 c2             	add    %rax,%rdx
  205019:	48 8b 45 e8          	mov    -0x18(%rbp),%rax
  20501d:	48 89 90 c0 00 00 00 	mov    %rdx,0xc0(%rax)
  205024:	48 8b 45 e8          	mov    -0x18(%rbp),%rax
  205028:	48 8b 80 c0 00 00 00 	mov    0xc0(%rax),%rax
  20502f:	48 85 c0             	test   %rax,%rax
  205032:	0f 84 82 00 00 00    	je     2050ba <search_2byte_insn+0x177>
  205038:	48 8b 45 e8          	mov    -0x18(%rbp),%rax
  20503c:	48 8b 80 c0 00 00 00 	mov    0xc0(%rax),%rax
  205043:	8b 00                	mov    (%rax),%eax
  205045:	3d 44 02 00 00       	cmp    $0x244,%eax
  20504a:	74 6e                	je     2050ba <search_2byte_insn+0x177>
  20504c:	48 8b 45 e8          	mov    -0x18(%rbp),%rax
  205050:	c6 80 38 01 00 00 00 	movb   $0x0,0x138(%rax)
  205057:	eb 61                	jmp    2050ba <search_2byte_insn+0x177>
  205059:	48 8b 45 e8          	mov    -0x18(%rbp),%rax
  20505d:	0f b6 80 39 01 00 00 	movzbl 0x139(%rax),%eax
  205064:	3c f3                	cmp    $0xf3,%al
  205066:	75 52                	jne    2050ba <search_2byte_insn+0x177>
  205068:	0f b6 45 ff          	movzbl -0x1(%rbp),%eax
  20506c:	48 89 c2             	mov    %rax,%rdx
  20506f:	48 c1 e2 05          	shl    $0x5,%rdx
  205073:	48 b8 e0 40 21 00 00 	mov    $0x2140e0,%rax
  20507a:	00 00 00 
  20507d:	48 01 c2             	add    %rax,%rdx
  205080:	48 8b 45 e8          	mov    -0x18(%rbp),%rax
  205084:	48 89 90 c0 00 00 00 	mov    %rdx,0xc0(%rax)
  20508b:	48 8b 45 e8          	mov    -0x18(%rbp),%rax
  20508f:	48 8b 80 c0 00 00 00 	mov    0xc0(%rax),%rax
  205096:	48 85 c0             	test   %rax,%rax
  205099:	74 1f                	je     2050ba <search_2byte_insn+0x177>
  20509b:	48 8b 45 e8          	mov    -0x18(%rbp),%rax
  20509f:	48 8b 80 c0 00 00 00 	mov    0xc0(%rax),%rax
  2050a6:	8b 00                	mov    (%rax),%eax
  2050a8:	3d 44 02 00 00       	cmp    $0x244,%eax
  2050ad:	74 0b                	je     2050ba <search_2byte_insn+0x177>
  2050af:	48 8b 45 e8          	mov    -0x18(%rbp),%rax
  2050b3:	c6 80 36 01 00 00 00 	movb   $0x0,0x136(%rax)
  2050ba:	48 8b 45 e8          	mov    -0x18(%rbp),%rax
  2050be:	48 8b 80 c0 00 00 00 	mov    0xc0(%rax),%rax
  2050c5:	48 85 c0             	test   %rax,%rax
  2050c8:	74 14                	je     2050de <search_2byte_insn+0x19b>
  2050ca:	48 8b 45 e8          	mov    -0x18(%rbp),%rax
  2050ce:	48 8b 80 c0 00 00 00 	mov    0xc0(%rax),%rax
  2050d5:	8b 00                	mov    (%rax),%eax
  2050d7:	3d 44 02 00 00       	cmp    $0x244,%eax
  2050dc:	75 23                	jne    205101 <search_2byte_insn+0x1be>
  2050de:	0f b6 45 ff          	movzbl -0x1(%rbp),%eax
  2050e2:	48 89 c2             	mov    %rax,%rdx
  2050e5:	48 c1 e2 05          	shl    $0x5,%rdx
  2050e9:	48 b8 e0 20 21 00 00 	mov    $0x2120e0,%rax
  2050f0:	00 00 00 
  2050f3:	48 01 c2             	add    %rax,%rdx
  2050f6:	48 8b 45 e8          	mov    -0x18(%rbp),%rax
  2050fa:	48 89 90 c0 00 00 00 	mov    %rdx,0xc0(%rax)
  205101:	48 8b 45 e8          	mov    -0x18(%rbp),%rax
  205105:	48 8b 80 c0 00 00 00 	mov    0xc0(%rax),%rax
  20510c:	8b 00                	mov    (%rax),%eax
  20510e:	3d 20 02 00 00       	cmp    $0x220,%eax
  205113:	75 15                	jne    20512a <search_2byte_insn+0x1e7>
  205115:	48 8b 45 e8          	mov    -0x18(%rbp),%rax
  205119:	48 ba c0 21 22 00 00 	mov    $0x2221c0,%rdx
  205120:	00 00 00 
  205123:	48 89 90 c0 00 00 00 	mov    %rdx,0xc0(%rax)
  20512a:	48 8b 45 e8          	mov    -0x18(%rbp),%rax
  20512e:	48 8b 80 c0 00 00 00 	mov    0xc0(%rax),%rax
  205135:	8b 00                	mov    (%rax),%eax
  205137:	3d 16 02 00 00       	cmp    $0x216,%eax
  20513c:	74 0a                	je     205148 <search_2byte_insn+0x205>
  20513e:	b8 00 00 00 00       	mov    $0x0,%eax
  205143:	e9 b3 05 00 00       	jmpq   2056fb <search_2byte_insn+0x7b8>
  205148:	48 8b 45 e8          	mov    -0x18(%rbp),%rax
  20514c:	48 8b 80 c0 00 00 00 	mov    0xc0(%rax),%rax
  205153:	8b 50 1c             	mov    0x1c(%rax),%edx
  205156:	48 8b 45 e8          	mov    -0x18(%rbp),%rax
  20515a:	0f b6 80 b8 00 00 00 	movzbl 0xb8(%rax),%eax
  205161:	3c 01                	cmp    $0x1,%al
  205163:	75 07                	jne    20516c <search_2byte_insn+0x229>
  205165:	b8 1c 00 00 00       	mov    $0x1c,%eax
  20516a:	eb 05                	jmp    205171 <search_2byte_insn+0x22e>
  20516c:	b8 00 00 00 00       	mov    $0x0,%eax
  205171:	8d 04 02             	lea    (%rdx,%rax,1),%eax
  205174:	89 45 f8             	mov    %eax,-0x8(%rbp)
  205177:	48 8b 45 e8          	mov    -0x18(%rbp),%rax
  20517b:	48 89 c7             	mov    %rax,%rdi
  20517e:	48 b8 e4 39 20 00 00 	mov    $0x2039e4,%rax
  205185:	00 00 00 
  205188:	ff d0                	callq  *%rax
  20518a:	88 45 f7             	mov    %al,-0x9(%rbp)
  20518d:	48 8b 45 e8          	mov    -0x18(%rbp),%rax
  205191:	0f b6 80 30 01 00 00 	movzbl 0x130(%rax),%eax
  205198:	84 c0                	test   %al,%al
  20519a:	74 0a                	je     2051a6 <search_2byte_insn+0x263>
  20519c:	b8 ff ff ff ff       	mov    $0xffffffff,%eax
  2051a1:	e9 55 05 00 00       	jmpq   2056fb <search_2byte_insn+0x7b8>
  2051a6:	48 8b 45 e8          	mov    -0x18(%rbp),%rax
  2051aa:	0f b6 80 39 01 00 00 	movzbl 0x139(%rax),%eax
  2051b1:	3c 66                	cmp    $0x66,%al
  2051b3:	0f 85 96 00 00 00    	jne    20524f <search_2byte_insn+0x30c>
  2051b9:	48 b8 40 d1 21 00 00 	mov    $0x21d140,%rax
  2051c0:	00 00 00 
  2051c3:	8b 55 f8             	mov    -0x8(%rbp),%edx
  2051c6:	48 c1 e2 05          	shl    $0x5,%rdx
  2051ca:	48 01 d0             	add    %rdx,%rax
  2051cd:	48 8b 40 08          	mov    0x8(%rax),%rax
  2051d1:	48 85 c0             	test   %rax,%rax
  2051d4:	74 79                	je     20524f <search_2byte_insn+0x30c>
  2051d6:	48 b8 40 d1 21 00 00 	mov    $0x21d140,%rax
  2051dd:	00 00 00 
  2051e0:	8b 55 f8             	mov    -0x8(%rbp),%edx
  2051e3:	48 c1 e2 05          	shl    $0x5,%rdx
  2051e7:	48 01 d0             	add    %rdx,%rax
  2051ea:	48 8b 40 08          	mov    0x8(%rax),%rax
  2051ee:	0f b6 55 f7          	movzbl -0x9(%rbp),%edx
  2051f2:	c0 ea 03             	shr    $0x3,%dl
  2051f5:	0f b6 d2             	movzbl %dl,%edx
  2051f8:	83 e2 07             	and    $0x7,%edx
  2051fb:	48 c1 e2 05          	shl    $0x5,%rdx
  2051ff:	48 8d 14 10          	lea    (%rax,%rdx,1),%rdx
  205203:	48 8b 45 e8          	mov    -0x18(%rbp),%rax
  205207:	48 89 90 c0 00 00 00 	mov    %rdx,0xc0(%rax)
  20520e:	48 8b 45 e8          	mov    -0x18(%rbp),%rax
  205212:	48 8b 80 c0 00 00 00 	mov    0xc0(%rax),%rax
  205219:	48 85 c0             	test   %rax,%rax
  20521c:	0f 84 89 01 00 00    	je     2053ab <search_2byte_insn+0x468>
  205222:	48 8b 45 e8          	mov    -0x18(%rbp),%rax
  205226:	48 8b 80 c0 00 00 00 	mov    0xc0(%rax),%rax
  20522d:	8b 00                	mov    (%rax),%eax
  20522f:	3d 44 02 00 00       	cmp    $0x244,%eax
  205234:	0f 84 6d 01 00 00    	je     2053a7 <search_2byte_insn+0x464>
  20523a:	48 8b 45 e8          	mov    -0x18(%rbp),%rax
  20523e:	c6 80 33 01 00 00 00 	movb   $0x0,0x133(%rax)
  205245:	b8 00 00 00 00       	mov    $0x0,%eax
  20524a:	e9 ac 04 00 00       	jmpq   2056fb <search_2byte_insn+0x7b8>
  20524f:	48 8b 45 e8          	mov    -0x18(%rbp),%rax
  205253:	0f b6 80 39 01 00 00 	movzbl 0x139(%rax),%eax
  20525a:	3c f2                	cmp    $0xf2,%al
  20525c:	0f 85 9c 00 00 00    	jne    2052fe <search_2byte_insn+0x3bb>
  205262:	48 b8 40 d1 21 00 00 	mov    $0x21d140,%rax
  205269:	00 00 00 
  20526c:	8b 55 f8             	mov    -0x8(%rbp),%edx
  20526f:	48 c1 e2 05          	shl    $0x5,%rdx
  205273:	48 01 d0             	add    %rdx,%rax
  205276:	48 83 c0 10          	add    $0x10,%rax
  20527a:	48 8b 00             	mov    (%rax),%rax
  20527d:	48 85 c0             	test   %rax,%rax
  205280:	74 7c                	je     2052fe <search_2byte_insn+0x3bb>
  205282:	48 b8 40 d1 21 00 00 	mov    $0x21d140,%rax
  205289:	00 00 00 
  20528c:	8b 55 f8             	mov    -0x8(%rbp),%edx
  20528f:	48 c1 e2 05          	shl    $0x5,%rdx
  205293:	48 01 d0             	add    %rdx,%rax
  205296:	48 83 c0 10          	add    $0x10,%rax
  20529a:	48 8b 00             	mov    (%rax),%rax
  20529d:	0f b6 55 f7          	movzbl -0x9(%rbp),%edx
  2052a1:	c0 ea 03             	shr    $0x3,%dl
  2052a4:	0f b6 d2             	movzbl %dl,%edx
  2052a7:	83 e2 07             	and    $0x7,%edx
  2052aa:	48 c1 e2 05          	shl    $0x5,%rdx
  2052ae:	48 8d 14 10          	lea    (%rax,%rdx,1),%rdx
  2052b2:	48 8b 45 e8          	mov    -0x18(%rbp),%rax
  2052b6:	48 89 90 c0 00 00 00 	mov    %rdx,0xc0(%rax)
  2052bd:	48 8b 45 e8          	mov    -0x18(%rbp),%rax
  2052c1:	48 8b 80 c0 00 00 00 	mov    0xc0(%rax),%rax
  2052c8:	48 85 c0             	test   %rax,%rax
  2052cb:	0f 84 da 00 00 00    	je     2053ab <search_2byte_insn+0x468>
  2052d1:	48 8b 45 e8          	mov    -0x18(%rbp),%rax
  2052d5:	48 8b 80 c0 00 00 00 	mov    0xc0(%rax),%rax
  2052dc:	8b 00                	mov    (%rax),%eax
  2052de:	3d 44 02 00 00       	cmp    $0x244,%eax
  2052e3:	0f 84 c1 00 00 00    	je     2053aa <search_2byte_insn+0x467>
  2052e9:	48 8b 45 e8          	mov    -0x18(%rbp),%rax
  2052ed:	c6 80 38 01 00 00 00 	movb   $0x0,0x138(%rax)
  2052f4:	b8 00 00 00 00       	mov    $0x0,%eax
  2052f9:	e9 fd 03 00 00       	jmpq   2056fb <search_2byte_insn+0x7b8>
  2052fe:	48 8b 45 e8          	mov    -0x18(%rbp),%rax
  205302:	0f b6 80 39 01 00 00 	movzbl 0x139(%rax),%eax
  205309:	3c f3                	cmp    $0xf3,%al
  20530b:	0f 85 9a 00 00 00    	jne    2053ab <search_2byte_insn+0x468>
  205311:	48 b8 40 d1 21 00 00 	mov    $0x21d140,%rax
  205318:	00 00 00 
  20531b:	8b 55 f8             	mov    -0x8(%rbp),%edx
  20531e:	48 c1 e2 05          	shl    $0x5,%rdx
  205322:	48 01 d0             	add    %rdx,%rax
  205325:	48 83 c0 10          	add    $0x10,%rax
  205329:	48 8b 40 08          	mov    0x8(%rax),%rax
  20532d:	48 85 c0             	test   %rax,%rax
  205330:	74 79                	je     2053ab <search_2byte_insn+0x468>
  205332:	48 b8 40 d1 21 00 00 	mov    $0x21d140,%rax
  205339:	00 00 00 
  20533c:	8b 55 f8             	mov    -0x8(%rbp),%edx
  20533f:	48 c1 e2 05          	shl    $0x5,%rdx
  205343:	48 01 d0             	add    %rdx,%rax
  205346:	48 83 c0 10          	add    $0x10,%rax
  20534a:	48 8b 40 08          	mov    0x8(%rax),%rax
  20534e:	0f b6 55 f7          	movzbl -0x9(%rbp),%edx
  205352:	c0 ea 03             	shr    $0x3,%dl
  205355:	0f b6 d2             	movzbl %dl,%edx
  205358:	83 e2 07             	and    $0x7,%edx
  20535b:	48 c1 e2 05          	shl    $0x5,%rdx
  20535f:	48 8d 14 10          	lea    (%rax,%rdx,1),%rdx
  205363:	48 8b 45 e8          	mov    -0x18(%rbp),%rax
  205367:	48 89 90 c0 00 00 00 	mov    %rdx,0xc0(%rax)
  20536e:	48 8b 45 e8          	mov    -0x18(%rbp),%rax
  205372:	48 8b 80 c0 00 00 00 	mov    0xc0(%rax),%rax
  205379:	48 85 c0             	test   %rax,%rax
  20537c:	74 2d                	je     2053ab <search_2byte_insn+0x468>
  20537e:	48 8b 45 e8          	mov    -0x18(%rbp),%rax
  205382:	48 8b 80 c0 00 00 00 	mov    0xc0(%rax),%rax
  205389:	8b 00                	mov    (%rax),%eax
  20538b:	3d 44 02 00 00       	cmp    $0x244,%eax
  205390:	74 19                	je     2053ab <search_2byte_insn+0x468>
  205392:	48 8b 45 e8          	mov    -0x18(%rbp),%rax
  205396:	c6 80 36 01 00 00 00 	movb   $0x0,0x136(%rax)
  20539d:	b8 00 00 00 00       	mov    $0x0,%eax
  2053a2:	e9 54 03 00 00       	jmpq   2056fb <search_2byte_insn+0x7b8>
  2053a7:	90                   	nop
  2053a8:	eb 01                	jmp    2053ab <search_2byte_insn+0x468>
  2053aa:	90                   	nop
  2053ab:	48 8b 45 e8          	mov    -0x18(%rbp),%rax
  2053af:	0f b6 80 39 01 00 00 	movzbl 0x139(%rax),%eax
  2053b6:	84 c0                	test   %al,%al
  2053b8:	74 14                	je     2053ce <search_2byte_insn+0x48b>
  2053ba:	48 8b 45 e8          	mov    -0x18(%rbp),%rax
  2053be:	48 8b 80 c0 00 00 00 	mov    0xc0(%rax),%rax
  2053c5:	8b 00                	mov    (%rax),%eax
  2053c7:	3d 16 02 00 00       	cmp    $0x216,%eax
  2053cc:	75 37                	jne    205405 <search_2byte_insn+0x4c2>
  2053ce:	48 b8 40 d1 21 00 00 	mov    $0x21d140,%rax
  2053d5:	00 00 00 
  2053d8:	8b 55 f8             	mov    -0x8(%rbp),%edx
  2053db:	48 c1 e2 05          	shl    $0x5,%rdx
  2053df:	48 01 d0             	add    %rdx,%rax
  2053e2:	48 8b 00             	mov    (%rax),%rax
  2053e5:	0f b6 55 f7          	movzbl -0x9(%rbp),%edx
  2053e9:	c0 ea 03             	shr    $0x3,%dl
  2053ec:	0f b6 d2             	movzbl %dl,%edx
  2053ef:	83 e2 07             	and    $0x7,%edx
  2053f2:	48 c1 e2 05          	shl    $0x5,%rdx
  2053f6:	48 8d 14 10          	lea    (%rax,%rdx,1),%rdx
  2053fa:	48 8b 45 e8          	mov    -0x18(%rbp),%rax
  2053fe:	48 89 90 c0 00 00 00 	mov    %rdx,0xc0(%rax)
  205405:	80 7d ff 01          	cmpb   $0x1,-0x1(%rbp)
  205409:	0f 85 e8 01 00 00    	jne    2055f7 <search_2byte_insn+0x6b4>
  20540f:	0f b6 45 f7          	movzbl -0x9(%rbp),%eax
  205413:	c0 e8 03             	shr    $0x3,%al
  205416:	83 e0 07             	and    $0x7,%eax
  205419:	88 45 f6             	mov    %al,-0xa(%rbp)
  20541c:	0f b6 45 f7          	movzbl -0x9(%rbp),%eax
  205420:	c0 e8 06             	shr    $0x6,%al
  205423:	88 45 f5             	mov    %al,-0xb(%rbp)
  205426:	0f b6 45 f7          	movzbl -0x9(%rbp),%eax
  20542a:	83 e0 07             	and    $0x7,%eax
  20542d:	88 45 f4             	mov    %al,-0xc(%rbp)
  205430:	80 7d f6 00          	cmpb   $0x0,-0xa(%rbp)
  205434:	75 50                	jne    205486 <search_2byte_insn+0x543>
  205436:	80 7d f5 03          	cmpb   $0x3,-0xb(%rbp)
  20543a:	75 4a                	jne    205486 <search_2byte_insn+0x543>
  20543c:	48 8b 45 e8          	mov    -0x18(%rbp),%rax
  205440:	0f b6 80 b8 00 00 00 	movzbl 0xb8(%rax),%eax
  205447:	3c 01                	cmp    $0x1,%al
  205449:	75 3b                	jne    205486 <search_2byte_insn+0x543>
  20544b:	0f b6 45 f4          	movzbl -0xc(%rbp),%eax
  20544f:	48 89 c2             	mov    %rax,%rdx
  205452:	48 c1 e2 05          	shl    $0x5,%rdx
  205456:	48 b8 e0 b4 21 00 00 	mov    $0x21b4e0,%rax
  20545d:	00 00 00 
  205460:	48 01 c2             	add    %rax,%rdx
  205463:	48 8b 45 e8          	mov    -0x18(%rbp),%rax
  205467:	48 89 90 c0 00 00 00 	mov    %rdx,0xc0(%rax)
  20546e:	48 8b 45 e8          	mov    -0x18(%rbp),%rax
  205472:	48 89 c7             	mov    %rax,%rdi
  205475:	48 b8 9c 38 20 00 00 	mov    $0x20389c,%rax
  20547c:	00 00 00 
  20547f:	ff d0                	callq  *%rax
  205481:	e9 5a 02 00 00       	jmpq   2056e0 <search_2byte_insn+0x79d>
  205486:	80 7d f6 01          	cmpb   $0x1,-0xa(%rbp)
  20548a:	75 50                	jne    2054dc <search_2byte_insn+0x599>
  20548c:	80 7d f5 03          	cmpb   $0x3,-0xb(%rbp)
  205490:	75 4a                	jne    2054dc <search_2byte_insn+0x599>
  205492:	48 8b 45 e8          	mov    -0x18(%rbp),%rax
  205496:	0f b6 80 b8 00 00 00 	movzbl 0xb8(%rax),%eax
  20549d:	3c 01                	cmp    $0x1,%al
  20549f:	75 3b                	jne    2054dc <search_2byte_insn+0x599>
  2054a1:	0f b6 45 f4          	movzbl -0xc(%rbp),%eax
  2054a5:	48 89 c2             	mov    %rax,%rdx
  2054a8:	48 c1 e2 05          	shl    $0x5,%rdx
  2054ac:	48 b8 e0 b5 21 00 00 	mov    $0x21b5e0,%rax
  2054b3:	00 00 00 
  2054b6:	48 01 c2             	add    %rax,%rdx
  2054b9:	48 8b 45 e8          	mov    -0x18(%rbp),%rax
  2054bd:	48 89 90 c0 00 00 00 	mov    %rdx,0xc0(%rax)
  2054c4:	48 8b 45 e8          	mov    -0x18(%rbp),%rax
  2054c8:	48 89 c7             	mov    %rax,%rdi
  2054cb:	48 b8 9c 38 20 00 00 	mov    $0x20389c,%rax
  2054d2:	00 00 00 
  2054d5:	ff d0                	callq  *%rax
  2054d7:	e9 04 02 00 00       	jmpq   2056e0 <search_2byte_insn+0x79d>
  2054dc:	80 7d f6 03          	cmpb   $0x3,-0xa(%rbp)
  2054e0:	75 50                	jne    205532 <search_2byte_insn+0x5ef>
  2054e2:	80 7d f5 03          	cmpb   $0x3,-0xb(%rbp)
  2054e6:	75 4a                	jne    205532 <search_2byte_insn+0x5ef>
  2054e8:	48 8b 45 e8          	mov    -0x18(%rbp),%rax
  2054ec:	0f b6 80 b8 00 00 00 	movzbl 0xb8(%rax),%eax
  2054f3:	3c 01                	cmp    $0x1,%al
  2054f5:	74 3b                	je     205532 <search_2byte_insn+0x5ef>
  2054f7:	0f b6 45 f4          	movzbl -0xc(%rbp),%eax
  2054fb:	48 89 c2             	mov    %rax,%rdx
  2054fe:	48 c1 e2 05          	shl    $0x5,%rdx
  205502:	48 b8 e0 b3 21 00 00 	mov    $0x21b3e0,%rax
  205509:	00 00 00 
  20550c:	48 01 c2             	add    %rax,%rdx
  20550f:	48 8b 45 e8          	mov    -0x18(%rbp),%rax
  205513:	48 89 90 c0 00 00 00 	mov    %rdx,0xc0(%rax)
  20551a:	48 8b 45 e8          	mov    -0x18(%rbp),%rax
  20551e:	48 89 c7             	mov    %rax,%rdi
  205521:	48 b8 9c 38 20 00 00 	mov    $0x20389c,%rax
  205528:	00 00 00 
  20552b:	ff d0                	callq  *%rax
  20552d:	e9 ae 01 00 00       	jmpq   2056e0 <search_2byte_insn+0x79d>
  205532:	80 7d f6 07          	cmpb   $0x7,-0xa(%rbp)
  205536:	75 50                	jne    205588 <search_2byte_insn+0x645>
  205538:	80 7d f5 03          	cmpb   $0x3,-0xb(%rbp)
  20553c:	75 4a                	jne    205588 <search_2byte_insn+0x645>
  20553e:	48 8b 45 e8          	mov    -0x18(%rbp),%rax
  205542:	0f b6 80 b8 00 00 00 	movzbl 0xb8(%rax),%eax
  205549:	3c 01                	cmp    $0x1,%al
  20554b:	75 3b                	jne    205588 <search_2byte_insn+0x645>
  20554d:	0f b6 45 f4          	movzbl -0xc(%rbp),%eax
  205551:	48 89 c2             	mov    %rax,%rdx
  205554:	48 c1 e2 05          	shl    $0x5,%rdx
  205558:	48 b8 e0 b2 21 00 00 	mov    $0x21b2e0,%rax
  20555f:	00 00 00 
  205562:	48 01 c2             	add    %rax,%rdx
  205565:	48 8b 45 e8          	mov    -0x18(%rbp),%rax
  205569:	48 89 90 c0 00 00 00 	mov    %rdx,0xc0(%rax)
  205570:	48 8b 45 e8          	mov    -0x18(%rbp),%rax
  205574:	48 89 c7             	mov    %rax,%rdi
  205577:	48 b8 9c 38 20 00 00 	mov    $0x20389c,%rax
  20557e:	00 00 00 
  205581:	ff d0                	callq  *%rax
  205583:	e9 58 01 00 00       	jmpq   2056e0 <search_2byte_insn+0x79d>
  205588:	80 7d f6 07          	cmpb   $0x7,-0xa(%rbp)
  20558c:	75 41                	jne    2055cf <search_2byte_insn+0x68c>
  20558e:	80 7d f5 03          	cmpb   $0x3,-0xb(%rbp)
  205592:	75 3b                	jne    2055cf <search_2byte_insn+0x68c>
  205594:	0f b6 45 f4          	movzbl -0xc(%rbp),%eax
  205598:	48 89 c2             	mov    %rax,%rdx
  20559b:	48 c1 e2 05          	shl    $0x5,%rdx
  20559f:	48 b8 e0 b1 21 00 00 	mov    $0x21b1e0,%rax
  2055a6:	00 00 00 
  2055a9:	48 01 c2             	add    %rax,%rdx
  2055ac:	48 8b 45 e8          	mov    -0x18(%rbp),%rax
  2055b0:	48 89 90 c0 00 00 00 	mov    %rdx,0xc0(%rax)
  2055b7:	48 8b 45 e8          	mov    -0x18(%rbp),%rax
  2055bb:	48 89 c7             	mov    %rax,%rdi
  2055be:	48 b8 9c 38 20 00 00 	mov    $0x20389c,%rax
  2055c5:	00 00 00 
  2055c8:	ff d0                	callq  *%rax
  2055ca:	e9 11 01 00 00       	jmpq   2056e0 <search_2byte_insn+0x79d>
  2055cf:	0f b6 45 f6          	movzbl -0xa(%rbp),%eax
  2055d3:	48 89 c2             	mov    %rax,%rdx
  2055d6:	48 c1 e2 05          	shl    $0x5,%rdx
  2055da:	48 b8 e0 b0 21 00 00 	mov    $0x21b0e0,%rax
  2055e1:	00 00 00 
  2055e4:	48 01 c2             	add    %rax,%rdx
  2055e7:	48 8b 45 e8          	mov    -0x18(%rbp),%rax
  2055eb:	48 89 90 c0 00 00 00 	mov    %rdx,0xc0(%rax)
  2055f2:	e9 e9 00 00 00       	jmpq   2056e0 <search_2byte_insn+0x79d>
  2055f7:	80 7d ff ae          	cmpb   $0xae,-0x1(%rbp)
  2055fb:	0f 85 df 00 00 00    	jne    2056e0 <search_2byte_insn+0x79d>
  205601:	0f b6 45 f7          	movzbl -0x9(%rbp),%eax
  205605:	c0 e8 03             	shr    $0x3,%al
  205608:	83 e0 07             	and    $0x7,%eax
  20560b:	88 45 f3             	mov    %al,-0xd(%rbp)
  20560e:	0f b6 45 f7          	movzbl -0x9(%rbp),%eax
  205612:	c0 e8 06             	shr    $0x6,%al
  205615:	88 45 f2             	mov    %al,-0xe(%rbp)
  205618:	80 7d f3 05          	cmpb   $0x5,-0xd(%rbp)
  20561c:	75 33                	jne    205651 <search_2byte_insn+0x70e>
  20561e:	80 7d f2 03          	cmpb   $0x3,-0xe(%rbp)
  205622:	75 2d                	jne    205651 <search_2byte_insn+0x70e>
  205624:	48 8b 45 e8          	mov    -0x18(%rbp),%rax
  205628:	48 ba e0 ce 21 00 00 	mov    $0x21cee0,%rdx
  20562f:	00 00 00 
  205632:	48 89 90 c0 00 00 00 	mov    %rdx,0xc0(%rax)
  205639:	48 8b 45 e8          	mov    -0x18(%rbp),%rax
  20563d:	48 89 c7             	mov    %rax,%rdi
  205640:	48 b8 9c 38 20 00 00 	mov    $0x20389c,%rax
  205647:	00 00 00 
  20564a:	ff d0                	callq  *%rax
  20564c:	e9 8f 00 00 00       	jmpq   2056e0 <search_2byte_insn+0x79d>
  205651:	80 7d f3 06          	cmpb   $0x6,-0xd(%rbp)
  205655:	75 30                	jne    205687 <search_2byte_insn+0x744>
  205657:	80 7d f2 03          	cmpb   $0x3,-0xe(%rbp)
  20565b:	75 2a                	jne    205687 <search_2byte_insn+0x744>
  20565d:	48 8b 45 e8          	mov    -0x18(%rbp),%rax
  205661:	48 ba 00 cf 21 00 00 	mov    $0x21cf00,%rdx
  205668:	00 00 00 
  20566b:	48 89 90 c0 00 00 00 	mov    %rdx,0xc0(%rax)
  205672:	48 8b 45 e8          	mov    -0x18(%rbp),%rax
  205676:	48 89 c7             	mov    %rax,%rdi
  205679:	48 b8 9c 38 20 00 00 	mov    $0x20389c,%rax
  205680:	00 00 00 
  205683:	ff d0                	callq  *%rax
  205685:	eb 59                	jmp    2056e0 <search_2byte_insn+0x79d>
  205687:	80 7d f3 07          	cmpb   $0x7,-0xd(%rbp)
  20568b:	75 30                	jne    2056bd <search_2byte_insn+0x77a>
  20568d:	80 7d f2 03          	cmpb   $0x3,-0xe(%rbp)
  205691:	75 2a                	jne    2056bd <search_2byte_insn+0x77a>
  205693:	48 8b 45 e8          	mov    -0x18(%rbp),%rax
  205697:	48 ba 20 cf 21 00 00 	mov    $0x21cf20,%rdx
  20569e:	00 00 00 
  2056a1:	48 89 90 c0 00 00 00 	mov    %rdx,0xc0(%rax)
  2056a8:	48 8b 45 e8          	mov    -0x18(%rbp),%rax
  2056ac:	48 89 c7             	mov    %rax,%rdi
  2056af:	48 b8 9c 38 20 00 00 	mov    $0x20389c,%rax
  2056b6:	00 00 00 
  2056b9:	ff d0                	callq  *%rax
  2056bb:	eb 23                	jmp    2056e0 <search_2byte_insn+0x79d>
  2056bd:	0f b6 45 f3          	movzbl -0xd(%rbp),%eax
  2056c1:	48 89 c2             	mov    %rax,%rdx
  2056c4:	48 c1 e2 05          	shl    $0x5,%rdx
  2056c8:	48 b8 e0 ca 21 00 00 	mov    $0x21cae0,%rax
  2056cf:	00 00 00 
  2056d2:	48 01 c2             	add    %rax,%rdx
  2056d5:	48 8b 45 e8          	mov    -0x18(%rbp),%rax
  2056d9:	48 89 90 c0 00 00 00 	mov    %rdx,0xc0(%rax)
  2056e0:	48 8b 45 e8          	mov    -0x18(%rbp),%rax
  2056e4:	0f b6 80 30 01 00 00 	movzbl 0x130(%rax),%eax
  2056eb:	84 c0                	test   %al,%al
  2056ed:	74 07                	je     2056f6 <search_2byte_insn+0x7b3>
  2056ef:	b8 ff ff ff ff       	mov    $0xffffffff,%eax
  2056f4:	eb 05                	jmp    2056fb <search_2byte_insn+0x7b8>
  2056f6:	b8 00 00 00 00       	mov    $0x0,%eax
  2056fb:	c9                   	leaveq 
  2056fc:	c3                   	retq   

00000000002056fd <ud_search_map>:
  2056fd:	55                   	push   %rbp
  2056fe:	48 89 e5             	mov    %rsp,%rbp
  205701:	48 83 ec 20          	sub    $0x20,%rsp
  205705:	48 89 7d e8          	mov    %rdi,-0x18(%rbp)
  205709:	48 8b 45 e8          	mov    -0x18(%rbp),%rax
  20570d:	0f b6 80 30 01 00 00 	movzbl 0x130(%rax),%eax
  205714:	84 c0                	test   %al,%al
  205716:	74 0a                	je     205722 <ud_search_map+0x25>
  205718:	b8 ff ff ff ff       	mov    $0xffffffff,%eax
  20571d:	e9 c7 00 00 00       	jmpq   2057e9 <ud_search_map+0xec>
  205722:	48 8b 45 e8          	mov    -0x18(%rbp),%rax
  205726:	48 89 c7             	mov    %rax,%rdi
  205729:	48 b8 9c 38 20 00 00 	mov    $0x20389c,%rax
  205730:	00 00 00 
  205733:	ff d0                	callq  *%rax
  205735:	48 8b 45 e8          	mov    -0x18(%rbp),%rax
  205739:	0f b6 80 30 01 00 00 	movzbl 0x130(%rax),%eax
  205740:	84 c0                	test   %al,%al
  205742:	74 0a                	je     20574e <ud_search_map+0x51>
  205744:	b8 ff ff ff ff       	mov    $0xffffffff,%eax
  205749:	e9 9b 00 00 00       	jmpq   2057e9 <ud_search_map+0xec>
  20574e:	48 8b 45 e8          	mov    -0x18(%rbp),%rax
  205752:	0f b6 40 08          	movzbl 0x8(%rax),%eax
  205756:	0f b6 c0             	movzbl %al,%eax
  205759:	48 8b 55 e8          	mov    -0x18(%rbp),%rdx
  20575d:	48 98                	cltq   
  20575f:	0f b6 84 02 42 01 00 	movzbl 0x142(%rdx,%rax,1),%eax
  205766:	00 
  205767:	3c 0f                	cmp    $0xf,%al
  205769:	75 41                	jne    2057ac <ud_search_map+0xaf>
  20576b:	48 8b 45 e8          	mov    -0x18(%rbp),%rax
  20576f:	48 89 c7             	mov    %rax,%rdi
  205772:	48 b8 9c 38 20 00 00 	mov    $0x20389c,%rax
  205779:	00 00 00 
  20577c:	ff d0                	callq  *%rax
  20577e:	48 8b 45 e8          	mov    -0x18(%rbp),%rax
  205782:	0f b6 80 30 01 00 00 	movzbl 0x130(%rax),%eax
  205789:	84 c0                	test   %al,%al
  20578b:	74 07                	je     205794 <ud_search_map+0x97>
  20578d:	b8 ff ff ff ff       	mov    $0xffffffff,%eax
  205792:	eb 55                	jmp    2057e9 <ud_search_map+0xec>
  205794:	48 8b 45 e8          	mov    -0x18(%rbp),%rax
  205798:	48 89 c7             	mov    %rax,%rdi
  20579b:	48 b8 43 4f 20 00 00 	mov    $0x204f43,%rax
  2057a2:	00 00 00 
  2057a5:	ff d0                	callq  *%rax
  2057a7:	89 45 fc             	mov    %eax,-0x4(%rbp)
  2057aa:	eb 16                	jmp    2057c2 <ud_search_map+0xc5>
  2057ac:	48 8b 45 e8          	mov    -0x18(%rbp),%rax
  2057b0:	48 89 c7             	mov    %rax,%rdi
  2057b3:	48 b8 65 4c 20 00 00 	mov    $0x204c65,%rax
  2057ba:	00 00 00 
  2057bd:	ff d0                	callq  *%rax
  2057bf:	89 45 fc             	mov    %eax,-0x4(%rbp)
  2057c2:	83 7d fc 00          	cmpl   $0x0,-0x4(%rbp)
  2057c6:	75 1e                	jne    2057e6 <ud_search_map+0xe9>
  2057c8:	48 8b 45 e8          	mov    -0x18(%rbp),%rax
  2057cc:	48 8b 80 c0 00 00 00 	mov    0xc0(%rax),%rax
  2057d3:	8b 10                	mov    (%rax),%edx
  2057d5:	48 8b 45 e8          	mov    -0x18(%rbp),%rax
  2057d9:	89 90 c8 00 00 00    	mov    %edx,0xc8(%rax)
  2057df:	b8 00 00 00 00       	mov    $0x0,%eax
  2057e4:	eb 03                	jmp    2057e9 <ud_search_map+0xec>
  2057e6:	8b 45 fc             	mov    -0x4(%rbp),%eax
  2057e9:	c9                   	leaveq 
  2057ea:	c3                   	retq   

00000000002057eb <ud_lookup_mnemonic>:
  2057eb:	55                   	push   %rbp
  2057ec:	48 89 e5             	mov    %rsp,%rbp
  2057ef:	48 83 ec 08          	sub    $0x8,%rsp
  2057f3:	89 7d fc             	mov    %edi,-0x4(%rbp)
  2057f6:	81 7d fc 57 02 00 00 	cmpl   $0x257,-0x4(%rbp)
  2057fd:	77 13                	ja     205812 <ud_lookup_mnemonic+0x27>
  2057ff:	48 b8 e0 26 22 00 00 	mov    $0x2226e0,%rax
  205806:	00 00 00 
  205809:	8b 55 fc             	mov    -0x4(%rbp),%edx
  20580c:	48 8b 04 d0          	mov    (%rax,%rdx,8),%rax
  205810:	eb 05                	jmp    205817 <ud_lookup_mnemonic+0x2c>
  205812:	b8 00 00 00 00       	mov    $0x0,%eax
  205817:	c9                   	leaveq 
  205818:	c3                   	retq   
  205819:	00 00                	add    %al,(%rax)
	...

000000000020581c <resolve_oprsize>:
  20581c:	55                   	push   %rbp
  20581d:	48 89 e5             	mov    %rsp,%rbp
  205820:	48 83 ec 08          	sub    $0x8,%rsp
  205824:	48 89 f8             	mov    %rdi,%rax
  205827:	89 75 fc             	mov    %esi,-0x4(%rbp)
  20582a:	83 7d fc 07          	cmpl   $0x7,-0x4(%rbp)
  20582e:	0f 87 94 00 00 00    	ja     2058c8 <resolve_oprsize+0xac>
  205834:	8b 55 fc             	mov    -0x4(%rbp),%edx
  205837:	48 8d 0c d5 00 00 00 	lea    0x0(,%rdx,8),%rcx
  20583e:	00 
  20583f:	48 ba 88 96 20 00 00 	mov    $0x209688,%rdx
  205846:	00 00 00 
  205849:	48 8d 14 11          	lea    (%rcx,%rdx,1),%rdx
  20584d:	48 8b 12             	mov    (%rdx),%rdx
  205850:	ff e2                	jmpq   *%rdx
  205852:	0f b6 80 3b 01 00 00 	movzbl 0x13b(%rax),%eax
  205859:	0f b6 c0             	movzbl %al,%eax
  20585c:	eb 6d                	jmp    2058cb <resolve_oprsize+0xaf>
  20585e:	0f b6 80 3b 01 00 00 	movzbl 0x13b(%rax),%eax
  205865:	3c 10                	cmp    $0x10,%al
  205867:	75 07                	jne    205870 <resolve_oprsize+0x54>
  205869:	b8 10 00 00 00       	mov    $0x10,%eax
  20586e:	eb 05                	jmp    205875 <resolve_oprsize+0x59>
  205870:	b8 20 00 00 00       	mov    $0x20,%eax
  205875:	eb 54                	jmp    2058cb <resolve_oprsize+0xaf>
  205877:	0f b6 80 3b 01 00 00 	movzbl 0x13b(%rax),%eax
  20587e:	3c 10                	cmp    $0x10,%al
  205880:	75 07                	jne    205889 <resolve_oprsize+0x6d>
  205882:	b8 04 00 00 00       	mov    $0x4,%eax
  205887:	eb 05                	jmp    20588e <resolve_oprsize+0x72>
  205889:	b8 05 00 00 00       	mov    $0x5,%eax
  20588e:	eb 3b                	jmp    2058cb <resolve_oprsize+0xaf>
  205890:	0f b6 90 3b 01 00 00 	movzbl 0x13b(%rax),%edx
  205897:	80 fa 10             	cmp    $0x10,%dl
  20589a:	74 0c                	je     2058a8 <resolve_oprsize+0x8c>
  20589c:	0f b6 80 3b 01 00 00 	movzbl 0x13b(%rax),%eax
  2058a3:	0f b6 c0             	movzbl %al,%eax
  2058a6:	eb 05                	jmp    2058ad <resolve_oprsize+0x91>
  2058a8:	b8 20 00 00 00       	mov    $0x20,%eax
  2058ad:	eb 1c                	jmp    2058cb <resolve_oprsize+0xaf>
  2058af:	0f b6 80 ac 00 00 00 	movzbl 0xac(%rax),%eax
  2058b6:	3c 40                	cmp    $0x40,%al
  2058b8:	75 07                	jne    2058c1 <resolve_oprsize+0xa5>
  2058ba:	b8 40 00 00 00       	mov    $0x40,%eax
  2058bf:	eb 05                	jmp    2058c6 <resolve_oprsize+0xaa>
  2058c1:	b8 20 00 00 00       	mov    $0x20,%eax
  2058c6:	eb 03                	jmp    2058cb <resolve_oprsize+0xaf>
  2058c8:	8b 45 fc             	mov    -0x4(%rbp),%eax
  2058cb:	c9                   	leaveq 
  2058cc:	c3                   	retq   

00000000002058cd <resolve_mnemonic_by_mode>:
  2058cd:	55                   	push   %rbp
  2058ce:	48 89 e5             	mov    %rsp,%rbp
  2058d1:	48 83 ec 08          	sub    $0x8,%rsp
  2058d5:	48 89 7d f8          	mov    %rdi,-0x8(%rbp)
  2058d9:	48 8b 45 f8          	mov    -0x8(%rbp),%rax
  2058dd:	0f b6 80 3b 01 00 00 	movzbl 0x13b(%rax),%eax
  2058e4:	3c 20                	cmp    $0x20,%al
  2058e6:	0f 85 35 01 00 00    	jne    205a21 <resolve_mnemonic_by_mode+0x154>
  2058ec:	48 8b 45 f8          	mov    -0x8(%rbp),%rax
  2058f0:	8b 80 c8 00 00 00    	mov    0xc8(%rax),%eax
  2058f6:	3d 35 01 00 00       	cmp    $0x135,%eax
  2058fb:	0f 84 b2 00 00 00    	je     2059b3 <resolve_mnemonic_by_mode+0xe6>
  205901:	3d 35 01 00 00       	cmp    $0x135,%eax
  205906:	77 43                	ja     20594b <resolve_mnemonic_by_mode+0x7e>
  205908:	83 f8 59             	cmp    $0x59,%eax
  20590b:	0f 84 8e 00 00 00    	je     20599f <resolve_mnemonic_by_mode+0xd2>
  205911:	83 f8 59             	cmp    $0x59,%eax
  205914:	77 13                	ja     205929 <resolve_mnemonic_by_mode+0x5c>
  205916:	83 f8 19             	cmp    $0x19,%eax
  205919:	74 7a                	je     205995 <resolve_mnemonic_by_mode+0xc8>
  20591b:	83 f8 39             	cmp    $0x39,%eax
  20591e:	0f 84 99 00 00 00    	je     2059bd <resolve_mnemonic_by_mode+0xf0>
  205924:	e9 14 02 00 00       	jmpq   205b3d <resolve_mnemonic_by_mode+0x270>
  205929:	3d d9 00 00 00       	cmp    $0xd9,%eax
  20592e:	0f 84 cf 00 00 00    	je     205a03 <resolve_mnemonic_by_mode+0x136>
  205934:	3d 03 01 00 00       	cmp    $0x103,%eax
  205939:	74 6e                	je     2059a9 <resolve_mnemonic_by_mode+0xdc>
  20593b:	3d d4 00 00 00       	cmp    $0xd4,%eax
  205940:	0f 84 81 00 00 00    	je     2059c7 <resolve_mnemonic_by_mode+0xfa>
  205946:	e9 f2 01 00 00       	jmpq   205b3d <resolve_mnemonic_by_mode+0x270>
  20594b:	3d ae 01 00 00       	cmp    $0x1ae,%eax
  205950:	0f 84 b7 00 00 00    	je     205a0d <resolve_mnemonic_by_mode+0x140>
  205956:	3d ae 01 00 00       	cmp    $0x1ae,%eax
  20595b:	77 1e                	ja     20597b <resolve_mnemonic_by_mode+0xae>
  20595d:	3d 85 01 00 00       	cmp    $0x185,%eax
  205962:	0f 84 af 00 00 00    	je     205a17 <resolve_mnemonic_by_mode+0x14a>
  205968:	3d 87 01 00 00       	cmp    $0x187,%eax
  20596d:	74 76                	je     2059e5 <resolve_mnemonic_by_mode+0x118>
  20596f:	3d 4a 01 00 00       	cmp    $0x14a,%eax
  205974:	74 5b                	je     2059d1 <resolve_mnemonic_by_mode+0x104>
  205976:	e9 c2 01 00 00       	jmpq   205b3d <resolve_mnemonic_by_mode+0x270>
  20597b:	3d ce 01 00 00       	cmp    $0x1ce,%eax
  205980:	74 77                	je     2059f9 <resolve_mnemonic_by_mode+0x12c>
  205982:	3d f4 01 00 00       	cmp    $0x1f4,%eax
  205987:	74 66                	je     2059ef <resolve_mnemonic_by_mode+0x122>
  205989:	3d b0 01 00 00       	cmp    $0x1b0,%eax
  20598e:	74 4b                	je     2059db <resolve_mnemonic_by_mode+0x10e>
  205990:	e9 a8 01 00 00       	jmpq   205b3d <resolve_mnemonic_by_mode+0x270>
  205995:	b8 5a 00 00 00       	mov    $0x5a,%eax
  20599a:	e9 f7 01 00 00       	jmpq   205b96 <resolve_mnemonic_by_mode+0x2c9>
  20599f:	b8 5b 00 00 00       	mov    $0x5b,%eax
  2059a4:	e9 ed 01 00 00       	jmpq   205b96 <resolve_mnemonic_by_mode+0x2c9>
  2059a9:	b8 01 01 00 00       	mov    $0x101,%eax
  2059ae:	e9 e3 01 00 00       	jmpq   205b96 <resolve_mnemonic_by_mode+0x2c9>
  2059b3:	b8 32 01 00 00       	mov    $0x132,%eax
  2059b8:	e9 d9 01 00 00       	jmpq   205b96 <resolve_mnemonic_by_mode+0x2c9>
  2059bd:	b8 36 00 00 00       	mov    $0x36,%eax
  2059c2:	e9 cf 01 00 00       	jmpq   205b96 <resolve_mnemonic_by_mode+0x2c9>
  2059c7:	b8 d3 00 00 00       	mov    $0xd3,%eax
  2059cc:	e9 c5 01 00 00       	jmpq   205b96 <resolve_mnemonic_by_mode+0x2c9>
  2059d1:	b8 49 01 00 00       	mov    $0x149,%eax
  2059d6:	e9 bb 01 00 00       	jmpq   205b96 <resolve_mnemonic_by_mode+0x2c9>
  2059db:	b8 b1 01 00 00       	mov    $0x1b1,%eax
  2059e0:	e9 b1 01 00 00       	jmpq   205b96 <resolve_mnemonic_by_mode+0x2c9>
  2059e5:	b8 88 01 00 00       	mov    $0x188,%eax
  2059ea:	e9 a7 01 00 00       	jmpq   205b96 <resolve_mnemonic_by_mode+0x2c9>
  2059ef:	b8 f5 01 00 00       	mov    $0x1f5,%eax
  2059f4:	e9 9d 01 00 00       	jmpq   205b96 <resolve_mnemonic_by_mode+0x2c9>
  2059f9:	b8 cc 01 00 00       	mov    $0x1cc,%eax
  2059fe:	e9 93 01 00 00       	jmpq   205b96 <resolve_mnemonic_by_mode+0x2c9>
  205a03:	b8 da 00 00 00       	mov    $0xda,%eax
  205a08:	e9 89 01 00 00       	jmpq   205b96 <resolve_mnemonic_by_mode+0x2c9>
  205a0d:	b8 af 01 00 00       	mov    $0x1af,%eax
  205a12:	e9 7f 01 00 00       	jmpq   205b96 <resolve_mnemonic_by_mode+0x2c9>
  205a17:	b8 86 01 00 00       	mov    $0x186,%eax
  205a1c:	e9 75 01 00 00       	jmpq   205b96 <resolve_mnemonic_by_mode+0x2c9>
  205a21:	48 8b 45 f8          	mov    -0x8(%rbp),%rax
  205a25:	0f b6 80 3b 01 00 00 	movzbl 0x13b(%rax),%eax
  205a2c:	3c 40                	cmp    $0x40,%al
  205a2e:	0f 85 09 01 00 00    	jne    205b3d <resolve_mnemonic_by_mode+0x270>
  205a34:	48 8b 45 f8          	mov    -0x8(%rbp),%rax
  205a38:	8b 80 c8 00 00 00    	mov    0xc8(%rax),%eax
  205a3e:	3d 03 01 00 00       	cmp    $0x103,%eax
  205a43:	0f 84 98 00 00 00    	je     205ae1 <resolve_mnemonic_by_mode+0x214>
  205a49:	3d 03 01 00 00       	cmp    $0x103,%eax
  205a4e:	77 41                	ja     205a91 <resolve_mnemonic_by_mode+0x1c4>
  205a50:	83 f8 3b             	cmp    $0x3b,%eax
  205a53:	0f 84 ba 00 00 00    	je     205b13 <resolve_mnemonic_by_mode+0x246>
  205a59:	83 f8 3b             	cmp    $0x3b,%eax
  205a5c:	77 13                	ja     205a71 <resolve_mnemonic_by_mode+0x1a4>
  205a5e:	83 f8 19             	cmp    $0x19,%eax
  205a61:	74 6a                	je     205acd <resolve_mnemonic_by_mode+0x200>
  205a63:	83 f8 39             	cmp    $0x39,%eax
  205a66:	0f 84 89 00 00 00    	je     205af5 <resolve_mnemonic_by_mode+0x228>
  205a6c:	e9 cc 00 00 00       	jmpq   205b3d <resolve_mnemonic_by_mode+0x270>
  205a71:	3d d4 00 00 00       	cmp    $0xd4,%eax
  205a76:	0f 84 83 00 00 00    	je     205aff <resolve_mnemonic_by_mode+0x232>
  205a7c:	3d d9 00 00 00       	cmp    $0xd9,%eax
  205a81:	0f 84 a1 00 00 00    	je     205b28 <resolve_mnemonic_by_mode+0x25b>
  205a87:	83 f8 59             	cmp    $0x59,%eax
  205a8a:	74 4b                	je     205ad7 <resolve_mnemonic_by_mode+0x20a>
  205a8c:	e9 ac 00 00 00       	jmpq   205b3d <resolve_mnemonic_by_mode+0x270>
  205a91:	3d 87 01 00 00       	cmp    $0x187,%eax
  205a96:	0f 84 9a 00 00 00    	je     205b36 <resolve_mnemonic_by_mode+0x269>
  205a9c:	3d 87 01 00 00       	cmp    $0x187,%eax
  205aa1:	77 13                	ja     205ab6 <resolve_mnemonic_by_mode+0x1e9>
  205aa3:	3d 35 01 00 00       	cmp    $0x135,%eax
  205aa8:	74 41                	je     205aeb <resolve_mnemonic_by_mode+0x21e>
  205aaa:	3d 4a 01 00 00       	cmp    $0x14a,%eax
  205aaf:	74 58                	je     205b09 <resolve_mnemonic_by_mode+0x23c>
  205ab1:	e9 87 00 00 00       	jmpq   205b3d <resolve_mnemonic_by_mode+0x270>
  205ab6:	3d ce 01 00 00       	cmp    $0x1ce,%eax
  205abb:	74 64                	je     205b21 <resolve_mnemonic_by_mode+0x254>
  205abd:	3d f4 01 00 00       	cmp    $0x1f4,%eax
  205ac2:	74 56                	je     205b1a <resolve_mnemonic_by_mode+0x24d>
  205ac4:	3d b0 01 00 00       	cmp    $0x1b0,%eax
  205ac9:	74 64                	je     205b2f <resolve_mnemonic_by_mode+0x262>
  205acb:	eb 70                	jmp    205b3d <resolve_mnemonic_by_mode+0x270>
  205acd:	b8 1a 00 00 00       	mov    $0x1a,%eax
  205ad2:	e9 bf 00 00 00       	jmpq   205b96 <resolve_mnemonic_by_mode+0x2c9>
  205ad7:	b8 40 00 00 00       	mov    $0x40,%eax
  205adc:	e9 b5 00 00 00       	jmpq   205b96 <resolve_mnemonic_by_mode+0x2c9>
  205ae1:	b8 02 01 00 00       	mov    $0x102,%eax
  205ae6:	e9 ab 00 00 00       	jmpq   205b96 <resolve_mnemonic_by_mode+0x2c9>
  205aeb:	b8 33 01 00 00       	mov    $0x133,%eax
  205af0:	e9 a1 00 00 00       	jmpq   205b96 <resolve_mnemonic_by_mode+0x2c9>
  205af5:	b8 37 00 00 00       	mov    $0x37,%eax
  205afa:	e9 97 00 00 00       	jmpq   205b96 <resolve_mnemonic_by_mode+0x2c9>
  205aff:	b8 d3 00 00 00       	mov    $0xd3,%eax
  205b04:	e9 8d 00 00 00       	jmpq   205b96 <resolve_mnemonic_by_mode+0x2c9>
  205b09:	b8 49 01 00 00       	mov    $0x149,%eax
  205b0e:	e9 83 00 00 00       	jmpq   205b96 <resolve_mnemonic_by_mode+0x2c9>
  205b13:	b8 22 02 00 00       	mov    $0x222,%eax
  205b18:	eb 7c                	jmp    205b96 <resolve_mnemonic_by_mode+0x2c9>
  205b1a:	b8 23 02 00 00       	mov    $0x223,%eax
  205b1f:	eb 75                	jmp    205b96 <resolve_mnemonic_by_mode+0x2c9>
  205b21:	b8 cd 01 00 00       	mov    $0x1cd,%eax
  205b26:	eb 6e                	jmp    205b96 <resolve_mnemonic_by_mode+0x2c9>
  205b28:	b8 db 00 00 00       	mov    $0xdb,%eax
  205b2d:	eb 67                	jmp    205b96 <resolve_mnemonic_by_mode+0x2c9>
  205b2f:	b8 b2 01 00 00       	mov    $0x1b2,%eax
  205b34:	eb 60                	jmp    205b96 <resolve_mnemonic_by_mode+0x2c9>
  205b36:	b8 89 01 00 00       	mov    $0x189,%eax
  205b3b:	eb 59                	jmp    205b96 <resolve_mnemonic_by_mode+0x2c9>
  205b3d:	48 8b 45 f8          	mov    -0x8(%rbp),%rax
  205b41:	0f b6 80 3c 01 00 00 	movzbl 0x13c(%rax),%eax
  205b48:	3c 20                	cmp    $0x20,%al
  205b4a:	75 18                	jne    205b64 <resolve_mnemonic_by_mode+0x297>
  205b4c:	48 8b 45 f8          	mov    -0x8(%rbp),%rax
  205b50:	8b 80 c8 00 00 00    	mov    0xc8(%rax),%eax
  205b56:	3d dc 00 00 00       	cmp    $0xdc,%eax
  205b5b:	75 2f                	jne    205b8c <resolve_mnemonic_by_mode+0x2bf>
  205b5d:	b8 dd 00 00 00       	mov    $0xdd,%eax
  205b62:	eb 32                	jmp    205b96 <resolve_mnemonic_by_mode+0x2c9>
  205b64:	48 8b 45 f8          	mov    -0x8(%rbp),%rax
  205b68:	0f b6 80 3c 01 00 00 	movzbl 0x13c(%rax),%eax
  205b6f:	3c 40                	cmp    $0x40,%al
  205b71:	75 19                	jne    205b8c <resolve_mnemonic_by_mode+0x2bf>
  205b73:	48 8b 45 f8          	mov    -0x8(%rbp),%rax
  205b77:	8b 80 c8 00 00 00    	mov    0xc8(%rax),%eax
  205b7d:	3d dc 00 00 00       	cmp    $0xdc,%eax
  205b82:	75 07                	jne    205b8b <resolve_mnemonic_by_mode+0x2be>
  205b84:	b8 df 00 00 00       	mov    $0xdf,%eax
  205b89:	eb 0b                	jmp    205b96 <resolve_mnemonic_by_mode+0x2c9>
  205b8b:	90                   	nop
  205b8c:	48 8b 45 f8          	mov    -0x8(%rbp),%rax
  205b90:	8b 80 c8 00 00 00    	mov    0xc8(%rax),%eax
  205b96:	c9                   	leaveq 
  205b97:	c3                   	retq   

0000000000205b98 <resolve_mnemonic>:
  205b98:	55                   	push   %rbp
  205b99:	48 89 e5             	mov    %rsp,%rbp
  205b9c:	48 83 ec 10          	sub    $0x10,%rsp
  205ba0:	48 89 7d f8          	mov    %rdi,-0x8(%rbp)
  205ba4:	48 8b 45 f8          	mov    -0x8(%rbp),%rax
  205ba8:	48 8b 80 c0 00 00 00 	mov    0xc0(%rax),%rax
  205baf:	8b 40 1c             	mov    0x1c(%rax),%eax
  205bb2:	25 00 01 00 00       	and    $0x100,%eax
  205bb7:	85 c0                	test   %eax,%eax
  205bb9:	74 1d                	je     205bd8 <resolve_mnemonic+0x40>
  205bbb:	48 8b 45 f8          	mov    -0x8(%rbp),%rax
  205bbf:	48 89 c7             	mov    %rax,%rdi
  205bc2:	48 b8 cd 58 20 00 00 	mov    $0x2058cd,%rax
  205bc9:	00 00 00 
  205bcc:	ff d0                	callq  *%rax
  205bce:	48 8b 55 f8          	mov    -0x8(%rbp),%rdx
  205bd2:	89 82 c8 00 00 00    	mov    %eax,0xc8(%rdx)
  205bd8:	48 8b 45 f8          	mov    -0x8(%rbp),%rax
  205bdc:	c6 80 3d 01 00 00 00 	movb   $0x0,0x13d(%rax)
  205be3:	48 8b 45 f8          	mov    -0x8(%rbp),%rax
  205be7:	c6 80 3e 01 00 00 00 	movb   $0x0,0x13e(%rax)
  205bee:	48 8b 45 f8          	mov    -0x8(%rbp),%rax
  205bf2:	8b 80 c8 00 00 00    	mov    0xc8(%rax),%eax
  205bf8:	83 f8 18             	cmp    $0x18,%eax
  205bfb:	74 11                	je     205c0e <resolve_mnemonic+0x76>
  205bfd:	48 8b 45 f8          	mov    -0x8(%rbp),%rax
  205c01:	8b 80 c8 00 00 00    	mov    0xc8(%rax),%eax
  205c07:	3d de 00 00 00       	cmp    $0xde,%eax
  205c0c:	75 7f                	jne    205c8d <resolve_mnemonic+0xf5>
  205c0e:	48 8b 45 f8          	mov    -0x8(%rbp),%rax
  205c12:	0f b6 80 d4 00 00 00 	movzbl 0xd4(%rax),%eax
  205c19:	3c 04                	cmp    $0x4,%al
  205c1b:	75 26                	jne    205c43 <resolve_mnemonic+0xab>
  205c1d:	48 8b 45 f8          	mov    -0x8(%rbp),%rax
  205c21:	c6 80 d4 00 00 00 10 	movb   $0x10,0xd4(%rax)
  205c28:	48 8b 45 f8          	mov    -0x8(%rbp),%rax
  205c2c:	c6 80 3d 01 00 00 01 	movb   $0x1,0x13d(%rax)
  205c33:	48 8b 45 f8          	mov    -0x8(%rbp),%rax
  205c37:	c6 80 3e 01 00 00 00 	movb   $0x0,0x13e(%rax)
  205c3e:	e9 8f 00 00 00       	jmpq   205cd2 <resolve_mnemonic+0x13a>
  205c43:	48 8b 45 f8          	mov    -0x8(%rbp),%rax
  205c47:	0f b6 80 d4 00 00 00 	movzbl 0xd4(%rax),%eax
  205c4e:	3c 05                	cmp    $0x5,%al
  205c50:	75 23                	jne    205c75 <resolve_mnemonic+0xdd>
  205c52:	48 8b 45 f8          	mov    -0x8(%rbp),%rax
  205c56:	c6 80 d4 00 00 00 20 	movb   $0x20,0xd4(%rax)
  205c5d:	48 8b 45 f8          	mov    -0x8(%rbp),%rax
  205c61:	c6 80 3d 01 00 00 01 	movb   $0x1,0x13d(%rax)
  205c68:	48 8b 45 f8          	mov    -0x8(%rbp),%rax
  205c6c:	c6 80 3e 01 00 00 00 	movb   $0x0,0x13e(%rax)
  205c73:	eb 5d                	jmp    205cd2 <resolve_mnemonic+0x13a>
  205c75:	48 8b 45 f8          	mov    -0x8(%rbp),%rax
  205c79:	c6 80 3d 01 00 00 00 	movb   $0x0,0x13d(%rax)
  205c80:	48 8b 45 f8          	mov    -0x8(%rbp),%rax
  205c84:	c6 80 3e 01 00 00 01 	movb   $0x1,0x13e(%rax)
  205c8b:	eb 45                	jmp    205cd2 <resolve_mnemonic+0x13a>
  205c8d:	48 8b 45 f8          	mov    -0x8(%rbp),%rax
  205c91:	8b 80 c8 00 00 00    	mov    0xc8(%rax),%eax
  205c97:	3d 20 02 00 00       	cmp    $0x220,%eax
  205c9c:	75 34                	jne    205cd2 <resolve_mnemonic+0x13a>
  205c9e:	48 8b 45 f8          	mov    -0x8(%rbp),%rax
  205ca2:	0f b6 40 08          	movzbl 0x8(%rax),%eax
  205ca6:	0f b6 c0             	movzbl %al,%eax
  205ca9:	48 8b 55 f8          	mov    -0x8(%rbp),%rdx
  205cad:	48 98                	cltq   
  205caf:	0f b6 84 02 42 01 00 	movzbl 0x142(%rdx,%rax,1),%eax
  205cb6:	00 
  205cb7:	0f b6 c0             	movzbl %al,%eax
  205cba:	89 c7                	mov    %eax,%edi
  205cbc:	48 b8 68 4b 20 00 00 	mov    $0x204b68,%rax
  205cc3:	00 00 00 
  205cc6:	ff d0                	callq  *%rax
  205cc8:	48 8b 55 f8          	mov    -0x8(%rbp),%rdx
  205ccc:	89 82 c8 00 00 00    	mov    %eax,0xc8(%rdx)
  205cd2:	48 8b 45 f8          	mov    -0x8(%rbp),%rax
  205cd6:	8b 80 c8 00 00 00    	mov    0xc8(%rax),%eax
  205cdc:	3d fc 01 00 00       	cmp    $0x1fc,%eax
  205ce1:	75 21                	jne    205d04 <resolve_mnemonic+0x16c>
  205ce3:	48 8b 45 f8          	mov    -0x8(%rbp),%rax
  205ce7:	0f b6 80 ac 00 00 00 	movzbl 0xac(%rax),%eax
  205cee:	3c 40                	cmp    $0x40,%al
  205cf0:	74 12                	je     205d04 <resolve_mnemonic+0x16c>
  205cf2:	48 8b 45 f8          	mov    -0x8(%rbp),%rax
  205cf6:	c6 80 30 01 00 00 01 	movb   $0x1,0x130(%rax)
  205cfd:	b8 ff ff ff ff       	mov    $0xffffffff,%eax
  205d02:	eb 05                	jmp    205d09 <resolve_mnemonic+0x171>
  205d04:	b8 00 00 00 00       	mov    $0x0,%eax
  205d09:	c9                   	leaveq 
  205d0a:	c3                   	retq   

0000000000205d0b <decode_a>:
  205d0b:	55                   	push   %rbp
  205d0c:	48 89 e5             	mov    %rsp,%rbp
  205d0f:	48 83 ec 10          	sub    $0x10,%rsp
  205d13:	48 89 7d f8          	mov    %rdi,-0x8(%rbp)
  205d17:	48 89 75 f0          	mov    %rsi,-0x10(%rbp)
  205d1b:	48 8b 45 f8          	mov    -0x8(%rbp),%rax
  205d1f:	0f b6 80 3b 01 00 00 	movzbl 0x13b(%rax),%eax
  205d26:	3c 10                	cmp    $0x10,%al
  205d28:	75 4c                	jne    205d76 <decode_a+0x6b>
  205d2a:	48 8b 45 f0          	mov    -0x10(%rbp),%rax
  205d2e:	c7 00 8e 00 00 00    	movl   $0x8e,(%rax)
  205d34:	48 8b 45 f0          	mov    -0x10(%rbp),%rax
  205d38:	c6 40 04 20          	movb   $0x20,0x4(%rax)
  205d3c:	48 8b 45 f8          	mov    -0x8(%rbp),%rax
  205d40:	48 89 c7             	mov    %rax,%rdi
  205d43:	48 b8 84 3a 20 00 00 	mov    $0x203a84,%rax
  205d4a:	00 00 00 
  205d4d:	ff d0                	callq  *%rax
  205d4f:	0f b7 d0             	movzwl %ax,%edx
  205d52:	48 8b 45 f0          	mov    -0x10(%rbp),%rax
  205d56:	89 50 0c             	mov    %edx,0xc(%rax)
  205d59:	48 8b 45 f8          	mov    -0x8(%rbp),%rax
  205d5d:	48 89 c7             	mov    %rax,%rdi
  205d60:	48 b8 84 3a 20 00 00 	mov    $0x203a84,%rax
  205d67:	00 00 00 
  205d6a:	ff d0                	callq  *%rax
  205d6c:	48 8b 55 f0          	mov    -0x10(%rbp),%rdx
  205d70:	66 89 42 08          	mov    %ax,0x8(%rdx)
  205d74:	eb 47                	jmp    205dbd <decode_a+0xb2>
  205d76:	48 8b 45 f0          	mov    -0x10(%rbp),%rax
  205d7a:	c7 00 8e 00 00 00    	movl   $0x8e,(%rax)
  205d80:	48 8b 45 f0          	mov    -0x10(%rbp),%rax
  205d84:	c6 40 04 30          	movb   $0x30,0x4(%rax)
  205d88:	48 8b 45 f8          	mov    -0x8(%rbp),%rax
  205d8c:	48 89 c7             	mov    %rax,%rdi
  205d8f:	48 b8 d5 3a 20 00 00 	mov    $0x203ad5,%rax
  205d96:	00 00 00 
  205d99:	ff d0                	callq  *%rax
  205d9b:	48 8b 55 f0          	mov    -0x10(%rbp),%rdx
  205d9f:	89 42 0c             	mov    %eax,0xc(%rdx)
  205da2:	48 8b 45 f8          	mov    -0x8(%rbp),%rax
  205da6:	48 89 c7             	mov    %rax,%rdi
  205da9:	48 b8 84 3a 20 00 00 	mov    $0x203a84,%rax
  205db0:	00 00 00 
  205db3:	ff d0                	callq  *%rax
  205db5:	48 8b 55 f0          	mov    -0x10(%rbp),%rdx
  205db9:	66 89 42 08          	mov    %ax,0x8(%rdx)
  205dbd:	c9                   	leaveq 
  205dbe:	c3                   	retq   

0000000000205dbf <decode_gpr>:
  205dbf:	55                   	push   %rbp
  205dc0:	48 89 e5             	mov    %rsp,%rbp
  205dc3:	53                   	push   %rbx
  205dc4:	48 83 ec 08          	sub    $0x8,%rsp
  205dc8:	48 89 fb             	mov    %rdi,%rbx
  205dcb:	89 75 f4             	mov    %esi,-0xc(%rbp)
  205dce:	89 d0                	mov    %edx,%eax
  205dd0:	88 45 f0             	mov    %al,-0x10(%rbp)
  205dd3:	8b 45 f4             	mov    -0xc(%rbp),%eax
  205dd6:	89 c6                	mov    %eax,%esi
  205dd8:	48 89 df             	mov    %rbx,%rdi
  205ddb:	48 b8 1c 58 20 00 00 	mov    $0x20581c,%rax
  205de2:	00 00 00 
  205de5:	ff d0                	callq  *%rax
  205de7:	89 45 f4             	mov    %eax,-0xc(%rbp)
  205dea:	8b 45 f4             	mov    -0xc(%rbp),%eax
  205ded:	83 e8 04             	sub    $0x4,%eax
  205df0:	83 f8 3c             	cmp    $0x3c,%eax
  205df3:	77 6f                	ja     205e64 <decode_gpr+0xa5>
  205df5:	89 c0                	mov    %eax,%eax
  205df7:	48 8d 14 c5 00 00 00 	lea    0x0(,%rax,8),%rdx
  205dfe:	00 
  205dff:	48 b8 c8 96 20 00 00 	mov    $0x2096c8,%rax
  205e06:	00 00 00 
  205e09:	48 8d 04 02          	lea    (%rdx,%rax,1),%rax
  205e0d:	48 8b 00             	mov    (%rax),%rax
  205e10:	ff e0                	jmpq   *%rax
  205e12:	0f b6 45 f0          	movzbl -0x10(%rbp),%eax
  205e16:	83 c0 35             	add    $0x35,%eax
  205e19:	eb 4e                	jmp    205e69 <decode_gpr+0xaa>
  205e1b:	0f b6 45 f0          	movzbl -0x10(%rbp),%eax
  205e1f:	83 c0 25             	add    $0x25,%eax
  205e22:	eb 45                	jmp    205e69 <decode_gpr+0xaa>
  205e24:	0f b6 45 f0          	movzbl -0x10(%rbp),%eax
  205e28:	83 c0 15             	add    $0x15,%eax
  205e2b:	eb 3c                	jmp    205e69 <decode_gpr+0xaa>
  205e2d:	0f b6 83 ac 00 00 00 	movzbl 0xac(%rbx),%eax
  205e34:	3c 40                	cmp    $0x40,%al
  205e36:	75 23                	jne    205e5b <decode_gpr+0x9c>
  205e38:	0f b6 83 31 01 00 00 	movzbl 0x131(%rbx),%eax
  205e3f:	84 c0                	test   %al,%al
  205e41:	74 18                	je     205e5b <decode_gpr+0x9c>
  205e43:	80 7d f0 03          	cmpb   $0x3,-0x10(%rbp)
  205e47:	76 09                	jbe    205e52 <decode_gpr+0x93>
  205e49:	0f b6 45 f0          	movzbl -0x10(%rbp),%eax
  205e4d:	83 c0 05             	add    $0x5,%eax
  205e50:	eb 17                	jmp    205e69 <decode_gpr+0xaa>
  205e52:	0f b6 45 f0          	movzbl -0x10(%rbp),%eax
  205e56:	83 c0 01             	add    $0x1,%eax
  205e59:	eb 0e                	jmp    205e69 <decode_gpr+0xaa>
  205e5b:	0f b6 45 f0          	movzbl -0x10(%rbp),%eax
  205e5f:	83 c0 01             	add    $0x1,%eax
  205e62:	eb 05                	jmp    205e69 <decode_gpr+0xaa>
  205e64:	b8 00 00 00 00       	mov    $0x0,%eax
  205e69:	48 83 c4 08          	add    $0x8,%rsp
  205e6d:	5b                   	pop    %rbx
  205e6e:	c9                   	leaveq 
  205e6f:	c3                   	retq   

0000000000205e70 <resolve_gpr64>:
  205e70:	55                   	push   %rbp
  205e71:	48 89 e5             	mov    %rsp,%rbp
  205e74:	48 83 ec 10          	sub    $0x10,%rsp
  205e78:	48 89 7d f8          	mov    %rdi,-0x8(%rbp)
  205e7c:	89 75 f4             	mov    %esi,-0xc(%rbp)
  205e7f:	83 7d f4 25          	cmpl   $0x25,-0xc(%rbp)
  205e83:	76 27                	jbe    205eac <resolve_gpr64+0x3c>
  205e85:	83 7d f4 2d          	cmpl   $0x2d,-0xc(%rbp)
  205e89:	77 21                	ja     205eac <resolve_gpr64+0x3c>
  205e8b:	8b 45 f4             	mov    -0xc(%rbp),%eax
  205e8e:	8d 50 da             	lea    -0x26(%rax),%edx
  205e91:	48 8b 45 f8          	mov    -0x8(%rbp),%rax
  205e95:	0f b6 80 31 01 00 00 	movzbl 0x131(%rax),%eax
  205e9c:	0f b6 c0             	movzbl %al,%eax
  205e9f:	83 e0 01             	and    $0x1,%eax
  205ea2:	c1 e0 03             	shl    $0x3,%eax
  205ea5:	09 d0                	or     %edx,%eax
  205ea7:	89 45 f4             	mov    %eax,-0xc(%rbp)
  205eaa:	eb 04                	jmp    205eb0 <resolve_gpr64+0x40>
  205eac:	83 6d f4 1e          	subl   $0x1e,-0xc(%rbp)
  205eb0:	48 8b 45 f8          	mov    -0x8(%rbp),%rax
  205eb4:	0f b6 80 3b 01 00 00 	movzbl 0x13b(%rax),%eax
  205ebb:	3c 10                	cmp    $0x10,%al
  205ebd:	75 08                	jne    205ec7 <resolve_gpr64+0x57>
  205ebf:	8b 45 f4             	mov    -0xc(%rbp),%eax
  205ec2:	83 c0 15             	add    $0x15,%eax
  205ec5:	eb 50                	jmp    205f17 <resolve_gpr64+0xa7>
  205ec7:	48 8b 45 f8          	mov    -0x8(%rbp),%rax
  205ecb:	0f b6 80 ac 00 00 00 	movzbl 0xac(%rax),%eax
  205ed2:	3c 20                	cmp    $0x20,%al
  205ed4:	74 33                	je     205f09 <resolve_gpr64+0x99>
  205ed6:	48 8b 45 f8          	mov    -0x8(%rbp),%rax
  205eda:	0f b6 80 3b 01 00 00 	movzbl 0x13b(%rax),%eax
  205ee1:	3c 20                	cmp    $0x20,%al
  205ee3:	75 2c                	jne    205f11 <resolve_gpr64+0xa1>
  205ee5:	48 8b 45 f8          	mov    -0x8(%rbp),%rax
  205ee9:	0f b6 80 31 01 00 00 	movzbl 0x131(%rax),%eax
  205ef0:	83 e0 0f             	and    $0xf,%eax
  205ef3:	c0 e8 03             	shr    $0x3,%al
  205ef6:	84 c0                	test   %al,%al
  205ef8:	75 17                	jne    205f11 <resolve_gpr64+0xa1>
  205efa:	48 8b 45 f8          	mov    -0x8(%rbp),%rax
  205efe:	0f b6 80 3a 01 00 00 	movzbl 0x13a(%rax),%eax
  205f05:	84 c0                	test   %al,%al
  205f07:	75 08                	jne    205f11 <resolve_gpr64+0xa1>
  205f09:	8b 45 f4             	mov    -0xc(%rbp),%eax
  205f0c:	83 c0 25             	add    $0x25,%eax
  205f0f:	eb 06                	jmp    205f17 <resolve_gpr64+0xa7>
  205f11:	8b 45 f4             	mov    -0xc(%rbp),%eax
  205f14:	83 c0 35             	add    $0x35,%eax
  205f17:	c9                   	leaveq 
  205f18:	c3                   	retq   

0000000000205f19 <resolve_gpr32>:
  205f19:	55                   	push   %rbp
  205f1a:	48 89 e5             	mov    %rsp,%rbp
  205f1d:	48 83 ec 10          	sub    $0x10,%rsp
  205f21:	48 89 7d f8          	mov    %rdi,-0x8(%rbp)
  205f25:	89 75 f4             	mov    %esi,-0xc(%rbp)
  205f28:	83 6d f4 2e          	subl   $0x2e,-0xc(%rbp)
  205f2c:	48 8b 45 f8          	mov    -0x8(%rbp),%rax
  205f30:	0f b6 80 3b 01 00 00 	movzbl 0x13b(%rax),%eax
  205f37:	3c 10                	cmp    $0x10,%al
  205f39:	75 08                	jne    205f43 <resolve_gpr32+0x2a>
  205f3b:	8b 45 f4             	mov    -0xc(%rbp),%eax
  205f3e:	83 c0 15             	add    $0x15,%eax
  205f41:	eb 06                	jmp    205f49 <resolve_gpr32+0x30>
  205f43:	8b 45 f4             	mov    -0xc(%rbp),%eax
  205f46:	83 c0 25             	add    $0x25,%eax
  205f49:	c9                   	leaveq 
  205f4a:	c3                   	retq   

0000000000205f4b <resolve_reg>:
  205f4b:	55                   	push   %rbp
  205f4c:	48 89 e5             	mov    %rsp,%rbp
  205f4f:	48 83 ec 10          	sub    $0x10,%rsp
  205f53:	48 89 7d f8          	mov    %rdi,-0x8(%rbp)
  205f57:	89 75 f4             	mov    %esi,-0xc(%rbp)
  205f5a:	89 d0                	mov    %edx,%eax
  205f5c:	88 45 f0             	mov    %al,-0x10(%rbp)
  205f5f:	83 7d f4 06          	cmpl   $0x6,-0xc(%rbp)
  205f63:	77 51                	ja     205fb6 <resolve_reg+0x6b>
  205f65:	8b 45 f4             	mov    -0xc(%rbp),%eax
  205f68:	48 8d 14 c5 00 00 00 	lea    0x0(,%rax,8),%rdx
  205f6f:	00 
  205f70:	48 b8 b0 98 20 00 00 	mov    $0x2098b0,%rax
  205f77:	00 00 00 
  205f7a:	48 8d 04 02          	lea    (%rdx,%rax,1),%rax
  205f7e:	48 8b 00             	mov    (%rax),%rax
  205f81:	ff e0                	jmpq   *%rax
  205f83:	0f b6 45 f0          	movzbl -0x10(%rbp),%eax
  205f87:	83 e0 07             	and    $0x7,%eax
  205f8a:	83 c0 6b             	add    $0x6b,%eax
  205f8d:	eb 2c                	jmp    205fbb <resolve_reg+0x70>
  205f8f:	0f b6 45 f0          	movzbl -0x10(%rbp),%eax
  205f93:	83 c0 7b             	add    $0x7b,%eax
  205f96:	eb 23                	jmp    205fbb <resolve_reg+0x70>
  205f98:	0f b6 45 f0          	movzbl -0x10(%rbp),%eax
  205f9c:	83 c0 4b             	add    $0x4b,%eax
  205f9f:	eb 1a                	jmp    205fbb <resolve_reg+0x70>
  205fa1:	0f b6 45 f0          	movzbl -0x10(%rbp),%eax
  205fa5:	83 c0 5b             	add    $0x5b,%eax
  205fa8:	eb 11                	jmp    205fbb <resolve_reg+0x70>
  205faa:	0f b6 45 f0          	movzbl -0x10(%rbp),%eax
  205fae:	83 e0 07             	and    $0x7,%eax
  205fb1:	83 c0 45             	add    $0x45,%eax
  205fb4:	eb 05                	jmp    205fbb <resolve_reg+0x70>
  205fb6:	b8 00 00 00 00       	mov    $0x0,%eax
  205fbb:	c9                   	leaveq 
  205fbc:	c3                   	retq   

0000000000205fbd <decode_imm>:
  205fbd:	55                   	push   %rbp
  205fbe:	48 89 e5             	mov    %rsp,%rbp
  205fc1:	48 83 ec 20          	sub    $0x20,%rsp
  205fc5:	48 89 7d f8          	mov    %rdi,-0x8(%rbp)
  205fc9:	89 75 f4             	mov    %esi,-0xc(%rbp)
  205fcc:	48 89 55 e8          	mov    %rdx,-0x18(%rbp)
  205fd0:	8b 55 f4             	mov    -0xc(%rbp),%edx
  205fd3:	48 8b 45 f8          	mov    -0x8(%rbp),%rax
  205fd7:	89 d6                	mov    %edx,%esi
  205fd9:	48 89 c7             	mov    %rax,%rdi
  205fdc:	48 b8 1c 58 20 00 00 	mov    $0x20581c,%rax
  205fe3:	00 00 00 
  205fe6:	ff d0                	callq  *%rax
  205fe8:	89 c2                	mov    %eax,%edx
  205fea:	48 8b 45 e8          	mov    -0x18(%rbp),%rax
  205fee:	88 50 04             	mov    %dl,0x4(%rax)
  205ff1:	48 8b 45 e8          	mov    -0x18(%rbp),%rax
  205ff5:	c7 00 8f 00 00 00    	movl   $0x8f,(%rax)
  205ffb:	48 8b 45 e8          	mov    -0x18(%rbp),%rax
  205fff:	0f b6 40 04          	movzbl 0x4(%rax),%eax
  206003:	0f b6 c0             	movzbl %al,%eax
  206006:	83 f8 10             	cmp    $0x10,%eax
  206009:	74 36                	je     206041 <decode_imm+0x84>
  20600b:	83 f8 10             	cmp    $0x10,%eax
  20600e:	7f 07                	jg     206017 <decode_imm+0x5a>
  206010:	83 f8 08             	cmp    $0x8,%eax
  206013:	74 0e                	je     206023 <decode_imm+0x66>
  206015:	eb 7f                	jmp    206096 <decode_imm+0xd9>
  206017:	83 f8 20             	cmp    $0x20,%eax
  20601a:	74 42                	je     20605e <decode_imm+0xa1>
  20601c:	83 f8 40             	cmp    $0x40,%eax
  20601f:	74 59                	je     20607a <decode_imm+0xbd>
  206021:	eb 73                	jmp    206096 <decode_imm+0xd9>
  206023:	48 8b 45 f8          	mov    -0x8(%rbp),%rax
  206027:	48 89 c7             	mov    %rax,%rdi
  20602a:	48 b8 63 3a 20 00 00 	mov    $0x203a63,%rax
  206031:	00 00 00 
  206034:	ff d0                	callq  *%rax
  206036:	89 c2                	mov    %eax,%edx
  206038:	48 8b 45 e8          	mov    -0x18(%rbp),%rax
  20603c:	88 50 08             	mov    %dl,0x8(%rax)
  20603f:	eb 55                	jmp    206096 <decode_imm+0xd9>
  206041:	48 8b 45 f8          	mov    -0x8(%rbp),%rax
  206045:	48 89 c7             	mov    %rax,%rdi
  206048:	48 b8 84 3a 20 00 00 	mov    $0x203a84,%rax
  20604f:	00 00 00 
  206052:	ff d0                	callq  *%rax
  206054:	48 8b 55 e8          	mov    -0x18(%rbp),%rdx
  206058:	66 89 42 08          	mov    %ax,0x8(%rdx)
  20605c:	eb 38                	jmp    206096 <decode_imm+0xd9>
  20605e:	48 8b 45 f8          	mov    -0x8(%rbp),%rax
  206062:	48 89 c7             	mov    %rax,%rdi
  206065:	48 b8 d5 3a 20 00 00 	mov    $0x203ad5,%rax
  20606c:	00 00 00 
  20606f:	ff d0                	callq  *%rax
  206071:	48 8b 55 e8          	mov    -0x18(%rbp),%rdx
  206075:	89 42 08             	mov    %eax,0x8(%rdx)
  206078:	eb 1c                	jmp    206096 <decode_imm+0xd9>
  20607a:	48 8b 45 f8          	mov    -0x8(%rbp),%rax
  20607e:	48 89 c7             	mov    %rax,%rdi
  206081:	48 b8 62 3b 20 00 00 	mov    $0x203b62,%rax
  206088:	00 00 00 
  20608b:	ff d0                	callq  *%rax
  20608d:	48 8b 55 e8          	mov    -0x18(%rbp),%rdx
  206091:	48 89 42 08          	mov    %rax,0x8(%rdx)
  206095:	90                   	nop
  206096:	c9                   	leaveq 
  206097:	c3                   	retq   

0000000000206098 <decode_modrm>:
  206098:	55                   	push   %rbp
  206099:	48 89 e5             	mov    %rsp,%rbp
  20609c:	53                   	push   %rbx
  20609d:	48 83 ec 48          	sub    $0x48,%rsp
  2060a1:	48 89 7d d8          	mov    %rdi,-0x28(%rbp)
  2060a5:	48 89 75 d0          	mov    %rsi,-0x30(%rbp)
  2060a9:	89 55 cc             	mov    %edx,-0x34(%rbp)
  2060ac:	89 c8                	mov    %ecx,%eax
  2060ae:	4c 89 45 c0          	mov    %r8,-0x40(%rbp)
  2060b2:	44 89 c9             	mov    %r9d,%ecx
  2060b5:	8b 55 10             	mov    0x10(%rbp),%edx
  2060b8:	88 45 c8             	mov    %al,-0x38(%rbp)
  2060bb:	88 4d bc             	mov    %cl,-0x44(%rbp)
  2060be:	88 55 b8             	mov    %dl,-0x48(%rbp)
  2060c1:	48 8b 45 d8          	mov    -0x28(%rbp),%rax
  2060c5:	48 89 c7             	mov    %rax,%rdi
  2060c8:	48 b8 9c 38 20 00 00 	mov    $0x20389c,%rax
  2060cf:	00 00 00 
  2060d2:	ff d0                	callq  *%rax
  2060d4:	48 8b 45 d8          	mov    -0x28(%rbp),%rax
  2060d8:	0f b6 40 08          	movzbl 0x8(%rax),%eax
  2060dc:	0f b6 c0             	movzbl %al,%eax
  2060df:	48 8b 55 d8          	mov    -0x28(%rbp),%rdx
  2060e3:	48 98                	cltq   
  2060e5:	0f b6 84 02 42 01 00 	movzbl 0x142(%rdx,%rax,1),%eax
  2060ec:	00 
  2060ed:	c0 e8 06             	shr    $0x6,%al
  2060f0:	88 45 ef             	mov    %al,-0x11(%rbp)
  2060f3:	48 8b 45 d8          	mov    -0x28(%rbp),%rax
  2060f7:	0f b6 80 31 01 00 00 	movzbl 0x131(%rax),%eax
  2060fe:	0f b6 c0             	movzbl %al,%eax
  206101:	83 e0 01             	and    $0x1,%eax
  206104:	c1 e0 03             	shl    $0x3,%eax
  206107:	89 c1                	mov    %eax,%ecx
  206109:	48 8b 45 d8          	mov    -0x28(%rbp),%rax
  20610d:	0f b6 40 08          	movzbl 0x8(%rax),%eax
  206111:	0f b6 c0             	movzbl %al,%eax
  206114:	48 8b 55 d8          	mov    -0x28(%rbp),%rdx
  206118:	48 98                	cltq   
  20611a:	0f b6 84 02 42 01 00 	movzbl 0x142(%rdx,%rax,1),%eax
  206121:	00 
  206122:	83 e0 07             	and    $0x7,%eax
  206125:	09 c8                	or     %ecx,%eax
  206127:	88 45 ee             	mov    %al,-0x12(%rbp)
  20612a:	48 8b 45 d8          	mov    -0x28(%rbp),%rax
  20612e:	0f b6 80 31 01 00 00 	movzbl 0x131(%rax),%eax
  206135:	83 e0 07             	and    $0x7,%eax
  206138:	c0 e8 02             	shr    $0x2,%al
  20613b:	0f b6 c0             	movzbl %al,%eax
  20613e:	c1 e0 03             	shl    $0x3,%eax
  206141:	89 c1                	mov    %eax,%ecx
  206143:	48 8b 45 d8          	mov    -0x28(%rbp),%rax
  206147:	0f b6 40 08          	movzbl 0x8(%rax),%eax
  20614b:	0f b6 c0             	movzbl %al,%eax
  20614e:	48 8b 55 d8          	mov    -0x28(%rbp),%rdx
  206152:	48 98                	cltq   
  206154:	0f b6 84 02 42 01 00 	movzbl 0x142(%rdx,%rax,1),%eax
  20615b:	00 
  20615c:	c0 e8 03             	shr    $0x3,%al
  20615f:	83 e0 07             	and    $0x7,%eax
  206162:	09 c8                	or     %ecx,%eax
  206164:	88 45 ed             	mov    %al,-0x13(%rbp)
  206167:	8b 55 cc             	mov    -0x34(%rbp),%edx
  20616a:	48 8b 45 d8          	mov    -0x28(%rbp),%rax
  20616e:	89 d6                	mov    %edx,%esi
  206170:	48 89 c7             	mov    %rax,%rdi
  206173:	48 b8 1c 58 20 00 00 	mov    $0x20581c,%rax
  20617a:	00 00 00 
  20617d:	ff d0                	callq  *%rax
  20617f:	89 c2                	mov    %eax,%edx
  206181:	48 8b 45 d0          	mov    -0x30(%rbp),%rax
  206185:	88 50 04             	mov    %dl,0x4(%rax)
  206188:	80 7d ef 03          	cmpb   $0x3,-0x11(%rbp)
  20618c:	0f 85 85 00 00 00    	jne    206217 <decode_modrm+0x17f>
  206192:	48 8b 45 d0          	mov    -0x30(%rbp),%rax
  206196:	c7 00 8c 00 00 00    	movl   $0x8c,(%rax)
  20619c:	80 7d c8 01          	cmpb   $0x1,-0x38(%rbp)
  2061a0:	75 30                	jne    2061d2 <decode_modrm+0x13a>
  2061a2:	0f b6 55 ee          	movzbl -0x12(%rbp),%edx
  2061a6:	48 8b 45 d0          	mov    -0x30(%rbp),%rax
  2061aa:	0f b6 40 04          	movzbl 0x4(%rax),%eax
  2061ae:	0f b6 c8             	movzbl %al,%ecx
  2061b1:	48 8b 45 d8          	mov    -0x28(%rbp),%rax
  2061b5:	89 ce                	mov    %ecx,%esi
  2061b7:	48 89 c7             	mov    %rax,%rdi
  2061ba:	48 b8 bf 5d 20 00 00 	mov    $0x205dbf,%rax
  2061c1:	00 00 00 
  2061c4:	ff d0                	callq  *%rax
  2061c6:	48 8b 55 d0          	mov    -0x30(%rbp),%rdx
  2061ca:	89 42 10             	mov    %eax,0x10(%rdx)
  2061cd:	e9 c1 04 00 00       	jmpq   206693 <decode_modrm+0x5fb>
  2061d2:	48 8b 45 d8          	mov    -0x28(%rbp),%rax
  2061d6:	0f b6 80 31 01 00 00 	movzbl 0x131(%rax),%eax
  2061dd:	0f b6 c0             	movzbl %al,%eax
  2061e0:	83 e0 01             	and    $0x1,%eax
  2061e3:	c1 e0 03             	shl    $0x3,%eax
  2061e6:	0f b6 55 ee          	movzbl -0x12(%rbp),%edx
  2061ea:	83 e2 07             	and    $0x7,%edx
  2061ed:	09 d0                	or     %edx,%eax
  2061ef:	0f b6 d0             	movzbl %al,%edx
  2061f2:	0f b6 4d c8          	movzbl -0x38(%rbp),%ecx
  2061f6:	48 8b 45 d8          	mov    -0x28(%rbp),%rax
  2061fa:	89 ce                	mov    %ecx,%esi
  2061fc:	48 89 c7             	mov    %rax,%rdi
  2061ff:	48 b8 4b 5f 20 00 00 	mov    $0x205f4b,%rax
  206206:	00 00 00 
  206209:	ff d0                	callq  *%rax
  20620b:	48 8b 55 d0          	mov    -0x30(%rbp),%rdx
  20620f:	89 42 10             	mov    %eax,0x10(%rdx)
  206212:	e9 7c 04 00 00       	jmpq   206693 <decode_modrm+0x5fb>
  206217:	48 8b 45 d0          	mov    -0x30(%rbp),%rax
  20621b:	c7 00 8d 00 00 00    	movl   $0x8d,(%rax)
  206221:	48 8b 45 d8          	mov    -0x28(%rbp),%rax
  206225:	0f b6 80 3c 01 00 00 	movzbl 0x13c(%rax),%eax
  20622c:	3c 40                	cmp    $0x40,%al
  20622e:	0f 85 b1 01 00 00    	jne    2063e5 <decode_modrm+0x34d>
  206234:	0f b6 45 ee          	movzbl -0x12(%rbp),%eax
  206238:	83 c0 35             	add    $0x35,%eax
  20623b:	89 c2                	mov    %eax,%edx
  20623d:	48 8b 45 d0          	mov    -0x30(%rbp),%rax
  206241:	89 50 10             	mov    %edx,0x10(%rax)
  206244:	80 7d ef 01          	cmpb   $0x1,-0x11(%rbp)
  206248:	75 0a                	jne    206254 <decode_modrm+0x1bc>
  20624a:	48 8b 45 d0          	mov    -0x30(%rbp),%rax
  20624e:	c6 40 18 08          	movb   $0x8,0x18(%rax)
  206252:	eb 3f                	jmp    206293 <decode_modrm+0x1fb>
  206254:	80 7d ef 02          	cmpb   $0x2,-0x11(%rbp)
  206258:	75 0a                	jne    206264 <decode_modrm+0x1cc>
  20625a:	48 8b 45 d0          	mov    -0x30(%rbp),%rax
  20625e:	c6 40 18 20          	movb   $0x20,0x18(%rax)
  206262:	eb 2f                	jmp    206293 <decode_modrm+0x1fb>
  206264:	80 7d ef 00          	cmpb   $0x0,-0x11(%rbp)
  206268:	75 21                	jne    20628b <decode_modrm+0x1f3>
  20626a:	0f b6 45 ee          	movzbl -0x12(%rbp),%eax
  20626e:	83 e0 07             	and    $0x7,%eax
  206271:	83 f8 05             	cmp    $0x5,%eax
  206274:	75 15                	jne    20628b <decode_modrm+0x1f3>
  206276:	48 8b 45 d0          	mov    -0x30(%rbp),%rax
  20627a:	c7 40 10 8b 00 00 00 	movl   $0x8b,0x10(%rax)
  206281:	48 8b 45 d0          	mov    -0x30(%rbp),%rax
  206285:	c6 40 18 20          	movb   $0x20,0x18(%rax)
  206289:	eb 08                	jmp    206293 <decode_modrm+0x1fb>
  20628b:	48 8b 45 d0          	mov    -0x30(%rbp),%rax
  20628f:	c6 40 18 00          	movb   $0x0,0x18(%rax)
  206293:	0f b6 45 ee          	movzbl -0x12(%rbp),%eax
  206297:	83 e0 07             	and    $0x7,%eax
  20629a:	83 f8 04             	cmp    $0x4,%eax
  20629d:	0f 85 f0 03 00 00    	jne    206693 <decode_modrm+0x5fb>
  2062a3:	48 8b 45 d8          	mov    -0x28(%rbp),%rax
  2062a7:	48 89 c7             	mov    %rax,%rdi
  2062aa:	48 b8 9c 38 20 00 00 	mov    $0x20389c,%rax
  2062b1:	00 00 00 
  2062b4:	ff d0                	callq  *%rax
  2062b6:	48 8b 45 d8          	mov    -0x28(%rbp),%rax
  2062ba:	0f b6 40 08          	movzbl 0x8(%rax),%eax
  2062be:	0f b6 c0             	movzbl %al,%eax
  2062c1:	48 8b 55 d8          	mov    -0x28(%rbp),%rdx
  2062c5:	48 98                	cltq   
  2062c7:	0f b6 84 02 42 01 00 	movzbl 0x142(%rdx,%rax,1),%eax
  2062ce:	00 
  2062cf:	c0 e8 06             	shr    $0x6,%al
  2062d2:	0f b6 c0             	movzbl %al,%eax
  2062d5:	ba 01 00 00 00       	mov    $0x1,%edx
  2062da:	89 d3                	mov    %edx,%ebx
  2062dc:	89 c1                	mov    %eax,%ecx
  2062de:	d3 e3                	shl    %cl,%ebx
  2062e0:	89 d8                	mov    %ebx,%eax
  2062e2:	89 c2                	mov    %eax,%edx
  2062e4:	83 e2 fe             	and    $0xfffffffffffffffe,%edx
  2062e7:	48 8b 45 d0          	mov    -0x30(%rbp),%rax
  2062eb:	88 50 19             	mov    %dl,0x19(%rax)
  2062ee:	48 8b 45 d8          	mov    -0x28(%rbp),%rax
  2062f2:	0f b6 40 08          	movzbl 0x8(%rax),%eax
  2062f6:	0f b6 c0             	movzbl %al,%eax
  2062f9:	48 8b 55 d8          	mov    -0x28(%rbp),%rdx
  2062fd:	48 98                	cltq   
  2062ff:	0f b6 84 02 42 01 00 	movzbl 0x142(%rdx,%rax,1),%eax
  206306:	00 
  206307:	c0 e8 03             	shr    $0x3,%al
  20630a:	0f b6 c0             	movzbl %al,%eax
  20630d:	89 c2                	mov    %eax,%edx
  20630f:	83 e2 07             	and    $0x7,%edx
  206312:	48 8b 45 d8          	mov    -0x28(%rbp),%rax
  206316:	0f b6 80 31 01 00 00 	movzbl 0x131(%rax),%eax
  20631d:	83 e0 03             	and    $0x3,%eax
  206320:	d0 e8                	shr    %al
  206322:	0f b6 c0             	movzbl %al,%eax
  206325:	c1 e0 03             	shl    $0x3,%eax
  206328:	09 d0                	or     %edx,%eax
  20632a:	83 c0 35             	add    $0x35,%eax
  20632d:	89 c2                	mov    %eax,%edx
  20632f:	48 8b 45 d0          	mov    -0x30(%rbp),%rax
  206333:	89 50 14             	mov    %edx,0x14(%rax)
  206336:	48 8b 45 d8          	mov    -0x28(%rbp),%rax
  20633a:	0f b6 40 08          	movzbl 0x8(%rax),%eax
  20633e:	0f b6 c0             	movzbl %al,%eax
  206341:	48 8b 55 d8          	mov    -0x28(%rbp),%rdx
  206345:	48 98                	cltq   
  206347:	0f b6 84 02 42 01 00 	movzbl 0x142(%rdx,%rax,1),%eax
  20634e:	00 
  20634f:	0f b6 c0             	movzbl %al,%eax
  206352:	89 c2                	mov    %eax,%edx
  206354:	83 e2 07             	and    $0x7,%edx
  206357:	48 8b 45 d8          	mov    -0x28(%rbp),%rax
  20635b:	0f b6 80 31 01 00 00 	movzbl 0x131(%rax),%eax
  206362:	0f b6 c0             	movzbl %al,%eax
  206365:	83 e0 01             	and    $0x1,%eax
  206368:	c1 e0 03             	shl    $0x3,%eax
  20636b:	09 d0                	or     %edx,%eax
  20636d:	83 c0 35             	add    $0x35,%eax
  206370:	89 c2                	mov    %eax,%edx
  206372:	48 8b 45 d0          	mov    -0x30(%rbp),%rax
  206376:	89 50 10             	mov    %edx,0x10(%rax)
  206379:	48 8b 45 d0          	mov    -0x30(%rbp),%rax
  20637d:	8b 40 14             	mov    0x14(%rax),%eax
  206380:	83 f8 39             	cmp    $0x39,%eax
  206383:	75 13                	jne    206398 <decode_modrm+0x300>
  206385:	48 8b 45 d0          	mov    -0x30(%rbp),%rax
  206389:	c7 40 14 00 00 00 00 	movl   $0x0,0x14(%rax)
  206390:	48 8b 45 d0          	mov    -0x30(%rbp),%rax
  206394:	c6 40 19 00          	movb   $0x0,0x19(%rax)
  206398:	48 8b 45 d0          	mov    -0x30(%rbp),%rax
  20639c:	8b 40 10             	mov    0x10(%rax),%eax
  20639f:	83 f8 3a             	cmp    $0x3a,%eax
  2063a2:	74 10                	je     2063b4 <decode_modrm+0x31c>
  2063a4:	48 8b 45 d0          	mov    -0x30(%rbp),%rax
  2063a8:	8b 40 10             	mov    0x10(%rax),%eax
  2063ab:	83 f8 42             	cmp    $0x42,%eax
  2063ae:	0f 85 df 02 00 00    	jne    206693 <decode_modrm+0x5fb>
  2063b4:	80 7d ef 00          	cmpb   $0x0,-0x11(%rbp)
  2063b8:	75 0b                	jne    2063c5 <decode_modrm+0x32d>
  2063ba:	48 8b 45 d0          	mov    -0x30(%rbp),%rax
  2063be:	c7 40 10 00 00 00 00 	movl   $0x0,0x10(%rax)
  2063c5:	80 7d ef 01          	cmpb   $0x1,-0x11(%rbp)
  2063c9:	75 0d                	jne    2063d8 <decode_modrm+0x340>
  2063cb:	48 8b 45 d0          	mov    -0x30(%rbp),%rax
  2063cf:	c6 40 18 08          	movb   $0x8,0x18(%rax)
  2063d3:	e9 bb 02 00 00       	jmpq   206693 <decode_modrm+0x5fb>
  2063d8:	48 8b 45 d0          	mov    -0x30(%rbp),%rax
  2063dc:	c6 40 18 20          	movb   $0x20,0x18(%rax)
  2063e0:	e9 ae 02 00 00       	jmpq   206693 <decode_modrm+0x5fb>
  2063e5:	48 8b 45 d8          	mov    -0x28(%rbp),%rax
  2063e9:	0f b6 80 3c 01 00 00 	movzbl 0x13c(%rax),%eax
  2063f0:	3c 20                	cmp    $0x20,%al
  2063f2:	0f 85 9f 01 00 00    	jne    206597 <decode_modrm+0x4ff>
  2063f8:	0f b6 45 ee          	movzbl -0x12(%rbp),%eax
  2063fc:	83 c0 25             	add    $0x25,%eax
  2063ff:	89 c2                	mov    %eax,%edx
  206401:	48 8b 45 d0          	mov    -0x30(%rbp),%rax
  206405:	89 50 10             	mov    %edx,0x10(%rax)
  206408:	80 7d ef 01          	cmpb   $0x1,-0x11(%rbp)
  20640c:	75 0a                	jne    206418 <decode_modrm+0x380>
  20640e:	48 8b 45 d0          	mov    -0x30(%rbp),%rax
  206412:	c6 40 18 08          	movb   $0x8,0x18(%rax)
  206416:	eb 39                	jmp    206451 <decode_modrm+0x3b9>
  206418:	80 7d ef 02          	cmpb   $0x2,-0x11(%rbp)
  20641c:	75 0a                	jne    206428 <decode_modrm+0x390>
  20641e:	48 8b 45 d0          	mov    -0x30(%rbp),%rax
  206422:	c6 40 18 20          	movb   $0x20,0x18(%rax)
  206426:	eb 29                	jmp    206451 <decode_modrm+0x3b9>
  206428:	80 7d ef 00          	cmpb   $0x0,-0x11(%rbp)
  20642c:	75 1b                	jne    206449 <decode_modrm+0x3b1>
  20642e:	80 7d ee 05          	cmpb   $0x5,-0x12(%rbp)
  206432:	75 15                	jne    206449 <decode_modrm+0x3b1>
  206434:	48 8b 45 d0          	mov    -0x30(%rbp),%rax
  206438:	c7 40 10 00 00 00 00 	movl   $0x0,0x10(%rax)
  20643f:	48 8b 45 d0          	mov    -0x30(%rbp),%rax
  206443:	c6 40 18 20          	movb   $0x20,0x18(%rax)
  206447:	eb 08                	jmp    206451 <decode_modrm+0x3b9>
  206449:	48 8b 45 d0          	mov    -0x30(%rbp),%rax
  20644d:	c6 40 18 00          	movb   $0x0,0x18(%rax)
  206451:	0f b6 45 ee          	movzbl -0x12(%rbp),%eax
  206455:	83 e0 07             	and    $0x7,%eax
  206458:	83 f8 04             	cmp    $0x4,%eax
  20645b:	0f 85 32 02 00 00    	jne    206693 <decode_modrm+0x5fb>
  206461:	48 8b 45 d8          	mov    -0x28(%rbp),%rax
  206465:	48 89 c7             	mov    %rax,%rdi
  206468:	48 b8 9c 38 20 00 00 	mov    $0x20389c,%rax
  20646f:	00 00 00 
  206472:	ff d0                	callq  *%rax
  206474:	48 8b 45 d8          	mov    -0x28(%rbp),%rax
  206478:	0f b6 40 08          	movzbl 0x8(%rax),%eax
  20647c:	0f b6 c0             	movzbl %al,%eax
  20647f:	48 8b 55 d8          	mov    -0x28(%rbp),%rdx
  206483:	48 98                	cltq   
  206485:	0f b6 84 02 42 01 00 	movzbl 0x142(%rdx,%rax,1),%eax
  20648c:	00 
  20648d:	c0 e8 06             	shr    $0x6,%al
  206490:	0f b6 c0             	movzbl %al,%eax
  206493:	ba 01 00 00 00       	mov    $0x1,%edx
  206498:	89 d3                	mov    %edx,%ebx
  20649a:	89 c1                	mov    %eax,%ecx
  20649c:	d3 e3                	shl    %cl,%ebx
  20649e:	89 d8                	mov    %ebx,%eax
  2064a0:	89 c2                	mov    %eax,%edx
  2064a2:	83 e2 fe             	and    $0xfffffffffffffffe,%edx
  2064a5:	48 8b 45 d0          	mov    -0x30(%rbp),%rax
  2064a9:	88 50 19             	mov    %dl,0x19(%rax)
  2064ac:	48 8b 45 d8          	mov    -0x28(%rbp),%rax
  2064b0:	0f b6 40 08          	movzbl 0x8(%rax),%eax
  2064b4:	0f b6 c0             	movzbl %al,%eax
  2064b7:	48 8b 55 d8          	mov    -0x28(%rbp),%rdx
  2064bb:	48 98                	cltq   
  2064bd:	0f b6 84 02 42 01 00 	movzbl 0x142(%rdx,%rax,1),%eax
  2064c4:	00 
  2064c5:	c0 e8 03             	shr    $0x3,%al
  2064c8:	0f b6 c0             	movzbl %al,%eax
  2064cb:	89 c2                	mov    %eax,%edx
  2064cd:	83 e2 07             	and    $0x7,%edx
  2064d0:	48 8b 45 d8          	mov    -0x28(%rbp),%rax
  2064d4:	0f b6 80 31 01 00 00 	movzbl 0x131(%rax),%eax
  2064db:	83 e0 03             	and    $0x3,%eax
  2064de:	d0 e8                	shr    %al
  2064e0:	0f b6 c0             	movzbl %al,%eax
  2064e3:	c1 e0 03             	shl    $0x3,%eax
  2064e6:	09 d0                	or     %edx,%eax
  2064e8:	83 c0 25             	add    $0x25,%eax
  2064eb:	89 c2                	mov    %eax,%edx
  2064ed:	48 8b 45 d0          	mov    -0x30(%rbp),%rax
  2064f1:	89 50 14             	mov    %edx,0x14(%rax)
  2064f4:	48 8b 45 d8          	mov    -0x28(%rbp),%rax
  2064f8:	0f b6 40 08          	movzbl 0x8(%rax),%eax
  2064fc:	0f b6 c0             	movzbl %al,%eax
  2064ff:	48 8b 55 d8          	mov    -0x28(%rbp),%rdx
  206503:	48 98                	cltq   
  206505:	0f b6 84 02 42 01 00 	movzbl 0x142(%rdx,%rax,1),%eax
  20650c:	00 
  20650d:	0f b6 c0             	movzbl %al,%eax
  206510:	89 c2                	mov    %eax,%edx
  206512:	83 e2 07             	and    $0x7,%edx
  206515:	48 8b 45 d8          	mov    -0x28(%rbp),%rax
  206519:	0f b6 80 31 01 00 00 	movzbl 0x131(%rax),%eax
  206520:	0f b6 c0             	movzbl %al,%eax
  206523:	83 e0 01             	and    $0x1,%eax
  206526:	c1 e0 03             	shl    $0x3,%eax
  206529:	09 d0                	or     %edx,%eax
  20652b:	83 c0 25             	add    $0x25,%eax
  20652e:	89 c2                	mov    %eax,%edx
  206530:	48 8b 45 d0          	mov    -0x30(%rbp),%rax
  206534:	89 50 10             	mov    %edx,0x10(%rax)
  206537:	48 8b 45 d0          	mov    -0x30(%rbp),%rax
  20653b:	8b 40 14             	mov    0x14(%rax),%eax
  20653e:	83 f8 29             	cmp    $0x29,%eax
  206541:	75 13                	jne    206556 <decode_modrm+0x4be>
  206543:	48 8b 45 d0          	mov    -0x30(%rbp),%rax
  206547:	c7 40 14 00 00 00 00 	movl   $0x0,0x14(%rax)
  20654e:	48 8b 45 d0          	mov    -0x30(%rbp),%rax
  206552:	c6 40 19 00          	movb   $0x0,0x19(%rax)
  206556:	48 8b 45 d0          	mov    -0x30(%rbp),%rax
  20655a:	8b 40 10             	mov    0x10(%rax),%eax
  20655d:	83 f8 2a             	cmp    $0x2a,%eax
  206560:	0f 85 2d 01 00 00    	jne    206693 <decode_modrm+0x5fb>
  206566:	80 7d ef 00          	cmpb   $0x0,-0x11(%rbp)
  20656a:	75 0b                	jne    206577 <decode_modrm+0x4df>
  20656c:	48 8b 45 d0          	mov    -0x30(%rbp),%rax
  206570:	c7 40 10 00 00 00 00 	movl   $0x0,0x10(%rax)
  206577:	80 7d ef 01          	cmpb   $0x1,-0x11(%rbp)
  20657b:	75 0d                	jne    20658a <decode_modrm+0x4f2>
  20657d:	48 8b 45 d0          	mov    -0x30(%rbp),%rax
  206581:	c6 40 18 08          	movb   $0x8,0x18(%rax)
  206585:	e9 09 01 00 00       	jmpq   206693 <decode_modrm+0x5fb>
  20658a:	48 8b 45 d0          	mov    -0x30(%rbp),%rax
  20658e:	c6 40 18 20          	movb   $0x20,0x18(%rax)
  206592:	e9 fc 00 00 00       	jmpq   206693 <decode_modrm+0x5fb>
  206597:	0f b6 45 ee          	movzbl -0x12(%rbp),%eax
  20659b:	83 f8 07             	cmp    $0x7,%eax
  20659e:	0f 87 b0 00 00 00    	ja     206654 <decode_modrm+0x5bc>
  2065a4:	89 c0                	mov    %eax,%eax
  2065a6:	48 8d 14 c5 00 00 00 	lea    0x0(,%rax,8),%rdx
  2065ad:	00 
  2065ae:	48 b8 e8 98 20 00 00 	mov    $0x2098e8,%rax
  2065b5:	00 00 00 
  2065b8:	48 8d 04 02          	lea    (%rdx,%rax,1),%rax
  2065bc:	48 8b 00             	mov    (%rax),%rax
  2065bf:	ff e0                	jmpq   *%rax
  2065c1:	48 8b 45 d0          	mov    -0x30(%rbp),%rax
  2065c5:	c7 40 10 18 00 00 00 	movl   $0x18,0x10(%rax)
  2065cc:	48 8b 45 d0          	mov    -0x30(%rbp),%rax
  2065d0:	c7 40 14 1b 00 00 00 	movl   $0x1b,0x14(%rax)
  2065d7:	eb 7b                	jmp    206654 <decode_modrm+0x5bc>
  2065d9:	48 8b 45 d0          	mov    -0x30(%rbp),%rax
  2065dd:	c7 40 10 18 00 00 00 	movl   $0x18,0x10(%rax)
  2065e4:	48 8b 45 d0          	mov    -0x30(%rbp),%rax
  2065e8:	c7 40 14 1c 00 00 00 	movl   $0x1c,0x14(%rax)
  2065ef:	eb 63                	jmp    206654 <decode_modrm+0x5bc>
  2065f1:	48 8b 45 d0          	mov    -0x30(%rbp),%rax
  2065f5:	c7 40 10 1a 00 00 00 	movl   $0x1a,0x10(%rax)
  2065fc:	48 8b 45 d0          	mov    -0x30(%rbp),%rax
  206600:	c7 40 14 1b 00 00 00 	movl   $0x1b,0x14(%rax)
  206607:	eb 4b                	jmp    206654 <decode_modrm+0x5bc>
  206609:	48 8b 45 d0          	mov    -0x30(%rbp),%rax
  20660d:	c7 40 10 1a 00 00 00 	movl   $0x1a,0x10(%rax)
  206614:	48 8b 45 d0          	mov    -0x30(%rbp),%rax
  206618:	c7 40 14 1c 00 00 00 	movl   $0x1c,0x14(%rax)
  20661f:	eb 33                	jmp    206654 <decode_modrm+0x5bc>
  206621:	48 8b 45 d0          	mov    -0x30(%rbp),%rax
  206625:	c7 40 10 1b 00 00 00 	movl   $0x1b,0x10(%rax)
  20662c:	eb 26                	jmp    206654 <decode_modrm+0x5bc>
  20662e:	48 8b 45 d0          	mov    -0x30(%rbp),%rax
  206632:	c7 40 10 1c 00 00 00 	movl   $0x1c,0x10(%rax)
  206639:	eb 19                	jmp    206654 <decode_modrm+0x5bc>
  20663b:	48 8b 45 d0          	mov    -0x30(%rbp),%rax
  20663f:	c7 40 10 1a 00 00 00 	movl   $0x1a,0x10(%rax)
  206646:	eb 0c                	jmp    206654 <decode_modrm+0x5bc>
  206648:	48 8b 45 d0          	mov    -0x30(%rbp),%rax
  20664c:	c7 40 10 18 00 00 00 	movl   $0x18,0x10(%rax)
  206653:	90                   	nop
  206654:	80 7d ef 00          	cmpb   $0x0,-0x11(%rbp)
  206658:	75 1b                	jne    206675 <decode_modrm+0x5dd>
  20665a:	80 7d ee 06          	cmpb   $0x6,-0x12(%rbp)
  20665e:	75 15                	jne    206675 <decode_modrm+0x5dd>
  206660:	48 8b 45 d0          	mov    -0x30(%rbp),%rax
  206664:	c6 40 18 10          	movb   $0x10,0x18(%rax)
  206668:	48 8b 45 d0          	mov    -0x30(%rbp),%rax
  20666c:	c7 40 10 00 00 00 00 	movl   $0x0,0x10(%rax)
  206673:	eb 1e                	jmp    206693 <decode_modrm+0x5fb>
  206675:	80 7d ef 01          	cmpb   $0x1,-0x11(%rbp)
  206679:	75 0a                	jne    206685 <decode_modrm+0x5ed>
  20667b:	48 8b 45 d0          	mov    -0x30(%rbp),%rax
  20667f:	c6 40 18 08          	movb   $0x8,0x18(%rax)
  206683:	eb 0e                	jmp    206693 <decode_modrm+0x5fb>
  206685:	80 7d ef 02          	cmpb   $0x2,-0x11(%rbp)
  206689:	75 08                	jne    206693 <decode_modrm+0x5fb>
  20668b:	48 8b 45 d0          	mov    -0x30(%rbp),%rax
  20668f:	c6 40 18 10          	movb   $0x10,0x18(%rax)
  206693:	48 8b 45 d0          	mov    -0x30(%rbp),%rax
  206697:	0f b6 40 18          	movzbl 0x18(%rax),%eax
  20669b:	0f b6 c0             	movzbl %al,%eax
  20669e:	83 f8 10             	cmp    $0x10,%eax
  2066a1:	74 34                	je     2066d7 <decode_modrm+0x63f>
  2066a3:	83 f8 10             	cmp    $0x10,%eax
  2066a6:	7f 07                	jg     2066af <decode_modrm+0x617>
  2066a8:	83 f8 08             	cmp    $0x8,%eax
  2066ab:	74 0e                	je     2066bb <decode_modrm+0x623>
  2066ad:	eb 7d                	jmp    20672c <decode_modrm+0x694>
  2066af:	83 f8 20             	cmp    $0x20,%eax
  2066b2:	74 40                	je     2066f4 <decode_modrm+0x65c>
  2066b4:	83 f8 40             	cmp    $0x40,%eax
  2066b7:	74 57                	je     206710 <decode_modrm+0x678>
  2066b9:	eb 71                	jmp    20672c <decode_modrm+0x694>
  2066bb:	48 8b 45 d8          	mov    -0x28(%rbp),%rax
  2066bf:	48 89 c7             	mov    %rax,%rdi
  2066c2:	48 b8 63 3a 20 00 00 	mov    $0x203a63,%rax
  2066c9:	00 00 00 
  2066cc:	ff d0                	callq  *%rax
  2066ce:	48 8b 55 d0          	mov    -0x30(%rbp),%rdx
  2066d2:	88 42 08             	mov    %al,0x8(%rdx)
  2066d5:	eb 55                	jmp    20672c <decode_modrm+0x694>
  2066d7:	48 8b 45 d8          	mov    -0x28(%rbp),%rax
  2066db:	48 89 c7             	mov    %rax,%rdi
  2066de:	48 b8 84 3a 20 00 00 	mov    $0x203a84,%rax
  2066e5:	00 00 00 
  2066e8:	ff d0                	callq  *%rax
  2066ea:	48 8b 55 d0          	mov    -0x30(%rbp),%rdx
  2066ee:	66 89 42 08          	mov    %ax,0x8(%rdx)
  2066f2:	eb 38                	jmp    20672c <decode_modrm+0x694>
  2066f4:	48 8b 45 d8          	mov    -0x28(%rbp),%rax
  2066f8:	48 89 c7             	mov    %rax,%rdi
  2066fb:	48 b8 d5 3a 20 00 00 	mov    $0x203ad5,%rax
  206702:	00 00 00 
  206705:	ff d0                	callq  *%rax
  206707:	48 8b 55 d0          	mov    -0x30(%rbp),%rdx
  20670b:	89 42 08             	mov    %eax,0x8(%rdx)
  20670e:	eb 1c                	jmp    20672c <decode_modrm+0x694>
  206710:	48 8b 45 d8          	mov    -0x28(%rbp),%rax
  206714:	48 89 c7             	mov    %rax,%rdi
  206717:	48 b8 62 3b 20 00 00 	mov    $0x203b62,%rax
  20671e:	00 00 00 
  206721:	ff d0                	callq  *%rax
  206723:	48 8b 55 d0          	mov    -0x30(%rbp),%rdx
  206727:	48 89 42 08          	mov    %rax,0x8(%rdx)
  20672b:	90                   	nop
  20672c:	48 83 7d c0 00       	cmpq   $0x0,-0x40(%rbp)
  206731:	0f 84 83 00 00 00    	je     2067ba <decode_modrm+0x722>
  206737:	48 8b 45 c0          	mov    -0x40(%rbp),%rax
  20673b:	c7 00 8c 00 00 00    	movl   $0x8c,(%rax)
  206741:	0f b6 55 bc          	movzbl -0x44(%rbp),%edx
  206745:	48 8b 45 d8          	mov    -0x28(%rbp),%rax
  206749:	89 d6                	mov    %edx,%esi
  20674b:	48 89 c7             	mov    %rax,%rdi
  20674e:	48 b8 1c 58 20 00 00 	mov    $0x20581c,%rax
  206755:	00 00 00 
  206758:	ff d0                	callq  *%rax
  20675a:	89 c2                	mov    %eax,%edx
  20675c:	48 8b 45 c0          	mov    -0x40(%rbp),%rax
  206760:	88 50 04             	mov    %dl,0x4(%rax)
  206763:	80 7d b8 01          	cmpb   $0x1,-0x48(%rbp)
  206767:	75 2d                	jne    206796 <decode_modrm+0x6fe>
  206769:	0f b6 55 ed          	movzbl -0x13(%rbp),%edx
  20676d:	48 8b 45 c0          	mov    -0x40(%rbp),%rax
  206771:	0f b6 40 04          	movzbl 0x4(%rax),%eax
  206775:	0f b6 c8             	movzbl %al,%ecx
  206778:	48 8b 45 d8          	mov    -0x28(%rbp),%rax
  20677c:	89 ce                	mov    %ecx,%esi
  20677e:	48 89 c7             	mov    %rax,%rdi
  206781:	48 b8 bf 5d 20 00 00 	mov    $0x205dbf,%rax
  206788:	00 00 00 
  20678b:	ff d0                	callq  *%rax
  20678d:	48 8b 55 c0          	mov    -0x40(%rbp),%rdx
  206791:	89 42 10             	mov    %eax,0x10(%rdx)
  206794:	eb 24                	jmp    2067ba <decode_modrm+0x722>
  206796:	0f b6 55 ed          	movzbl -0x13(%rbp),%edx
  20679a:	0f b6 4d b8          	movzbl -0x48(%rbp),%ecx
  20679e:	48 8b 45 d8          	mov    -0x28(%rbp),%rax
  2067a2:	89 ce                	mov    %ecx,%esi
  2067a4:	48 89 c7             	mov    %rax,%rdi
  2067a7:	48 b8 4b 5f 20 00 00 	mov    $0x205f4b,%rax
  2067ae:	00 00 00 
  2067b1:	ff d0                	callq  *%rax
  2067b3:	48 8b 55 c0          	mov    -0x40(%rbp),%rdx
  2067b7:	89 42 10             	mov    %eax,0x10(%rdx)
  2067ba:	48 83 c4 48          	add    $0x48,%rsp
  2067be:	5b                   	pop    %rbx
  2067bf:	c9                   	leaveq 
  2067c0:	c3                   	retq   

00000000002067c1 <decode_o>:
  2067c1:	55                   	push   %rbp
  2067c2:	48 89 e5             	mov    %rsp,%rbp
  2067c5:	48 83 ec 20          	sub    $0x20,%rsp
  2067c9:	48 89 7d f8          	mov    %rdi,-0x8(%rbp)
  2067cd:	89 75 f4             	mov    %esi,-0xc(%rbp)
  2067d0:	48 89 55 e8          	mov    %rdx,-0x18(%rbp)
  2067d4:	48 8b 45 f8          	mov    -0x8(%rbp),%rax
  2067d8:	0f b6 80 3c 01 00 00 	movzbl 0x13c(%rax),%eax
  2067df:	0f b6 c0             	movzbl %al,%eax
  2067e2:	83 f8 20             	cmp    $0x20,%eax
  2067e5:	74 34                	je     20681b <decode_o+0x5a>
  2067e7:	83 f8 40             	cmp    $0x40,%eax
  2067ea:	74 0a                	je     2067f6 <decode_o+0x35>
  2067ec:	83 f8 10             	cmp    $0x10,%eax
  2067ef:	74 4e                	je     20683f <decode_o+0x7e>
  2067f1:	e9 98 00 00 00       	jmpq   20688e <decode_o+0xcd>
  2067f6:	48 8b 45 e8          	mov    -0x18(%rbp),%rax
  2067fa:	c6 40 18 40          	movb   $0x40,0x18(%rax)
  2067fe:	48 8b 45 f8          	mov    -0x8(%rbp),%rax
  206802:	48 89 c7             	mov    %rax,%rdi
  206805:	48 b8 62 3b 20 00 00 	mov    $0x203b62,%rax
  20680c:	00 00 00 
  20680f:	ff d0                	callq  *%rax
  206811:	48 8b 55 e8          	mov    -0x18(%rbp),%rdx
  206815:	48 89 42 08          	mov    %rax,0x8(%rdx)
  206819:	eb 48                	jmp    206863 <decode_o+0xa2>
  20681b:	48 8b 45 e8          	mov    -0x18(%rbp),%rax
  20681f:	c6 40 18 20          	movb   $0x20,0x18(%rax)
  206823:	48 8b 45 f8          	mov    -0x8(%rbp),%rax
  206827:	48 89 c7             	mov    %rax,%rdi
  20682a:	48 b8 d5 3a 20 00 00 	mov    $0x203ad5,%rax
  206831:	00 00 00 
  206834:	ff d0                	callq  *%rax
  206836:	48 8b 55 e8          	mov    -0x18(%rbp),%rdx
  20683a:	89 42 08             	mov    %eax,0x8(%rdx)
  20683d:	eb 24                	jmp    206863 <decode_o+0xa2>
  20683f:	48 8b 45 e8          	mov    -0x18(%rbp),%rax
  206843:	c6 40 18 10          	movb   $0x10,0x18(%rax)
  206847:	48 8b 45 f8          	mov    -0x8(%rbp),%rax
  20684b:	48 89 c7             	mov    %rax,%rdi
  20684e:	48 b8 84 3a 20 00 00 	mov    $0x203a84,%rax
  206855:	00 00 00 
  206858:	ff d0                	callq  *%rax
  20685a:	48 8b 55 e8          	mov    -0x18(%rbp),%rdx
  20685e:	66 89 42 08          	mov    %ax,0x8(%rdx)
  206862:	90                   	nop
  206863:	48 8b 45 e8          	mov    -0x18(%rbp),%rax
  206867:	c7 00 8d 00 00 00    	movl   $0x8d,(%rax)
  20686d:	8b 55 f4             	mov    -0xc(%rbp),%edx
  206870:	48 8b 45 f8          	mov    -0x8(%rbp),%rax
  206874:	89 d6                	mov    %edx,%esi
  206876:	48 89 c7             	mov    %rax,%rdi
  206879:	48 b8 1c 58 20 00 00 	mov    $0x20581c,%rax
  206880:	00 00 00 
  206883:	ff d0                	callq  *%rax
  206885:	89 c2                	mov    %eax,%edx
  206887:	48 8b 45 e8          	mov    -0x18(%rbp),%rax
  20688b:	88 50 04             	mov    %dl,0x4(%rax)
  20688e:	c9                   	leaveq 
  20688f:	c3                   	retq   

0000000000206890 <disasm_operands>:
  206890:	55                   	push   %rbp
  206891:	48 89 e5             	mov    %rsp,%rbp
  206894:	41 55                	push   %r13
  206896:	41 54                	push   %r12
  206898:	53                   	push   %rbx
  206899:	48 83 ec 38          	sub    $0x38,%rsp
  20689d:	49 89 fc             	mov    %rdi,%r12
  2068a0:	49 8b 84 24 c0 00 00 	mov    0xc0(%r12),%rax
  2068a7:	00 
  2068a8:	8b 40 04             	mov    0x4(%rax),%eax
  2068ab:	89 45 d8             	mov    %eax,-0x28(%rbp)
  2068ae:	49 8b 84 24 c0 00 00 	mov    0xc0(%r12),%rax
  2068b5:	00 
  2068b6:	8b 40 0c             	mov    0xc(%rax),%eax
  2068b9:	89 45 d4             	mov    %eax,-0x2c(%rbp)
  2068bc:	49 8b 84 24 c0 00 00 	mov    0xc0(%r12),%rax
  2068c3:	00 
  2068c4:	8b 40 14             	mov    0x14(%rax),%eax
  2068c7:	89 45 d0             	mov    %eax,-0x30(%rbp)
  2068ca:	49 8b 84 24 c0 00 00 	mov    0xc0(%r12),%rax
  2068d1:	00 
  2068d2:	0f b6 40 08          	movzbl 0x8(%rax),%eax
  2068d6:	0f b6 c0             	movzbl %al,%eax
  2068d9:	89 45 cc             	mov    %eax,-0x34(%rbp)
  2068dc:	49 8b 84 24 c0 00 00 	mov    0xc0(%r12),%rax
  2068e3:	00 
  2068e4:	0f b6 40 10          	movzbl 0x10(%rax),%eax
  2068e8:	0f b6 c0             	movzbl %al,%eax
  2068eb:	89 45 c8             	mov    %eax,-0x38(%rbp)
  2068ee:	49 8b 84 24 c0 00 00 	mov    0xc0(%r12),%rax
  2068f5:	00 
  2068f6:	0f b6 40 18          	movzbl 0x18(%rax),%eax
  2068fa:	0f b6 c0             	movzbl %al,%eax
  2068fd:	89 45 c4             	mov    %eax,-0x3c(%rbp)
  206900:	49 8d 9c 24 d0 00 00 	lea    0xd0(%r12),%rbx
  206907:	00 
  206908:	83 7d d8 51          	cmpl   $0x51,-0x28(%rbp)
  20690c:	0f 87 2f 0e 00 00    	ja     207741 <disasm_operands+0xeb1>
  206912:	8b 45 d8             	mov    -0x28(%rbp),%eax
  206915:	48 8d 14 c5 00 00 00 	lea    0x0(,%rax,8),%rdx
  20691c:	00 
  20691d:	48 b8 28 99 20 00 00 	mov    $0x209928,%rax
  206924:	00 00 00 
  206927:	48 8d 04 02          	lea    (%rdx,%rax,1),%rax
  20692b:	48 8b 00             	mov    (%rax),%rax
  20692e:	ff e0                	jmpq   *%rax
  206930:	48 89 de             	mov    %rbx,%rsi
  206933:	4c 89 e7             	mov    %r12,%rdi
  206936:	48 b8 0b 5d 20 00 00 	mov    $0x205d0b,%rax
  20693d:	00 00 00 
  206940:	ff d0                	callq  *%rax
  206942:	e9 52 0e 00 00       	jmpq   207799 <disasm_operands+0xf09>
  206947:	4c 89 e7             	mov    %r12,%rdi
  20694a:	48 b8 e4 39 20 00 00 	mov    $0x2039e4,%rax
  206951:	00 00 00 
  206954:	ff d0                	callq  *%rax
  206956:	c0 e8 06             	shr    $0x6,%al
  206959:	0f b6 c0             	movzbl %al,%eax
  20695c:	83 e0 03             	and    $0x3,%eax
  20695f:	83 f8 03             	cmp    $0x3,%eax
  206962:	75 09                	jne    20696d <disasm_operands+0xdd>
  206964:	41 c6 84 24 30 01 00 	movb   $0x1,0x130(%r12)
  20696b:	00 01 
  20696d:	83 7d d4 04          	cmpl   $0x4,-0x2c(%rbp)
  206971:	0f 85 82 00 00 00    	jne    2069f9 <disasm_operands+0x169>
  206977:	8b 45 c8             	mov    -0x38(%rbp),%eax
  20697a:	0f b6 c8             	movzbl %al,%ecx
  20697d:	48 8d 53 20          	lea    0x20(%rbx),%rdx
  206981:	8b 45 cc             	mov    -0x34(%rbp),%eax
  206984:	c7 04 24 01 00 00 00 	movl   $0x1,(%rsp)
  20698b:	41 89 c9             	mov    %ecx,%r9d
  20698e:	49 89 d0             	mov    %rdx,%r8
  206991:	b9 01 00 00 00       	mov    $0x1,%ecx
  206996:	89 c2                	mov    %eax,%edx
  206998:	48 89 de             	mov    %rbx,%rsi
  20699b:	4c 89 e7             	mov    %r12,%rdi
  20699e:	48 b8 98 60 20 00 00 	mov    $0x206098,%rax
  2069a5:	00 00 00 
  2069a8:	ff d0                	callq  *%rax
  2069aa:	83 7d d0 05          	cmpl   $0x5,-0x30(%rbp)
  2069ae:	75 1d                	jne    2069cd <disasm_operands+0x13d>
  2069b0:	48 8d 53 40          	lea    0x40(%rbx),%rdx
  2069b4:	8b 45 c4             	mov    -0x3c(%rbp),%eax
  2069b7:	89 c6                	mov    %eax,%esi
  2069b9:	4c 89 e7             	mov    %r12,%rdi
  2069bc:	48 b8 bd 5f 20 00 00 	mov    $0x205fbd,%rax
  2069c3:	00 00 00 
  2069c6:	ff d0                	callq  *%rax
  2069c8:	e9 cc 0d 00 00       	jmpq   207799 <disasm_operands+0xf09>
  2069cd:	83 7d d0 07          	cmpl   $0x7,-0x30(%rbp)
  2069d1:	0f 85 82 0d 00 00    	jne    207759 <disasm_operands+0xec9>
  2069d7:	48 8d 43 40          	lea    0x40(%rbx),%rax
  2069db:	c7 00 8c 00 00 00    	movl   $0x8c,(%rax)
  2069e1:	48 8d 43 40          	lea    0x40(%rbx),%rax
  2069e5:	c7 40 10 02 00 00 00 	movl   $0x2,0x10(%rax)
  2069ec:	48 8d 43 40          	lea    0x40(%rbx),%rax
  2069f0:	c6 40 04 08          	movb   $0x8,0x4(%rax)
  2069f4:	e9 a0 0d 00 00       	jmpq   207799 <disasm_operands+0xf09>
  2069f9:	83 7d d4 4c          	cmpl   $0x4c,-0x2c(%rbp)
  2069fd:	75 38                	jne    206a37 <disasm_operands+0x1a7>
  2069ff:	8b 45 c8             	mov    -0x38(%rbp),%eax
  206a02:	0f b6 c8             	movzbl %al,%ecx
  206a05:	48 8d 53 20          	lea    0x20(%rbx),%rdx
  206a09:	8b 45 cc             	mov    -0x34(%rbp),%eax
  206a0c:	c7 04 24 02 00 00 00 	movl   $0x2,(%rsp)
  206a13:	41 89 c9             	mov    %ecx,%r9d
  206a16:	49 89 d0             	mov    %rdx,%r8
  206a19:	b9 01 00 00 00       	mov    $0x1,%ecx
  206a1e:	89 c2                	mov    %eax,%edx
  206a20:	48 89 de             	mov    %rbx,%rsi
  206a23:	4c 89 e7             	mov    %r12,%rdi
  206a26:	48 b8 98 60 20 00 00 	mov    $0x206098,%rax
  206a2d:	00 00 00 
  206a30:	ff d0                	callq  *%rax
  206a32:	e9 62 0d 00 00       	jmpq   207799 <disasm_operands+0xf09>
  206a37:	83 7d d4 49          	cmpl   $0x49,-0x2c(%rbp)
  206a3b:	75 38                	jne    206a75 <disasm_operands+0x1e5>
  206a3d:	8b 45 c8             	mov    -0x38(%rbp),%eax
  206a40:	0f b6 c8             	movzbl %al,%ecx
  206a43:	48 8d 53 20          	lea    0x20(%rbx),%rdx
  206a47:	8b 45 cc             	mov    -0x34(%rbp),%eax
  206a4a:	c7 04 24 06 00 00 00 	movl   $0x6,(%rsp)
  206a51:	41 89 c9             	mov    %ecx,%r9d
  206a54:	49 89 d0             	mov    %rdx,%r8
  206a57:	b9 01 00 00 00       	mov    $0x1,%ecx
  206a5c:	89 c2                	mov    %eax,%edx
  206a5e:	48 89 de             	mov    %rbx,%rsi
  206a61:	4c 89 e7             	mov    %r12,%rdi
  206a64:	48 b8 98 60 20 00 00 	mov    $0x206098,%rax
  206a6b:	00 00 00 
  206a6e:	ff d0                	callq  *%rax
  206a70:	e9 24 0d 00 00       	jmpq   207799 <disasm_operands+0xf09>
  206a75:	83 7d d4 45          	cmpl   $0x45,-0x2c(%rbp)
  206a79:	75 38                	jne    206ab3 <disasm_operands+0x223>
  206a7b:	8b 45 c8             	mov    -0x38(%rbp),%eax
  206a7e:	0f b6 c8             	movzbl %al,%ecx
  206a81:	48 8d 53 20          	lea    0x20(%rbx),%rdx
  206a85:	8b 45 cc             	mov    -0x34(%rbp),%eax
  206a88:	c7 04 24 05 00 00 00 	movl   $0x5,(%rsp)
  206a8f:	41 89 c9             	mov    %ecx,%r9d
  206a92:	49 89 d0             	mov    %rdx,%r8
  206a95:	b9 01 00 00 00       	mov    $0x1,%ecx
  206a9a:	89 c2                	mov    %eax,%edx
  206a9c:	48 89 de             	mov    %rbx,%rsi
  206a9f:	4c 89 e7             	mov    %r12,%rdi
  206aa2:	48 b8 98 60 20 00 00 	mov    $0x206098,%rax
  206aa9:	00 00 00 
  206aac:	ff d0                	callq  *%rax
  206aae:	e9 e6 0c 00 00       	jmpq   207799 <disasm_operands+0xf09>
  206ab3:	8b 45 cc             	mov    -0x34(%rbp),%eax
  206ab6:	c7 04 24 00 00 00 00 	movl   $0x0,(%rsp)
  206abd:	41 b9 00 00 00 00    	mov    $0x0,%r9d
  206ac3:	41 b8 00 00 00 00    	mov    $0x0,%r8d
  206ac9:	b9 01 00 00 00       	mov    $0x1,%ecx
  206ace:	89 c2                	mov    %eax,%edx
  206ad0:	48 89 de             	mov    %rbx,%rsi
  206ad3:	4c 89 e7             	mov    %r12,%rdi
  206ad6:	48 b8 98 60 20 00 00 	mov    $0x206098,%rax
  206add:	00 00 00 
  206ae0:	ff d0                	callq  *%rax
  206ae2:	83 7d d4 07          	cmpl   $0x7,-0x2c(%rbp)
  206ae6:	75 22                	jne    206b0a <disasm_operands+0x27a>
  206ae8:	48 8d 43 20          	lea    0x20(%rbx),%rax
  206aec:	c7 00 8c 00 00 00    	movl   $0x8c,(%rax)
  206af2:	48 8d 43 20          	lea    0x20(%rbx),%rax
  206af6:	c7 40 10 02 00 00 00 	movl   $0x2,0x10(%rax)
  206afd:	48 8d 43 20          	lea    0x20(%rbx),%rax
  206b01:	c6 40 04 08          	movb   $0x8,0x4(%rax)
  206b05:	e9 8f 0c 00 00       	jmpq   207799 <disasm_operands+0xf09>
  206b0a:	83 7d d4 47          	cmpl   $0x47,-0x2c(%rbp)
  206b0e:	75 1b                	jne    206b2b <disasm_operands+0x29b>
  206b10:	48 8d 43 20          	lea    0x20(%rbx),%rax
  206b14:	c7 00 91 00 00 00    	movl   $0x91,(%rax)
  206b1a:	41 c7 84 24 f8 00 00 	movl   $0x1,0xf8(%r12)
  206b21:	00 01 00 00 00 
  206b26:	e9 6e 0c 00 00       	jmpq   207799 <disasm_operands+0xf09>
  206b2b:	83 7d d4 05          	cmpl   $0x5,-0x2c(%rbp)
  206b2f:	0f 85 27 0c 00 00    	jne    20775c <disasm_operands+0xecc>
  206b35:	48 8d 53 20          	lea    0x20(%rbx),%rdx
  206b39:	8b 45 c8             	mov    -0x38(%rbp),%eax
  206b3c:	89 c6                	mov    %eax,%esi
  206b3e:	4c 89 e7             	mov    %r12,%rdi
  206b41:	48 b8 bd 5f 20 00 00 	mov    $0x205fbd,%rax
  206b48:	00 00 00 
  206b4b:	ff d0                	callq  *%rax
  206b4d:	e9 47 0c 00 00       	jmpq   207799 <disasm_operands+0xf09>
  206b52:	83 7d d4 03          	cmpl   $0x3,-0x2c(%rbp)
  206b56:	75 5c                	jne    206bb4 <disasm_operands+0x324>
  206b58:	4c 89 e7             	mov    %r12,%rdi
  206b5b:	48 b8 e4 39 20 00 00 	mov    $0x2039e4,%rax
  206b62:	00 00 00 
  206b65:	ff d0                	callq  *%rax
  206b67:	c0 e8 06             	shr    $0x6,%al
  206b6a:	0f b6 c0             	movzbl %al,%eax
  206b6d:	83 e0 03             	and    $0x3,%eax
  206b70:	83 f8 03             	cmp    $0x3,%eax
  206b73:	75 09                	jne    206b7e <disasm_operands+0x2ee>
  206b75:	41 c6 84 24 30 01 00 	movb   $0x1,0x130(%r12)
  206b7c:	00 01 
  206b7e:	8b 45 cc             	mov    -0x34(%rbp),%eax
  206b81:	0f b6 c8             	movzbl %al,%ecx
  206b84:	48 8d 43 20          	lea    0x20(%rbx),%rax
  206b88:	8b 55 c8             	mov    -0x38(%rbp),%edx
  206b8b:	c7 04 24 01 00 00 00 	movl   $0x1,(%rsp)
  206b92:	41 89 c9             	mov    %ecx,%r9d
  206b95:	49 89 d8             	mov    %rbx,%r8
  206b98:	b9 01 00 00 00       	mov    $0x1,%ecx
  206b9d:	48 89 c6             	mov    %rax,%rsi
  206ba0:	4c 89 e7             	mov    %r12,%rdi
  206ba3:	48 b8 98 60 20 00 00 	mov    $0x206098,%rax
  206baa:	00 00 00 
  206bad:	ff d0                	callq  *%rax
  206baf:	e9 e5 0b 00 00       	jmpq   207799 <disasm_operands+0xf09>
  206bb4:	83 7d d4 02          	cmpl   $0x2,-0x2c(%rbp)
  206bb8:	75 58                	jne    206c12 <disasm_operands+0x382>
  206bba:	8b 45 cc             	mov    -0x34(%rbp),%eax
  206bbd:	0f b6 c8             	movzbl %al,%ecx
  206bc0:	48 8d 43 20          	lea    0x20(%rbx),%rax
  206bc4:	8b 55 c8             	mov    -0x38(%rbp),%edx
  206bc7:	c7 04 24 01 00 00 00 	movl   $0x1,(%rsp)
  206bce:	41 89 c9             	mov    %ecx,%r9d
  206bd1:	49 89 d8             	mov    %rbx,%r8
  206bd4:	b9 01 00 00 00       	mov    $0x1,%ecx
  206bd9:	48 89 c6             	mov    %rax,%rsi
  206bdc:	4c 89 e7             	mov    %r12,%rdi
  206bdf:	48 b8 98 60 20 00 00 	mov    $0x206098,%rax
  206be6:	00 00 00 
  206be9:	ff d0                	callq  *%rax
  206beb:	83 7d d0 05          	cmpl   $0x5,-0x30(%rbp)
  206bef:	0f 85 6a 0b 00 00    	jne    20775f <disasm_operands+0xecf>
  206bf5:	48 8d 53 40          	lea    0x40(%rbx),%rdx
  206bf9:	8b 45 c4             	mov    -0x3c(%rbp),%eax
  206bfc:	89 c6                	mov    %eax,%esi
  206bfe:	4c 89 e7             	mov    %r12,%rdi
  206c01:	48 b8 bd 5f 20 00 00 	mov    $0x205fbd,%rax
  206c08:	00 00 00 
  206c0b:	ff d0                	callq  *%rax
  206c0d:	e9 87 0b 00 00       	jmpq   207799 <disasm_operands+0xf09>
  206c12:	83 7d d4 51          	cmpl   $0x51,-0x2c(%rbp)
  206c16:	75 58                	jne    206c70 <disasm_operands+0x3e0>
  206c18:	8b 45 cc             	mov    -0x34(%rbp),%eax
  206c1b:	0f b6 c8             	movzbl %al,%ecx
  206c1e:	48 8d 43 20          	lea    0x20(%rbx),%rax
  206c22:	8b 55 c8             	mov    -0x38(%rbp),%edx
  206c25:	c7 04 24 01 00 00 00 	movl   $0x1,(%rsp)
  206c2c:	41 89 c9             	mov    %ecx,%r9d
  206c2f:	49 89 d8             	mov    %rbx,%r8
  206c32:	b9 02 00 00 00       	mov    $0x2,%ecx
  206c37:	48 89 c6             	mov    %rax,%rsi
  206c3a:	4c 89 e7             	mov    %r12,%rdi
  206c3d:	48 b8 98 60 20 00 00 	mov    $0x206098,%rax
  206c44:	00 00 00 
  206c47:	ff d0                	callq  *%rax
  206c49:	83 7d d0 05          	cmpl   $0x5,-0x30(%rbp)
  206c4d:	0f 85 0f 0b 00 00    	jne    207762 <disasm_operands+0xed2>
  206c53:	48 8d 53 40          	lea    0x40(%rbx),%rdx
  206c57:	8b 45 c4             	mov    -0x3c(%rbp),%eax
  206c5a:	89 c6                	mov    %eax,%esi
  206c5c:	4c 89 e7             	mov    %r12,%rdi
  206c5f:	48 b8 bd 5f 20 00 00 	mov    $0x205fbd,%rax
  206c66:	00 00 00 
  206c69:	ff d0                	callq  *%rax
  206c6b:	e9 29 0b 00 00       	jmpq   207799 <disasm_operands+0xf09>
  206c70:	83 7d d4 50          	cmpl   $0x50,-0x2c(%rbp)
  206c74:	75 5c                	jne    206cd2 <disasm_operands+0x442>
  206c76:	4c 89 e7             	mov    %r12,%rdi
  206c79:	48 b8 e4 39 20 00 00 	mov    $0x2039e4,%rax
  206c80:	00 00 00 
  206c83:	ff d0                	callq  *%rax
  206c85:	c0 e8 06             	shr    $0x6,%al
  206c88:	0f b6 c0             	movzbl %al,%eax
  206c8b:	83 e0 03             	and    $0x3,%eax
  206c8e:	83 f8 03             	cmp    $0x3,%eax
  206c91:	74 09                	je     206c9c <disasm_operands+0x40c>
  206c93:	41 c6 84 24 30 01 00 	movb   $0x1,0x130(%r12)
  206c9a:	00 01 
  206c9c:	8b 45 cc             	mov    -0x34(%rbp),%eax
  206c9f:	0f b6 c8             	movzbl %al,%ecx
  206ca2:	48 8d 43 20          	lea    0x20(%rbx),%rax
  206ca6:	8b 55 c8             	mov    -0x38(%rbp),%edx
  206ca9:	c7 04 24 01 00 00 00 	movl   $0x1,(%rsp)
  206cb0:	41 89 c9             	mov    %ecx,%r9d
  206cb3:	49 89 d8             	mov    %rbx,%r8
  206cb6:	b9 06 00 00 00       	mov    $0x6,%ecx
  206cbb:	48 89 c6             	mov    %rax,%rsi
  206cbe:	4c 89 e7             	mov    %r12,%rdi
  206cc1:	48 b8 98 60 20 00 00 	mov    $0x206098,%rax
  206cc8:	00 00 00 
  206ccb:	ff d0                	callq  *%rax
  206ccd:	e9 c7 0a 00 00       	jmpq   207799 <disasm_operands+0xf09>
  206cd2:	83 7d d4 4a          	cmpl   $0x4a,-0x2c(%rbp)
  206cd6:	0f 85 89 0a 00 00    	jne    207765 <disasm_operands+0xed5>
  206cdc:	8b 45 cc             	mov    -0x34(%rbp),%eax
  206cdf:	0f b6 c8             	movzbl %al,%ecx
  206ce2:	48 8d 43 20          	lea    0x20(%rbx),%rax
  206ce6:	8b 55 c8             	mov    -0x38(%rbp),%edx
  206ce9:	c7 04 24 01 00 00 00 	movl   $0x1,(%rsp)
  206cf0:	41 89 c9             	mov    %ecx,%r9d
  206cf3:	49 89 d8             	mov    %rbx,%r8
  206cf6:	b9 06 00 00 00       	mov    $0x6,%ecx
  206cfb:	48 89 c6             	mov    %rax,%rsi
  206cfe:	4c 89 e7             	mov    %r12,%rdi
  206d01:	48 b8 98 60 20 00 00 	mov    $0x206098,%rax
  206d08:	00 00 00 
  206d0b:	ff d0                	callq  *%rax
  206d0d:	e9 87 0a 00 00       	jmpq   207799 <disasm_operands+0xf09>
  206d12:	c7 03 8c 00 00 00    	movl   $0x8c,(%rbx)
  206d18:	8b 45 d8             	mov    -0x28(%rbp),%eax
  206d1b:	83 e8 05             	sub    $0x5,%eax
  206d1e:	89 43 10             	mov    %eax,0x10(%rbx)
  206d21:	c6 43 04 08          	movb   $0x8,0x4(%rbx)
  206d25:	83 7d d4 05          	cmpl   $0x5,-0x2c(%rbp)
  206d29:	75 1d                	jne    206d48 <disasm_operands+0x4b8>
  206d2b:	48 8d 53 20          	lea    0x20(%rbx),%rdx
  206d2f:	8b 45 c8             	mov    -0x38(%rbp),%eax
  206d32:	89 c6                	mov    %eax,%esi
  206d34:	4c 89 e7             	mov    %r12,%rdi
  206d37:	48 b8 bd 5f 20 00 00 	mov    $0x205fbd,%rax
  206d3e:	00 00 00 
  206d41:	ff d0                	callq  *%rax
  206d43:	e9 51 0a 00 00       	jmpq   207799 <disasm_operands+0xf09>
  206d48:	83 7d d4 18          	cmpl   $0x18,-0x2c(%rbp)
  206d4c:	75 22                	jne    206d70 <disasm_operands+0x4e0>
  206d4e:	48 8d 43 20          	lea    0x20(%rbx),%rax
  206d52:	c7 00 8c 00 00 00    	movl   $0x8c,(%rax)
  206d58:	48 8d 43 20          	lea    0x20(%rbx),%rax
  206d5c:	c7 40 10 17 00 00 00 	movl   $0x17,0x10(%rax)
  206d63:	48 8d 43 20          	lea    0x20(%rbx),%rax
  206d67:	c6 40 04 10          	movb   $0x10,0x4(%rax)
  206d6b:	e9 29 0a 00 00       	jmpq   207799 <disasm_operands+0xf09>
  206d70:	83 7d d4 46          	cmpl   $0x46,-0x2c(%rbp)
  206d74:	0f 85 ee 09 00 00    	jne    207768 <disasm_operands+0xed8>
  206d7a:	48 8d 53 20          	lea    0x20(%rbx),%rdx
  206d7e:	8b 45 c8             	mov    -0x38(%rbp),%eax
  206d81:	89 c6                	mov    %eax,%esi
  206d83:	4c 89 e7             	mov    %r12,%rdi
  206d86:	48 b8 c1 67 20 00 00 	mov    $0x2067c1,%rax
  206d8d:	00 00 00 
  206d90:	ff d0                	callq  *%rax
  206d92:	e9 02 0a 00 00       	jmpq   207799 <disasm_operands+0xf09>
  206d97:	c7 03 8c 00 00 00    	movl   $0x8c,(%rbx)
  206d9d:	8b 45 d8             	mov    -0x28(%rbp),%eax
  206da0:	89 c6                	mov    %eax,%esi
  206da2:	4c 89 e7             	mov    %r12,%rdi
  206da5:	48 b8 70 5e 20 00 00 	mov    $0x205e70,%rax
  206dac:	00 00 00 
  206daf:	ff d0                	callq  *%rax
  206db1:	89 43 10             	mov    %eax,0x10(%rbx)
  206db4:	83 7d d4 05          	cmpl   $0x5,-0x2c(%rbp)
  206db8:	75 1d                	jne    206dd7 <disasm_operands+0x547>
  206dba:	48 8d 53 20          	lea    0x20(%rbx),%rdx
  206dbe:	8b 45 c8             	mov    -0x38(%rbp),%eax
  206dc1:	89 c6                	mov    %eax,%esi
  206dc3:	4c 89 e7             	mov    %r12,%rdi
  206dc6:	48 b8 bd 5f 20 00 00 	mov    $0x205fbd,%rax
  206dcd:	00 00 00 
  206dd0:	ff d0                	callq  *%rax
  206dd2:	e9 c2 09 00 00       	jmpq   207799 <disasm_operands+0xf09>
  206dd7:	83 7d d4 1d          	cmpl   $0x1d,-0x2c(%rbp)
  206ddb:	76 30                	jbe    206e0d <disasm_operands+0x57d>
  206ddd:	83 7d d4 25          	cmpl   $0x25,-0x2c(%rbp)
  206de1:	77 2a                	ja     206e0d <disasm_operands+0x57d>
  206de3:	48 8d 43 20          	lea    0x20(%rbx),%rax
  206de7:	c7 00 8c 00 00 00    	movl   $0x8c,(%rax)
  206ded:	48 83 c3 20          	add    $0x20,%rbx
  206df1:	8b 45 d4             	mov    -0x2c(%rbp),%eax
  206df4:	89 c6                	mov    %eax,%esi
  206df6:	4c 89 e7             	mov    %r12,%rdi
  206df9:	48 b8 70 5e 20 00 00 	mov    $0x205e70,%rax
  206e00:	00 00 00 
  206e03:	ff d0                	callq  *%rax
  206e05:	89 43 10             	mov    %eax,0x10(%rbx)
  206e08:	e9 8c 09 00 00       	jmpq   207799 <disasm_operands+0xf09>
  206e0d:	83 7d d4 46          	cmpl   $0x46,-0x2c(%rbp)
  206e11:	0f 85 54 09 00 00    	jne    20776b <disasm_operands+0xedb>
  206e17:	48 8d 53 20          	lea    0x20(%rbx),%rdx
  206e1b:	8b 45 c8             	mov    -0x38(%rbp),%eax
  206e1e:	89 c6                	mov    %eax,%esi
  206e20:	4c 89 e7             	mov    %r12,%rdi
  206e23:	48 b8 c1 67 20 00 00 	mov    $0x2067c1,%rax
  206e2a:	00 00 00 
  206e2d:	ff d0                	callq  *%rax
  206e2f:	8b 45 c8             	mov    -0x38(%rbp),%eax
  206e32:	89 c6                	mov    %eax,%esi
  206e34:	4c 89 e7             	mov    %r12,%rdi
  206e37:	48 b8 1c 58 20 00 00 	mov    $0x20581c,%rax
  206e3e:	00 00 00 
  206e41:	ff d0                	callq  *%rax
  206e43:	88 43 04             	mov    %al,0x4(%rbx)
  206e46:	e9 4e 09 00 00       	jmpq   207799 <disasm_operands+0xf09>
  206e4b:	41 0f b6 84 24 31 01 	movzbl 0x131(%r12),%eax
  206e52:	00 00 
  206e54:	0f b6 c0             	movzbl %al,%eax
  206e57:	83 e0 01             	and    $0x1,%eax
  206e5a:	c1 e0 03             	shl    $0x3,%eax
  206e5d:	03 45 d8             	add    -0x28(%rbp),%eax
  206e60:	83 e8 0d             	sub    $0xd,%eax
  206e63:	89 45 dc             	mov    %eax,-0x24(%rbp)
  206e66:	83 7d dc 04          	cmpl   $0x4,-0x24(%rbp)
  206e6a:	76 11                	jbe    206e7d <disasm_operands+0x5ed>
  206e6c:	41 0f b6 84 24 31 01 	movzbl 0x131(%r12),%eax
  206e73:	00 00 
  206e75:	84 c0                	test   %al,%al
  206e77:	74 04                	je     206e7d <disasm_operands+0x5ed>
  206e79:	83 45 dc 04          	addl   $0x4,-0x24(%rbp)
  206e7d:	c7 03 8c 00 00 00    	movl   $0x8c,(%rbx)
  206e83:	8b 45 dc             	mov    -0x24(%rbp),%eax
  206e86:	89 43 10             	mov    %eax,0x10(%rbx)
  206e89:	83 7d d4 05          	cmpl   $0x5,-0x2c(%rbp)
  206e8d:	0f 85 db 08 00 00    	jne    20776e <disasm_operands+0xede>
  206e93:	48 8d 53 20          	lea    0x20(%rbx),%rdx
  206e97:	8b 45 c8             	mov    -0x38(%rbp),%eax
  206e9a:	89 c6                	mov    %eax,%esi
  206e9c:	4c 89 e7             	mov    %r12,%rdi
  206e9f:	48 b8 bd 5f 20 00 00 	mov    $0x205fbd,%rax
  206ea6:	00 00 00 
  206ea9:	ff d0                	callq  *%rax
  206eab:	e9 e9 08 00 00       	jmpq   207799 <disasm_operands+0xf09>
  206eb0:	c7 03 8c 00 00 00    	movl   $0x8c,(%rbx)
  206eb6:	8b 45 d8             	mov    -0x28(%rbp),%eax
  206eb9:	89 c6                	mov    %eax,%esi
  206ebb:	4c 89 e7             	mov    %r12,%rdi
  206ebe:	48 b8 19 5f 20 00 00 	mov    $0x205f19,%rax
  206ec5:	00 00 00 
  206ec8:	ff d0                	callq  *%rax
  206eca:	89 43 10             	mov    %eax,0x10(%rbx)
  206ecd:	83 7d d4 18          	cmpl   $0x18,-0x2c(%rbp)
  206ed1:	75 22                	jne    206ef5 <disasm_operands+0x665>
  206ed3:	48 8d 43 20          	lea    0x20(%rbx),%rax
  206ed7:	c7 00 8c 00 00 00    	movl   $0x8c,(%rax)
  206edd:	48 8d 43 20          	lea    0x20(%rbx),%rax
  206ee1:	c7 40 10 17 00 00 00 	movl   $0x17,0x10(%rax)
  206ee8:	48 8d 43 20          	lea    0x20(%rbx),%rax
  206eec:	c6 40 04 10          	movb   $0x10,0x4(%rax)
  206ef0:	e9 a4 08 00 00       	jmpq   207799 <disasm_operands+0xf09>
  206ef5:	83 7d d4 05          	cmpl   $0x5,-0x2c(%rbp)
  206ef9:	0f 85 72 08 00 00    	jne    207771 <disasm_operands+0xee1>
  206eff:	48 8d 53 20          	lea    0x20(%rbx),%rdx
  206f03:	8b 45 c8             	mov    -0x38(%rbp),%eax
  206f06:	89 c6                	mov    %eax,%esi
  206f08:	4c 89 e7             	mov    %r12,%rdi
  206f0b:	48 b8 bd 5f 20 00 00 	mov    $0x205fbd,%rax
  206f12:	00 00 00 
  206f15:	ff d0                	callq  *%rax
  206f17:	e9 7d 08 00 00       	jmpq   207799 <disasm_operands+0xf09>
  206f1c:	41 0f b6 84 24 ac 00 	movzbl 0xac(%r12),%eax
  206f23:	00 00 
  206f25:	3c 40                	cmp    $0x40,%al
  206f27:	75 15                	jne    206f3e <disasm_operands+0x6ae>
  206f29:	83 7d d8 3a          	cmpl   $0x3a,-0x28(%rbp)
  206f2d:	74 0f                	je     206f3e <disasm_operands+0x6ae>
  206f2f:	83 7d d8 3b          	cmpl   $0x3b,-0x28(%rbp)
  206f33:	74 09                	je     206f3e <disasm_operands+0x6ae>
  206f35:	41 c6 84 24 30 01 00 	movb   $0x1,0x130(%r12)
  206f3c:	00 01 
  206f3e:	c7 03 8c 00 00 00    	movl   $0x8c,(%rbx)
  206f44:	8b 45 d8             	mov    -0x28(%rbp),%eax
  206f47:	83 c0 0f             	add    $0xf,%eax
  206f4a:	89 43 10             	mov    %eax,0x10(%rbx)
  206f4d:	c6 43 04 10          	movb   $0x10,0x4(%rbx)
  206f51:	e9 43 08 00 00       	jmpq   207799 <disasm_operands+0xf09>
  206f56:	8b 45 cc             	mov    -0x34(%rbp),%eax
  206f59:	48 89 da             	mov    %rbx,%rdx
  206f5c:	89 c6                	mov    %eax,%esi
  206f5e:	4c 89 e7             	mov    %r12,%rdi
  206f61:	48 b8 bd 5f 20 00 00 	mov    $0x205fbd,%rax
  206f68:	00 00 00 
  206f6b:	ff d0                	callq  *%rax
  206f6d:	c7 03 90 00 00 00    	movl   $0x90,(%rbx)
  206f73:	e9 21 08 00 00       	jmpq   207799 <disasm_operands+0xf09>
  206f78:	4c 89 e7             	mov    %r12,%rdi
  206f7b:	48 b8 e4 39 20 00 00 	mov    $0x2039e4,%rax
  206f82:	00 00 00 
  206f85:	ff d0                	callq  *%rax
  206f87:	c0 e8 06             	shr    $0x6,%al
  206f8a:	0f b6 c0             	movzbl %al,%eax
  206f8d:	83 e0 03             	and    $0x3,%eax
  206f90:	83 f8 03             	cmp    $0x3,%eax
  206f93:	74 09                	je     206f9e <disasm_operands+0x70e>
  206f95:	41 c6 84 24 30 01 00 	movb   $0x1,0x130(%r12)
  206f9c:	00 01 
  206f9e:	8b 45 cc             	mov    -0x34(%rbp),%eax
  206fa1:	c7 04 24 00 00 00 00 	movl   $0x0,(%rsp)
  206fa8:	41 b9 00 00 00 00    	mov    $0x0,%r9d
  206fae:	41 b8 00 00 00 00    	mov    $0x0,%r8d
  206fb4:	b9 02 00 00 00       	mov    $0x2,%ecx
  206fb9:	89 c2                	mov    %eax,%edx
  206fbb:	48 89 de             	mov    %rbx,%rsi
  206fbe:	4c 89 e7             	mov    %r12,%rdi
  206fc1:	48 b8 98 60 20 00 00 	mov    $0x206098,%rax
  206fc8:	00 00 00 
  206fcb:	ff d0                	callq  *%rax
  206fcd:	83 7d d4 05          	cmpl   $0x5,-0x2c(%rbp)
  206fd1:	0f 85 9d 07 00 00    	jne    207774 <disasm_operands+0xee4>
  206fd7:	48 8d 53 20          	lea    0x20(%rbx),%rdx
  206fdb:	8b 45 c8             	mov    -0x38(%rbp),%eax
  206fde:	89 c6                	mov    %eax,%esi
  206fe0:	4c 89 e7             	mov    %r12,%rdi
  206fe3:	48 b8 bd 5f 20 00 00 	mov    $0x205fbd,%rax
  206fea:	00 00 00 
  206fed:	ff d0                	callq  *%rax
  206fef:	e9 a5 07 00 00       	jmpq   207799 <disasm_operands+0xf09>
  206ff4:	4c 89 e7             	mov    %r12,%rdi
  206ff7:	48 b8 e4 39 20 00 00 	mov    $0x2039e4,%rax
  206ffe:	00 00 00 
  207001:	ff d0                	callq  *%rax
  207003:	c0 e8 06             	shr    $0x6,%al
  207006:	0f b6 c0             	movzbl %al,%eax
  207009:	83 e0 03             	and    $0x3,%eax
  20700c:	83 f8 03             	cmp    $0x3,%eax
  20700f:	74 09                	je     20701a <disasm_operands+0x78a>
  207011:	41 c6 84 24 30 01 00 	movb   $0x1,0x130(%r12)
  207018:	00 01 
  20701a:	8b 45 cc             	mov    -0x34(%rbp),%eax
  20701d:	c7 04 24 00 00 00 00 	movl   $0x0,(%rsp)
  207024:	41 b9 00 00 00 00    	mov    $0x0,%r9d
  20702a:	41 b8 00 00 00 00    	mov    $0x0,%r8d
  207030:	b9 06 00 00 00       	mov    $0x6,%ecx
  207035:	89 c2                	mov    %eax,%edx
  207037:	48 89 de             	mov    %rbx,%rsi
  20703a:	4c 89 e7             	mov    %r12,%rdi
  20703d:	48 b8 98 60 20 00 00 	mov    $0x206098,%rax
  207044:	00 00 00 
  207047:	ff d0                	callq  *%rax
  207049:	83 7d d4 05          	cmpl   $0x5,-0x2c(%rbp)
  20704d:	0f 85 24 07 00 00    	jne    207777 <disasm_operands+0xee7>
  207053:	48 8d 53 20          	lea    0x20(%rbx),%rdx
  207057:	8b 45 c8             	mov    -0x38(%rbp),%eax
  20705a:	89 c6                	mov    %eax,%esi
  20705c:	4c 89 e7             	mov    %r12,%rdi
  20705f:	48 b8 bd 5f 20 00 00 	mov    $0x205fbd,%rax
  207066:	00 00 00 
  207069:	ff d0                	callq  *%rax
  20706b:	e9 29 07 00 00       	jmpq   207799 <disasm_operands+0xf09>
  207070:	83 7d d4 4b          	cmpl   $0x4b,-0x2c(%rbp)
  207074:	75 58                	jne    2070ce <disasm_operands+0x83e>
  207076:	8b 45 cc             	mov    -0x34(%rbp),%eax
  207079:	0f b6 c8             	movzbl %al,%ecx
  20707c:	48 8d 43 20          	lea    0x20(%rbx),%rax
  207080:	8b 55 c8             	mov    -0x38(%rbp),%edx
  207083:	c7 04 24 02 00 00 00 	movl   $0x2,(%rsp)
  20708a:	41 89 c9             	mov    %ecx,%r9d
  20708d:	49 89 d8             	mov    %rbx,%r8
  207090:	b9 02 00 00 00       	mov    $0x2,%ecx
  207095:	48 89 c6             	mov    %rax,%rsi
  207098:	4c 89 e7             	mov    %r12,%rdi
  20709b:	48 b8 98 60 20 00 00 	mov    $0x206098,%rax
  2070a2:	00 00 00 
  2070a5:	ff d0                	callq  *%rax
  2070a7:	83 7d d0 05          	cmpl   $0x5,-0x30(%rbp)
  2070ab:	0f 85 c9 06 00 00    	jne    20777a <disasm_operands+0xeea>
  2070b1:	48 8d 53 40          	lea    0x40(%rbx),%rdx
  2070b5:	8b 45 c4             	mov    -0x3c(%rbp),%eax
  2070b8:	89 c6                	mov    %eax,%esi
  2070ba:	4c 89 e7             	mov    %r12,%rdi
  2070bd:	48 b8 bd 5f 20 00 00 	mov    $0x205fbd,%rax
  2070c4:	00 00 00 
  2070c7:	ff d0                	callq  *%rax
  2070c9:	e9 cb 06 00 00       	jmpq   207799 <disasm_operands+0xf09>
  2070ce:	83 7d d4 4a          	cmpl   $0x4a,-0x2c(%rbp)
  2070d2:	75 36                	jne    20710a <disasm_operands+0x87a>
  2070d4:	8b 45 cc             	mov    -0x34(%rbp),%eax
  2070d7:	0f b6 c8             	movzbl %al,%ecx
  2070da:	48 8d 43 20          	lea    0x20(%rbx),%rax
  2070de:	8b 55 c8             	mov    -0x38(%rbp),%edx
  2070e1:	c7 04 24 02 00 00 00 	movl   $0x2,(%rsp)
  2070e8:	41 89 c9             	mov    %ecx,%r9d
  2070eb:	49 89 d8             	mov    %rbx,%r8
  2070ee:	b9 06 00 00 00       	mov    $0x6,%ecx
  2070f3:	48 89 c6             	mov    %rax,%rsi
  2070f6:	4c 89 e7             	mov    %r12,%rdi
  2070f9:	48 b8 98 60 20 00 00 	mov    $0x206098,%rax
  207100:	00 00 00 
  207103:	ff d0                	callq  *%rax
  207105:	e9 8f 06 00 00       	jmpq   207799 <disasm_operands+0xf09>
  20710a:	83 7d d4 50          	cmpl   $0x50,-0x2c(%rbp)
  20710e:	75 5c                	jne    20716c <disasm_operands+0x8dc>
  207110:	4c 89 e7             	mov    %r12,%rdi
  207113:	48 b8 e4 39 20 00 00 	mov    $0x2039e4,%rax
  20711a:	00 00 00 
  20711d:	ff d0                	callq  *%rax
  20711f:	c0 e8 06             	shr    $0x6,%al
  207122:	0f b6 c0             	movzbl %al,%eax
  207125:	83 e0 03             	and    $0x3,%eax
  207128:	83 f8 03             	cmp    $0x3,%eax
  20712b:	74 09                	je     207136 <disasm_operands+0x8a6>
  20712d:	41 c6 84 24 30 01 00 	movb   $0x1,0x130(%r12)
  207134:	00 01 
  207136:	8b 45 cc             	mov    -0x34(%rbp),%eax
  207139:	0f b6 c8             	movzbl %al,%ecx
  20713c:	48 8d 43 20          	lea    0x20(%rbx),%rax
  207140:	8b 55 c8             	mov    -0x38(%rbp),%edx
  207143:	c7 04 24 02 00 00 00 	movl   $0x2,(%rsp)
  20714a:	41 89 c9             	mov    %ecx,%r9d
  20714d:	49 89 d8             	mov    %rbx,%r8
  207150:	b9 06 00 00 00       	mov    $0x6,%ecx
  207155:	48 89 c6             	mov    %rax,%rsi
  207158:	4c 89 e7             	mov    %r12,%rdi
  20715b:	48 b8 98 60 20 00 00 	mov    $0x206098,%rax
  207162:	00 00 00 
  207165:	ff d0                	callq  *%rax
  207167:	e9 2d 06 00 00       	jmpq   207799 <disasm_operands+0xf09>
  20716c:	83 7d d4 02          	cmpl   $0x2,-0x2c(%rbp)
  207170:	0f 85 07 06 00 00    	jne    20777d <disasm_operands+0xeed>
  207176:	8b 45 cc             	mov    -0x34(%rbp),%eax
  207179:	0f b6 c8             	movzbl %al,%ecx
  20717c:	48 8d 43 20          	lea    0x20(%rbx),%rax
  207180:	8b 55 c8             	mov    -0x38(%rbp),%edx
  207183:	c7 04 24 02 00 00 00 	movl   $0x2,(%rsp)
  20718a:	41 89 c9             	mov    %ecx,%r9d
  20718d:	49 89 d8             	mov    %rbx,%r8
  207190:	b9 01 00 00 00       	mov    $0x1,%ecx
  207195:	48 89 c6             	mov    %rax,%rsi
  207198:	4c 89 e7             	mov    %r12,%rdi
  20719b:	48 b8 98 60 20 00 00 	mov    $0x206098,%rax
  2071a2:	00 00 00 
  2071a5:	ff d0                	callq  *%rax
  2071a7:	83 7d d0 05          	cmpl   $0x5,-0x30(%rbp)
  2071ab:	0f 85 cf 05 00 00    	jne    207780 <disasm_operands+0xef0>
  2071b1:	48 8d 53 40          	lea    0x40(%rbx),%rdx
  2071b5:	8b 45 c4             	mov    -0x3c(%rbp),%eax
  2071b8:	89 c6                	mov    %eax,%esi
  2071ba:	4c 89 e7             	mov    %r12,%rdi
  2071bd:	48 b8 bd 5f 20 00 00 	mov    $0x205fbd,%rax
  2071c4:	00 00 00 
  2071c7:	ff d0                	callq  *%rax
  2071c9:	e9 cb 05 00 00       	jmpq   207799 <disasm_operands+0xf09>
  2071ce:	83 7d d4 4e          	cmpl   $0x4e,-0x2c(%rbp)
  2071d2:	75 38                	jne    20720c <disasm_operands+0x97c>
  2071d4:	8b 45 c8             	mov    -0x38(%rbp),%eax
  2071d7:	0f b6 c8             	movzbl %al,%ecx
  2071da:	48 8d 53 20          	lea    0x20(%rbx),%rdx
  2071de:	8b 45 cc             	mov    -0x34(%rbp),%eax
  2071e1:	c7 04 24 03 00 00 00 	movl   $0x3,(%rsp)
  2071e8:	41 89 c9             	mov    %ecx,%r9d
  2071eb:	49 89 d0             	mov    %rdx,%r8
  2071ee:	b9 01 00 00 00       	mov    $0x1,%ecx
  2071f3:	89 c2                	mov    %eax,%edx
  2071f5:	48 89 de             	mov    %rbx,%rsi
  2071f8:	4c 89 e7             	mov    %r12,%rdi
  2071fb:	48 b8 98 60 20 00 00 	mov    $0x206098,%rax
  207202:	00 00 00 
  207205:	ff d0                	callq  *%rax
  207207:	e9 8d 05 00 00       	jmpq   207799 <disasm_operands+0xf09>
  20720c:	83 7d d4 4f          	cmpl   $0x4f,-0x2c(%rbp)
  207210:	0f 85 6d 05 00 00    	jne    207783 <disasm_operands+0xef3>
  207216:	8b 45 c8             	mov    -0x38(%rbp),%eax
  207219:	0f b6 c8             	movzbl %al,%ecx
  20721c:	48 8d 53 20          	lea    0x20(%rbx),%rdx
  207220:	8b 45 cc             	mov    -0x34(%rbp),%eax
  207223:	c7 04 24 04 00 00 00 	movl   $0x4,(%rsp)
  20722a:	41 89 c9             	mov    %ecx,%r9d
  20722d:	49 89 d0             	mov    %rdx,%r8
  207230:	b9 01 00 00 00       	mov    $0x1,%ecx
  207235:	89 c2                	mov    %eax,%edx
  207237:	48 89 de             	mov    %rbx,%rsi
  20723a:	4c 89 e7             	mov    %r12,%rdi
  20723d:	48 b8 98 60 20 00 00 	mov    $0x206098,%rax
  207244:	00 00 00 
  207247:	ff d0                	callq  *%rax
  207249:	e9 4b 05 00 00       	jmpq   207799 <disasm_operands+0xf09>
  20724e:	8b 45 cc             	mov    -0x34(%rbp),%eax
  207251:	0f b6 c8             	movzbl %al,%ecx
  207254:	48 8d 43 20          	lea    0x20(%rbx),%rax
  207258:	8b 55 c8             	mov    -0x38(%rbp),%edx
  20725b:	c7 04 24 03 00 00 00 	movl   $0x3,(%rsp)
  207262:	41 89 c9             	mov    %ecx,%r9d
  207265:	49 89 d8             	mov    %rbx,%r8
  207268:	b9 01 00 00 00       	mov    $0x1,%ecx
  20726d:	48 89 c6             	mov    %rax,%rsi
  207270:	4c 89 e7             	mov    %r12,%rdi
  207273:	48 b8 98 60 20 00 00 	mov    $0x206098,%rax
  20727a:	00 00 00 
  20727d:	ff d0                	callq  *%rax
  20727f:	e9 15 05 00 00       	jmpq   207799 <disasm_operands+0xf09>
  207284:	8b 45 cc             	mov    -0x34(%rbp),%eax
  207287:	0f b6 c8             	movzbl %al,%ecx
  20728a:	48 8d 43 20          	lea    0x20(%rbx),%rax
  20728e:	8b 55 c8             	mov    -0x38(%rbp),%edx
  207291:	c7 04 24 04 00 00 00 	movl   $0x4,(%rsp)
  207298:	41 89 c9             	mov    %ecx,%r9d
  20729b:	49 89 d8             	mov    %rbx,%r8
  20729e:	b9 01 00 00 00       	mov    $0x1,%ecx
  2072a3:	48 89 c6             	mov    %rax,%rsi
  2072a6:	4c 89 e7             	mov    %r12,%rdi
  2072a9:	48 b8 98 60 20 00 00 	mov    $0x206098,%rax
  2072b0:	00 00 00 
  2072b3:	ff d0                	callq  *%rax
  2072b5:	e9 df 04 00 00       	jmpq   207799 <disasm_operands+0xf09>
  2072ba:	8b 45 c8             	mov    -0x38(%rbp),%eax
  2072bd:	0f b6 c8             	movzbl %al,%ecx
  2072c0:	48 8d 53 20          	lea    0x20(%rbx),%rdx
  2072c4:	8b 45 cc             	mov    -0x34(%rbp),%eax
  2072c7:	c7 04 24 02 00 00 00 	movl   $0x2,(%rsp)
  2072ce:	41 89 c9             	mov    %ecx,%r9d
  2072d1:	49 89 d0             	mov    %rdx,%r8
  2072d4:	b9 02 00 00 00       	mov    $0x2,%ecx
  2072d9:	89 c2                	mov    %eax,%edx
  2072db:	48 89 de             	mov    %rbx,%rsi
  2072de:	4c 89 e7             	mov    %r12,%rdi
  2072e1:	48 b8 98 60 20 00 00 	mov    $0x206098,%rax
  2072e8:	00 00 00 
  2072eb:	ff d0                	callq  *%rax
  2072ed:	e9 a7 04 00 00       	jmpq   207799 <disasm_operands+0xf09>
  2072f2:	8b 45 cc             	mov    -0x34(%rbp),%eax
  2072f5:	0f b6 c8             	movzbl %al,%ecx
  2072f8:	48 8d 43 20          	lea    0x20(%rbx),%rax
  2072fc:	8b 55 c8             	mov    -0x38(%rbp),%edx
  2072ff:	c7 04 24 05 00 00 00 	movl   $0x5,(%rsp)
  207306:	41 89 c9             	mov    %ecx,%r9d
  207309:	49 89 d8             	mov    %rbx,%r8
  20730c:	b9 01 00 00 00       	mov    $0x1,%ecx
  207311:	48 89 c6             	mov    %rax,%rsi
  207314:	4c 89 e7             	mov    %r12,%rdi
  207317:	48 b8 98 60 20 00 00 	mov    $0x206098,%rax
  20731e:	00 00 00 
  207321:	ff d0                	callq  *%rax
  207323:	e9 71 04 00 00       	jmpq   207799 <disasm_operands+0xf09>
  207328:	8b 45 c8             	mov    -0x38(%rbp),%eax
  20732b:	0f b6 c8             	movzbl %al,%ecx
  20732e:	48 8d 53 20          	lea    0x20(%rbx),%rdx
  207332:	8b 45 cc             	mov    -0x34(%rbp),%eax
  207335:	c7 04 24 06 00 00 00 	movl   $0x6,(%rsp)
  20733c:	41 89 c9             	mov    %ecx,%r9d
  20733f:	49 89 d0             	mov    %rdx,%r8
  207342:	b9 06 00 00 00       	mov    $0x6,%ecx
  207347:	89 c2                	mov    %eax,%edx
  207349:	48 89 de             	mov    %rbx,%rsi
  20734c:	4c 89 e7             	mov    %r12,%rdi
  20734f:	48 b8 98 60 20 00 00 	mov    $0x206098,%rax
  207356:	00 00 00 
  207359:	ff d0                	callq  *%rax
  20735b:	e9 39 04 00 00       	jmpq   207799 <disasm_operands+0xf09>
  207360:	83 7d d4 4a          	cmpl   $0x4a,-0x2c(%rbp)
  207364:	0f 85 ad 00 00 00    	jne    207417 <disasm_operands+0xb87>
  20736a:	4c 89 e7             	mov    %r12,%rdi
  20736d:	48 b8 e4 39 20 00 00 	mov    $0x2039e4,%rax
  207374:	00 00 00 
  207377:	ff d0                	callq  *%rax
  207379:	c0 e8 06             	shr    $0x6,%al
  20737c:	0f b6 c0             	movzbl %al,%eax
  20737f:	83 e0 03             	and    $0x3,%eax
  207382:	83 f8 03             	cmp    $0x3,%eax
  207385:	75 38                	jne    2073bf <disasm_operands+0xb2f>
  207387:	41 8b 84 24 c8 00 00 	mov    0xc8(%r12),%eax
  20738e:	00 
  20738f:	3d 24 01 00 00       	cmp    $0x124,%eax
  207394:	75 0e                	jne    2073a4 <disasm_operands+0xb14>
  207396:	41 c7 84 24 c8 00 00 	movl   $0x11f,0xc8(%r12)
  20739d:	00 1f 01 00 00 
  2073a2:	eb 1b                	jmp    2073bf <disasm_operands+0xb2f>
  2073a4:	41 8b 84 24 c8 00 00 	mov    0xc8(%r12),%eax
  2073ab:	00 
  2073ac:	3d 21 01 00 00       	cmp    $0x121,%eax
  2073b1:	75 0c                	jne    2073bf <disasm_operands+0xb2f>
  2073b3:	41 c7 84 24 c8 00 00 	movl   $0x122,0xc8(%r12)
  2073ba:	00 22 01 00 00 
  2073bf:	8b 45 cc             	mov    -0x34(%rbp),%eax
  2073c2:	0f b6 c8             	movzbl %al,%ecx
  2073c5:	48 8d 43 20          	lea    0x20(%rbx),%rax
  2073c9:	8b 55 c8             	mov    -0x38(%rbp),%edx
  2073cc:	c7 04 24 06 00 00 00 	movl   $0x6,(%rsp)
  2073d3:	41 89 c9             	mov    %ecx,%r9d
  2073d6:	49 89 d8             	mov    %rbx,%r8
  2073d9:	b9 06 00 00 00       	mov    $0x6,%ecx
  2073de:	48 89 c6             	mov    %rax,%rsi
  2073e1:	4c 89 e7             	mov    %r12,%rdi
  2073e4:	48 b8 98 60 20 00 00 	mov    $0x206098,%rax
  2073eb:	00 00 00 
  2073ee:	ff d0                	callq  *%rax
  2073f0:	83 7d d0 05          	cmpl   $0x5,-0x30(%rbp)
  2073f4:	0f 85 8c 03 00 00    	jne    207786 <disasm_operands+0xef6>
  2073fa:	48 8d 53 40          	lea    0x40(%rbx),%rdx
  2073fe:	8b 45 c4             	mov    -0x3c(%rbp),%eax
  207401:	89 c6                	mov    %eax,%esi
  207403:	4c 89 e7             	mov    %r12,%rdi
  207406:	48 b8 bd 5f 20 00 00 	mov    $0x205fbd,%rax
  20740d:	00 00 00 
  207410:	ff d0                	callq  *%rax
  207412:	e9 82 03 00 00       	jmpq   207799 <disasm_operands+0xf09>
  207417:	83 7d d4 4b          	cmpl   $0x4b,-0x2c(%rbp)
  20741b:	75 36                	jne    207453 <disasm_operands+0xbc3>
  20741d:	8b 45 cc             	mov    -0x34(%rbp),%eax
  207420:	0f b6 c8             	movzbl %al,%ecx
  207423:	48 8d 43 20          	lea    0x20(%rbx),%rax
  207427:	8b 55 c8             	mov    -0x38(%rbp),%edx
  20742a:	c7 04 24 06 00 00 00 	movl   $0x6,(%rsp)
  207431:	41 89 c9             	mov    %ecx,%r9d
  207434:	49 89 d8             	mov    %rbx,%r8
  207437:	b9 02 00 00 00       	mov    $0x2,%ecx
  20743c:	48 89 c6             	mov    %rax,%rsi
  20743f:	4c 89 e7             	mov    %r12,%rdi
  207442:	48 b8 98 60 20 00 00 	mov    $0x206098,%rax
  207449:	00 00 00 
  20744c:	ff d0                	callq  *%rax
  20744e:	e9 46 03 00 00       	jmpq   207799 <disasm_operands+0xf09>
  207453:	83 7d d4 03          	cmpl   $0x3,-0x2c(%rbp)
  207457:	75 5c                	jne    2074b5 <disasm_operands+0xc25>
  207459:	4c 89 e7             	mov    %r12,%rdi
  20745c:	48 b8 e4 39 20 00 00 	mov    $0x2039e4,%rax
  207463:	00 00 00 
  207466:	ff d0                	callq  *%rax
  207468:	c0 e8 06             	shr    $0x6,%al
  20746b:	0f b6 c0             	movzbl %al,%eax
  20746e:	83 e0 03             	and    $0x3,%eax
  207471:	83 f8 03             	cmp    $0x3,%eax
  207474:	75 09                	jne    20747f <disasm_operands+0xbef>
  207476:	41 c6 84 24 30 01 00 	movb   $0x1,0x130(%r12)
  20747d:	00 01 
  20747f:	8b 45 cc             	mov    -0x34(%rbp),%eax
  207482:	0f b6 c8             	movzbl %al,%ecx
  207485:	48 8d 43 20          	lea    0x20(%rbx),%rax
  207489:	8b 55 c8             	mov    -0x38(%rbp),%edx
  20748c:	c7 04 24 06 00 00 00 	movl   $0x6,(%rsp)
  207493:	41 89 c9             	mov    %ecx,%r9d
  207496:	49 89 d8             	mov    %rbx,%r8
  207499:	b9 01 00 00 00       	mov    $0x1,%ecx
  20749e:	48 89 c6             	mov    %rax,%rsi
  2074a1:	4c 89 e7             	mov    %r12,%rdi
  2074a4:	48 b8 98 60 20 00 00 	mov    $0x206098,%rax
  2074ab:	00 00 00 
  2074ae:	ff d0                	callq  *%rax
  2074b0:	e9 e4 02 00 00       	jmpq   207799 <disasm_operands+0xf09>
  2074b5:	83 7d d4 02          	cmpl   $0x2,-0x2c(%rbp)
  2074b9:	75 36                	jne    2074f1 <disasm_operands+0xc61>
  2074bb:	8b 45 cc             	mov    -0x34(%rbp),%eax
  2074be:	0f b6 c8             	movzbl %al,%ecx
  2074c1:	48 8d 43 20          	lea    0x20(%rbx),%rax
  2074c5:	8b 55 c8             	mov    -0x38(%rbp),%edx
  2074c8:	c7 04 24 06 00 00 00 	movl   $0x6,(%rsp)
  2074cf:	41 89 c9             	mov    %ecx,%r9d
  2074d2:	49 89 d8             	mov    %rbx,%r8
  2074d5:	b9 01 00 00 00       	mov    $0x1,%ecx
  2074da:	48 89 c6             	mov    %rax,%rsi
  2074dd:	4c 89 e7             	mov    %r12,%rdi
  2074e0:	48 b8 98 60 20 00 00 	mov    $0x206098,%rax
  2074e7:	00 00 00 
  2074ea:	ff d0                	callq  *%rax
  2074ec:	e9 a8 02 00 00       	jmpq   207799 <disasm_operands+0xf09>
  2074f1:	83 7d d4 51          	cmpl   $0x51,-0x2c(%rbp)
  2074f5:	0f 85 8e 02 00 00    	jne    207789 <disasm_operands+0xef9>
  2074fb:	8b 45 cc             	mov    -0x34(%rbp),%eax
  2074fe:	0f b6 c8             	movzbl %al,%ecx
  207501:	48 8d 43 20          	lea    0x20(%rbx),%rax
  207505:	8b 55 c8             	mov    -0x38(%rbp),%edx
  207508:	c7 04 24 06 00 00 00 	movl   $0x6,(%rsp)
  20750f:	41 89 c9             	mov    %ecx,%r9d
  207512:	49 89 d8             	mov    %rbx,%r8
  207515:	b9 02 00 00 00       	mov    $0x2,%ecx
  20751a:	48 89 c6             	mov    %rax,%rsi
  20751d:	4c 89 e7             	mov    %r12,%rdi
  207520:	48 b8 98 60 20 00 00 	mov    $0x206098,%rax
  207527:	00 00 00 
  20752a:	ff d0                	callq  *%rax
  20752c:	e9 68 02 00 00       	jmpq   207799 <disasm_operands+0xf09>
  207531:	c7 03 8c 00 00 00    	movl   $0x8c,(%rbx)
  207537:	c7 43 10 17 00 00 00 	movl   $0x17,0x10(%rbx)
  20753e:	c6 43 04 10          	movb   $0x10,0x4(%rbx)
  207542:	83 7d d4 2e          	cmpl   $0x2e,-0x2c(%rbp)
  207546:	75 2a                	jne    207572 <disasm_operands+0xce2>
  207548:	48 8d 43 20          	lea    0x20(%rbx),%rax
  20754c:	c7 00 8c 00 00 00    	movl   $0x8c,(%rax)
  207552:	48 83 c3 20          	add    $0x20,%rbx
  207556:	8b 45 d4             	mov    -0x2c(%rbp),%eax
  207559:	89 c6                	mov    %eax,%esi
  20755b:	4c 89 e7             	mov    %r12,%rdi
  20755e:	48 b8 19 5f 20 00 00 	mov    $0x205f19,%rax
  207565:	00 00 00 
  207568:	ff d0                	callq  *%rax
  20756a:	89 43 10             	mov    %eax,0x10(%rbx)
  20756d:	e9 27 02 00 00       	jmpq   207799 <disasm_operands+0xf09>
  207572:	83 7d d4 06          	cmpl   $0x6,-0x2c(%rbp)
  207576:	0f 85 10 02 00 00    	jne    20778c <disasm_operands+0xefc>
  20757c:	48 8d 43 20          	lea    0x20(%rbx),%rax
  207580:	c7 00 8c 00 00 00    	movl   $0x8c,(%rax)
  207586:	48 8d 43 20          	lea    0x20(%rbx),%rax
  20758a:	c7 40 10 01 00 00 00 	movl   $0x1,0x10(%rax)
  207591:	48 8d 43 20          	lea    0x20(%rbx),%rax
  207595:	c6 40 04 08          	movb   $0x8,0x4(%rax)
  207599:	e9 fb 01 00 00       	jmpq   207799 <disasm_operands+0xf09>
  20759e:	8b 45 cc             	mov    -0x34(%rbp),%eax
  2075a1:	48 89 da             	mov    %rbx,%rdx
  2075a4:	89 c6                	mov    %eax,%esi
  2075a6:	4c 89 e7             	mov    %r12,%rdi
  2075a9:	48 b8 bd 5f 20 00 00 	mov    $0x205fbd,%rax
  2075b0:	00 00 00 
  2075b3:	ff d0                	callq  *%rax
  2075b5:	83 7d d4 05          	cmpl   $0x5,-0x2c(%rbp)
  2075b9:	75 1d                	jne    2075d8 <disasm_operands+0xd48>
  2075bb:	48 8d 53 20          	lea    0x20(%rbx),%rdx
  2075bf:	8b 45 c8             	mov    -0x38(%rbp),%eax
  2075c2:	89 c6                	mov    %eax,%esi
  2075c4:	4c 89 e7             	mov    %r12,%rdi
  2075c7:	48 b8 bd 5f 20 00 00 	mov    $0x205fbd,%rax
  2075ce:	00 00 00 
  2075d1:	ff d0                	callq  *%rax
  2075d3:	e9 c1 01 00 00       	jmpq   207799 <disasm_operands+0xf09>
  2075d8:	83 7d d4 06          	cmpl   $0x6,-0x2c(%rbp)
  2075dc:	75 22                	jne    207600 <disasm_operands+0xd70>
  2075de:	48 8d 43 20          	lea    0x20(%rbx),%rax
  2075e2:	c7 00 8c 00 00 00    	movl   $0x8c,(%rax)
  2075e8:	48 8d 43 20          	lea    0x20(%rbx),%rax
  2075ec:	c7 40 10 01 00 00 00 	movl   $0x1,0x10(%rax)
  2075f3:	48 8d 43 20          	lea    0x20(%rbx),%rax
  2075f7:	c6 40 04 10          	movb   $0x10,0x4(%rax)
  2075fb:	e9 99 01 00 00       	jmpq   207799 <disasm_operands+0xf09>
  207600:	83 7d d4 2e          	cmpl   $0x2e,-0x2c(%rbp)
  207604:	0f 85 85 01 00 00    	jne    20778f <disasm_operands+0xeff>
  20760a:	48 8d 43 20          	lea    0x20(%rbx),%rax
  20760e:	c7 00 8c 00 00 00    	movl   $0x8c,(%rax)
  207614:	48 83 c3 20          	add    $0x20,%rbx
  207618:	8b 45 d4             	mov    -0x2c(%rbp),%eax
  20761b:	89 c6                	mov    %eax,%esi
  20761d:	4c 89 e7             	mov    %r12,%rdi
  207620:	48 b8 19 5f 20 00 00 	mov    $0x205f19,%rax
  207627:	00 00 00 
  20762a:	ff d0                	callq  *%rax
  20762c:	89 43 10             	mov    %eax,0x10(%rbx)
  20762f:	e9 65 01 00 00       	jmpq   207799 <disasm_operands+0xf09>
  207634:	8b 45 cc             	mov    -0x34(%rbp),%eax
  207637:	48 89 da             	mov    %rbx,%rdx
  20763a:	89 c6                	mov    %eax,%esi
  20763c:	4c 89 e7             	mov    %r12,%rdi
  20763f:	48 b8 c1 67 20 00 00 	mov    $0x2067c1,%rax
  207646:	00 00 00 
  207649:	ff d0                	callq  *%rax
  20764b:	48 8d 43 20          	lea    0x20(%rbx),%rax
  20764f:	c7 00 8c 00 00 00    	movl   $0x8c,(%rax)
  207655:	4c 8d 6b 20          	lea    0x20(%rbx),%r13
  207659:	8b 45 cc             	mov    -0x34(%rbp),%eax
  20765c:	89 c6                	mov    %eax,%esi
  20765e:	4c 89 e7             	mov    %r12,%rdi
  207661:	48 b8 1c 58 20 00 00 	mov    $0x20581c,%rax
  207668:	00 00 00 
  20766b:	ff d0                	callq  *%rax
  20766d:	41 88 45 04          	mov    %al,0x4(%r13)
  207671:	83 7d d4 06          	cmpl   $0x6,-0x2c(%rbp)
  207675:	75 10                	jne    207687 <disasm_operands+0xdf7>
  207677:	48 8d 43 20          	lea    0x20(%rbx),%rax
  20767b:	c7 40 10 01 00 00 00 	movl   $0x1,0x10(%rax)
  207682:	e9 12 01 00 00       	jmpq   207799 <disasm_operands+0xf09>
  207687:	83 7d d4 2e          	cmpl   $0x2e,-0x2c(%rbp)
  20768b:	75 20                	jne    2076ad <disasm_operands+0xe1d>
  20768d:	48 83 c3 20          	add    $0x20,%rbx
  207691:	8b 45 d4             	mov    -0x2c(%rbp),%eax
  207694:	89 c6                	mov    %eax,%esi
  207696:	4c 89 e7             	mov    %r12,%rdi
  207699:	48 b8 19 5f 20 00 00 	mov    $0x205f19,%rax
  2076a0:	00 00 00 
  2076a3:	ff d0                	callq  *%rax
  2076a5:	89 43 10             	mov    %eax,0x10(%rbx)
  2076a8:	e9 ec 00 00 00       	jmpq   207799 <disasm_operands+0xf09>
  2076ad:	83 7d d4 1e          	cmpl   $0x1e,-0x2c(%rbp)
  2076b1:	0f 85 db 00 00 00    	jne    207792 <disasm_operands+0xf02>
  2076b7:	48 83 c3 20          	add    $0x20,%rbx
  2076bb:	8b 45 d4             	mov    -0x2c(%rbp),%eax
  2076be:	89 c6                	mov    %eax,%esi
  2076c0:	4c 89 e7             	mov    %r12,%rdi
  2076c3:	48 b8 70 5e 20 00 00 	mov    $0x205e70,%rax
  2076ca:	00 00 00 
  2076cd:	ff d0                	callq  *%rax
  2076cf:	89 43 10             	mov    %eax,0x10(%rbx)
  2076d2:	e9 c2 00 00 00       	jmpq   207799 <disasm_operands+0xf09>
  2076d7:	c7 03 91 00 00 00    	movl   $0x91,(%rbx)
  2076dd:	c6 43 08 03          	movb   $0x3,0x8(%rbx)
  2076e1:	e9 b3 00 00 00       	jmpq   207799 <disasm_operands+0xf09>
  2076e6:	c7 03 8c 00 00 00    	movl   $0x8c,(%rbx)
  2076ec:	8b 45 d8             	mov    -0x28(%rbp),%eax
  2076ef:	83 c0 37             	add    $0x37,%eax
  2076f2:	89 43 10             	mov    %eax,0x10(%rbx)
  2076f5:	c6 43 04 00          	movb   $0x0,0x4(%rbx)
  2076f9:	83 7d d4 3b          	cmpl   $0x3b,-0x2c(%rbp)
  2076fd:	0f 86 92 00 00 00    	jbe    207795 <disasm_operands+0xf05>
  207703:	83 7d d4 43          	cmpl   $0x43,-0x2c(%rbp)
  207707:	0f 87 8b 00 00 00    	ja     207798 <disasm_operands+0xf08>
  20770d:	48 8d 43 20          	lea    0x20(%rbx),%rax
  207711:	c7 00 8c 00 00 00    	movl   $0x8c,(%rax)
  207717:	48 8d 43 20          	lea    0x20(%rbx),%rax
  20771b:	8b 55 d4             	mov    -0x2c(%rbp),%edx
  20771e:	83 c2 37             	add    $0x37,%edx
  207721:	89 50 10             	mov    %edx,0x10(%rax)
  207724:	48 8d 43 20          	lea    0x20(%rbx),%rax
  207728:	c6 40 04 00          	movb   $0x0,0x4(%rax)
  20772c:	eb 6b                	jmp    207799 <disasm_operands+0xf09>
  20772e:	c7 03 8c 00 00 00    	movl   $0x8c,(%rbx)
  207734:	c7 43 10 15 00 00 00 	movl   $0x15,0x10(%rbx)
  20773b:	c6 43 04 10          	movb   $0x10,0x4(%rbx)
  20773f:	eb 58                	jmp    207799 <disasm_operands+0xf09>
  207741:	48 8d 43 20          	lea    0x20(%rbx),%rax
  207745:	48 8d 53 40          	lea    0x40(%rbx),%rdx
  207749:	c7 02 00 00 00 00    	movl   $0x0,(%rdx)
  20774f:	8b 12                	mov    (%rdx),%edx
  207751:	89 10                	mov    %edx,(%rax)
  207753:	8b 00                	mov    (%rax),%eax
  207755:	89 03                	mov    %eax,(%rbx)
  207757:	eb 40                	jmp    207799 <disasm_operands+0xf09>
  207759:	90                   	nop
  20775a:	eb 3d                	jmp    207799 <disasm_operands+0xf09>
  20775c:	90                   	nop
  20775d:	eb 3a                	jmp    207799 <disasm_operands+0xf09>
  20775f:	90                   	nop
  207760:	eb 37                	jmp    207799 <disasm_operands+0xf09>
  207762:	90                   	nop
  207763:	eb 34                	jmp    207799 <disasm_operands+0xf09>
  207765:	90                   	nop
  207766:	eb 31                	jmp    207799 <disasm_operands+0xf09>
  207768:	90                   	nop
  207769:	eb 2e                	jmp    207799 <disasm_operands+0xf09>
  20776b:	90                   	nop
  20776c:	eb 2b                	jmp    207799 <disasm_operands+0xf09>
  20776e:	90                   	nop
  20776f:	eb 28                	jmp    207799 <disasm_operands+0xf09>
  207771:	90                   	nop
  207772:	eb 25                	jmp    207799 <disasm_operands+0xf09>
  207774:	90                   	nop
  207775:	eb 22                	jmp    207799 <disasm_operands+0xf09>
  207777:	90                   	nop
  207778:	eb 1f                	jmp    207799 <disasm_operands+0xf09>
  20777a:	90                   	nop
  20777b:	eb 1c                	jmp    207799 <disasm_operands+0xf09>
  20777d:	90                   	nop
  20777e:	eb 19                	jmp    207799 <disasm_operands+0xf09>
  207780:	90                   	nop
  207781:	eb 16                	jmp    207799 <disasm_operands+0xf09>
  207783:	90                   	nop
  207784:	eb 13                	jmp    207799 <disasm_operands+0xf09>
  207786:	90                   	nop
  207787:	eb 10                	jmp    207799 <disasm_operands+0xf09>
  207789:	90                   	nop
  20778a:	eb 0d                	jmp    207799 <disasm_operands+0xf09>
  20778c:	90                   	nop
  20778d:	eb 0a                	jmp    207799 <disasm_operands+0xf09>
  20778f:	90                   	nop
  207790:	eb 07                	jmp    207799 <disasm_operands+0xf09>
  207792:	90                   	nop
  207793:	eb 04                	jmp    207799 <disasm_operands+0xf09>
  207795:	90                   	nop
  207796:	eb 01                	jmp    207799 <disasm_operands+0xf09>
  207798:	90                   	nop
  207799:	b8 00 00 00 00       	mov    $0x0,%eax
  20779e:	48 83 c4 38          	add    $0x38,%rsp
  2077a2:	5b                   	pop    %rbx
  2077a3:	41 5c                	pop    %r12
  2077a5:	41 5d                	pop    %r13
  2077a7:	c9                   	leaveq 
  2077a8:	c3                   	retq   

00000000002077a9 <clear_insn>:
  2077a9:	55                   	push   %rbp
  2077aa:	48 89 e5             	mov    %rsp,%rbp
  2077ad:	53                   	push   %rbx
  2077ae:	48 83 ec 08          	sub    $0x8,%rsp
  2077b2:	48 89 fb             	mov    %rdi,%rbx
  2077b5:	c6 83 30 01 00 00 00 	movb   $0x0,0x130(%rbx)
  2077bc:	c6 83 32 01 00 00 00 	movb   $0x0,0x132(%rbx)
  2077c3:	c6 83 33 01 00 00 00 	movb   $0x0,0x133(%rbx)
  2077ca:	c6 83 34 01 00 00 00 	movb   $0x0,0x134(%rbx)
  2077d1:	c6 83 35 01 00 00 00 	movb   $0x0,0x135(%rbx)
  2077d8:	c6 83 38 01 00 00 00 	movb   $0x0,0x138(%rbx)
  2077df:	c6 83 36 01 00 00 00 	movb   $0x0,0x136(%rbx)
  2077e6:	c6 83 32 01 00 00 00 	movb   $0x0,0x132(%rbx)
  2077ed:	c6 83 31 01 00 00 00 	movb   $0x0,0x131(%rbx)
  2077f4:	c6 83 39 01 00 00 00 	movb   $0x0,0x139(%rbx)
  2077fb:	c7 83 c8 00 00 00 57 	movl   $0x257,0xc8(%rbx)
  207802:	02 00 00 
  207805:	48 c7 83 c0 00 00 00 	movq   $0x0,0xc0(%rbx)
  20780c:	00 00 00 00 
  207810:	48 8d 83 d0 00 00 00 	lea    0xd0(%rbx),%rax
  207817:	ba 20 00 00 00       	mov    $0x20,%edx
  20781c:	be 00 00 00 00       	mov    $0x0,%esi
  207821:	48 89 c7             	mov    %rax,%rdi
  207824:	48 b8 58 7f 20 00 00 	mov    $0x207f58,%rax
  20782b:	00 00 00 
  20782e:	ff d0                	callq  *%rax
  207830:	48 8d 83 d0 00 00 00 	lea    0xd0(%rbx),%rax
  207837:	48 83 c0 20          	add    $0x20,%rax
  20783b:	ba 20 00 00 00       	mov    $0x20,%edx
  207840:	be 00 00 00 00       	mov    $0x0,%esi
  207845:	48 89 c7             	mov    %rax,%rdi
  207848:	48 b8 58 7f 20 00 00 	mov    $0x207f58,%rax
  20784f:	00 00 00 
  207852:	ff d0                	callq  *%rax
  207854:	48 8d 83 d0 00 00 00 	lea    0xd0(%rbx),%rax
  20785b:	48 83 c0 40          	add    $0x40,%rax
  20785f:	ba 20 00 00 00       	mov    $0x20,%edx
  207864:	be 00 00 00 00       	mov    $0x0,%esi
  207869:	48 89 c7             	mov    %rax,%rdi
  20786c:	48 b8 58 7f 20 00 00 	mov    $0x207f58,%rax
  207873:	00 00 00 
  207876:	ff d0                	callq  *%rax
  207878:	b8 00 00 00 00       	mov    $0x0,%eax
  20787d:	48 83 c4 08          	add    $0x8,%rsp
  207881:	5b                   	pop    %rbx
  207882:	c9                   	leaveq 
  207883:	c3                   	retq   

0000000000207884 <do_prefixes>:
  207884:	55                   	push   %rbp
  207885:	48 89 e5             	mov    %rsp,%rbp
  207888:	48 83 ec 20          	sub    $0x20,%rsp
  20788c:	48 89 7d e8          	mov    %rdi,-0x18(%rbp)
  207890:	c7 45 fc 01 00 00 00 	movl   $0x1,-0x4(%rbp)
  207897:	c6 45 f7 ff          	movb   $0xff,-0x9(%rbp)
  20789b:	48 8b 45 e8          	mov    -0x18(%rbp),%rax
  20789f:	0f b6 80 30 01 00 00 	movzbl 0x130(%rax),%eax
  2078a6:	84 c0                	test   %al,%al
  2078a8:	74 0a                	je     2078b4 <do_prefixes+0x30>
  2078aa:	b8 ff ff ff ff       	mov    $0xffffffff,%eax
  2078af:	e9 47 02 00 00       	jmpq   207afb <do_prefixes+0x277>
  2078b4:	c7 45 f8 00 00 00 00 	movl   $0x0,-0x8(%rbp)
  2078bb:	e9 03 02 00 00       	jmpq   207ac3 <do_prefixes+0x23f>
  2078c0:	48 8b 45 e8          	mov    -0x18(%rbp),%rax
  2078c4:	48 89 c7             	mov    %rax,%rdi
  2078c7:	48 b8 9c 38 20 00 00 	mov    $0x20389c,%rax
  2078ce:	00 00 00 
  2078d1:	ff d0                	callq  *%rax
  2078d3:	48 8b 45 e8          	mov    -0x18(%rbp),%rax
  2078d7:	0f b6 80 30 01 00 00 	movzbl 0x130(%rax),%eax
  2078de:	84 c0                	test   %al,%al
  2078e0:	74 0a                	je     2078ec <do_prefixes+0x68>
  2078e2:	b8 ff ff ff ff       	mov    $0xffffffff,%eax
  2078e7:	e9 0f 02 00 00       	jmpq   207afb <do_prefixes+0x277>
  2078ec:	48 8b 45 e8          	mov    -0x18(%rbp),%rax
  2078f0:	0f b6 40 08          	movzbl 0x8(%rax),%eax
  2078f4:	0f b6 c0             	movzbl %al,%eax
  2078f7:	48 8b 55 e8          	mov    -0x18(%rbp),%rdx
  2078fb:	48 98                	cltq   
  2078fd:	0f b6 84 02 42 01 00 	movzbl 0x142(%rdx,%rax,1),%eax
  207904:	00 
  207905:	88 45 f6             	mov    %al,-0xa(%rbp)
  207908:	48 8b 45 e8          	mov    -0x18(%rbp),%rax
  20790c:	0f b6 80 ac 00 00 00 	movzbl 0xac(%rax),%eax
  207913:	3c 40                	cmp    $0x40,%al
  207915:	75 21                	jne    207938 <do_prefixes+0xb4>
  207917:	0f b6 45 f6          	movzbl -0xa(%rbp),%eax
  20791b:	25 f0 00 00 00       	and    $0xf0,%eax
  207920:	83 f8 40             	cmp    $0x40,%eax
  207923:	75 13                	jne    207938 <do_prefixes+0xb4>
  207925:	48 8b 45 e8          	mov    -0x18(%rbp),%rax
  207929:	0f b6 55 f6          	movzbl -0xa(%rbp),%edx
  20792d:	88 90 31 01 00 00    	mov    %dl,0x131(%rax)
  207933:	e9 6d 01 00 00       	jmpq   207aa5 <do_prefixes+0x221>
  207938:	0f b6 45 f6          	movzbl -0xa(%rbp),%eax
  20793c:	83 f8 65             	cmp    $0x65,%eax
  20793f:	0f 84 c9 00 00 00    	je     207a0e <do_prefixes+0x18a>
  207945:	83 f8 65             	cmp    $0x65,%eax
  207948:	7f 30                	jg     20797a <do_prefixes+0xf6>
  20794a:	83 f8 36             	cmp    $0x36,%eax
  20794d:	74 7f                	je     2079ce <do_prefixes+0x14a>
  20794f:	83 f8 36             	cmp    $0x36,%eax
  207952:	7f 13                	jg     207967 <do_prefixes+0xe3>
  207954:	83 f8 26             	cmp    $0x26,%eax
  207957:	0f 84 91 00 00 00    	je     2079ee <do_prefixes+0x16a>
  20795d:	83 f8 2e             	cmp    $0x2e,%eax
  207960:	74 5c                	je     2079be <do_prefixes+0x13a>
  207962:	e9 37 01 00 00       	jmpq   207a9e <do_prefixes+0x21a>
  207967:	83 f8 3e             	cmp    $0x3e,%eax
  20796a:	74 72                	je     2079de <do_prefixes+0x15a>
  20796c:	83 f8 64             	cmp    $0x64,%eax
  20796f:	0f 84 89 00 00 00    	je     2079fe <do_prefixes+0x17a>
  207975:	e9 24 01 00 00       	jmpq   207a9e <do_prefixes+0x21a>
  20797a:	3d f0 00 00 00       	cmp    $0xf0,%eax
  20797f:	0f 84 a6 00 00 00    	je     207a2b <do_prefixes+0x1a7>
  207985:	3d f0 00 00 00       	cmp    $0xf0,%eax
  20798a:	7f 17                	jg     2079a3 <do_prefixes+0x11f>
  20798c:	83 f8 66             	cmp    $0x66,%eax
  20798f:	0f 84 a3 00 00 00    	je     207a38 <do_prefixes+0x1b4>
  207995:	83 f8 67             	cmp    $0x67,%eax
  207998:	0f 84 80 00 00 00    	je     207a1e <do_prefixes+0x19a>
  20799e:	e9 fb 00 00 00       	jmpq   207a9e <do_prefixes+0x21a>
  2079a3:	3d f2 00 00 00       	cmp    $0xf2,%eax
  2079a8:	0f 84 c0 00 00 00    	je     207a6e <do_prefixes+0x1ea>
  2079ae:	3d f3 00 00 00       	cmp    $0xf3,%eax
  2079b3:	0f 84 cd 00 00 00    	je     207a86 <do_prefixes+0x202>
  2079b9:	e9 e0 00 00 00       	jmpq   207a9e <do_prefixes+0x21a>
  2079be:	48 8b 45 e8          	mov    -0x18(%rbp),%rax
  2079c2:	c6 80 32 01 00 00 46 	movb   $0x46,0x132(%rax)
  2079c9:	e9 d7 00 00 00       	jmpq   207aa5 <do_prefixes+0x221>
  2079ce:	48 8b 45 e8          	mov    -0x18(%rbp),%rax
  2079d2:	c6 80 32 01 00 00 47 	movb   $0x47,0x132(%rax)
  2079d9:	e9 c7 00 00 00       	jmpq   207aa5 <do_prefixes+0x221>
  2079de:	48 8b 45 e8          	mov    -0x18(%rbp),%rax
  2079e2:	c6 80 32 01 00 00 48 	movb   $0x48,0x132(%rax)
  2079e9:	e9 b7 00 00 00       	jmpq   207aa5 <do_prefixes+0x221>
  2079ee:	48 8b 45 e8          	mov    -0x18(%rbp),%rax
  2079f2:	c6 80 32 01 00 00 45 	movb   $0x45,0x132(%rax)
  2079f9:	e9 a7 00 00 00       	jmpq   207aa5 <do_prefixes+0x221>
  2079fe:	48 8b 45 e8          	mov    -0x18(%rbp),%rax
  207a02:	c6 80 32 01 00 00 49 	movb   $0x49,0x132(%rax)
  207a09:	e9 97 00 00 00       	jmpq   207aa5 <do_prefixes+0x221>
  207a0e:	48 8b 45 e8          	mov    -0x18(%rbp),%rax
  207a12:	c6 80 32 01 00 00 4a 	movb   $0x4a,0x132(%rax)
  207a19:	e9 87 00 00 00       	jmpq   207aa5 <do_prefixes+0x221>
  207a1e:	48 8b 45 e8          	mov    -0x18(%rbp),%rax
  207a22:	c6 80 34 01 00 00 67 	movb   $0x67,0x134(%rax)
  207a29:	eb 7a                	jmp    207aa5 <do_prefixes+0x221>
  207a2b:	48 8b 45 e8          	mov    -0x18(%rbp),%rax
  207a2f:	c6 80 35 01 00 00 f0 	movb   $0xf0,0x135(%rax)
  207a36:	eb 6d                	jmp    207aa5 <do_prefixes+0x221>
  207a38:	48 8b 45 e8          	mov    -0x18(%rbp),%rax
  207a3c:	0f b6 80 39 01 00 00 	movzbl 0x139(%rax),%eax
  207a43:	3c f2                	cmp    $0xf2,%al
  207a45:	74 1a                	je     207a61 <do_prefixes+0x1dd>
  207a47:	48 8b 45 e8          	mov    -0x18(%rbp),%rax
  207a4b:	0f b6 80 39 01 00 00 	movzbl 0x139(%rax),%eax
  207a52:	3c f3                	cmp    $0xf3,%al
  207a54:	74 0b                	je     207a61 <do_prefixes+0x1dd>
  207a56:	48 8b 45 e8          	mov    -0x18(%rbp),%rax
  207a5a:	c6 80 39 01 00 00 66 	movb   $0x66,0x139(%rax)
  207a61:	48 8b 45 e8          	mov    -0x18(%rbp),%rax
  207a65:	c6 80 33 01 00 00 66 	movb   $0x66,0x133(%rax)
  207a6c:	eb 37                	jmp    207aa5 <do_prefixes+0x221>
  207a6e:	48 8b 45 e8          	mov    -0x18(%rbp),%rax
  207a72:	c6 80 39 01 00 00 f2 	movb   $0xf2,0x139(%rax)
  207a79:	48 8b 45 e8          	mov    -0x18(%rbp),%rax
  207a7d:	c6 80 38 01 00 00 f2 	movb   $0xf2,0x138(%rax)
  207a84:	eb 1f                	jmp    207aa5 <do_prefixes+0x221>
  207a86:	48 8b 45 e8          	mov    -0x18(%rbp),%rax
  207a8a:	c6 80 39 01 00 00 f3 	movb   $0xf3,0x139(%rax)
  207a91:	48 8b 45 e8          	mov    -0x18(%rbp),%rax
  207a95:	c6 80 36 01 00 00 f3 	movb   $0xf3,0x136(%rax)
  207a9c:	eb 07                	jmp    207aa5 <do_prefixes+0x221>
  207a9e:	c7 45 fc 00 00 00 00 	movl   $0x0,-0x4(%rbp)
  207aa5:	83 7d f8 0e          	cmpl   $0xe,-0x8(%rbp)
  207aa9:	75 0d                	jne    207ab8 <do_prefixes+0x234>
  207aab:	48 8b 45 e8          	mov    -0x18(%rbp),%rax
  207aaf:	c6 80 30 01 00 00 01 	movb   $0x1,0x130(%rax)
  207ab6:	eb 15                	jmp    207acd <do_prefixes+0x249>
  207ab8:	0f b6 45 f6          	movzbl -0xa(%rbp),%eax
  207abc:	88 45 f7             	mov    %al,-0x9(%rbp)
  207abf:	83 45 f8 01          	addl   $0x1,-0x8(%rbp)
  207ac3:	83 7d fc 00          	cmpl   $0x0,-0x4(%rbp)
  207ac7:	0f 85 f3 fd ff ff    	jne    2078c0 <do_prefixes+0x3c>
  207acd:	48 8b 45 e8          	mov    -0x18(%rbp),%rax
  207ad1:	0f b6 80 30 01 00 00 	movzbl 0x130(%rax),%eax
  207ad8:	84 c0                	test   %al,%al
  207ada:	74 07                	je     207ae3 <do_prefixes+0x25f>
  207adc:	b8 ff ff ff ff       	mov    $0xffffffff,%eax
  207ae1:	eb 18                	jmp    207afb <do_prefixes+0x277>
  207ae3:	48 8b 45 e8          	mov    -0x18(%rbp),%rax
  207ae7:	48 89 c7             	mov    %rax,%rdi
  207aea:	48 b8 a6 39 20 00 00 	mov    $0x2039a6,%rax
  207af1:	00 00 00 
  207af4:	ff d0                	callq  *%rax
  207af6:	b8 00 00 00 00       	mov    $0x0,%eax
  207afb:	c9                   	leaveq 
  207afc:	c3                   	retq   

0000000000207afd <do_mode>:
  207afd:	55                   	push   %rbp
  207afe:	48 89 e5             	mov    %rsp,%rbp
  207b01:	48 83 ec 08          	sub    $0x8,%rsp
  207b05:	48 89 7d f8          	mov    %rdi,-0x8(%rbp)
  207b09:	48 8b 45 f8          	mov    -0x8(%rbp),%rax
  207b0d:	0f b6 80 30 01 00 00 	movzbl 0x130(%rax),%eax
  207b14:	84 c0                	test   %al,%al
  207b16:	74 0a                	je     207b22 <do_mode+0x25>
  207b18:	b8 ff ff ff ff       	mov    $0xffffffff,%eax
  207b1d:	e9 47 02 00 00       	jmpq   207d69 <do_mode+0x26c>
  207b22:	48 8b 45 f8          	mov    -0x8(%rbp),%rax
  207b26:	0f b6 80 ac 00 00 00 	movzbl 0xac(%rax),%eax
  207b2d:	3c 40                	cmp    $0x40,%al
  207b2f:	0f 85 19 01 00 00    	jne    207c4e <do_mode+0x151>
  207b35:	48 8b 45 f8          	mov    -0x8(%rbp),%rax
  207b39:	48 8b 80 c0 00 00 00 	mov    0xc0(%rax),%rax
  207b40:	8b 40 1c             	mov    0x1c(%rax),%eax
  207b43:	83 e0 10             	and    $0x10,%eax
  207b46:	85 c0                	test   %eax,%eax
  207b48:	74 15                	je     207b5f <do_mode+0x62>
  207b4a:	48 8b 45 f8          	mov    -0x8(%rbp),%rax
  207b4e:	c6 80 30 01 00 00 01 	movb   $0x1,0x130(%rax)
  207b55:	b8 ff ff ff ff       	mov    $0xffffffff,%eax
  207b5a:	e9 0a 02 00 00       	jmpq   207d69 <do_mode+0x26c>
  207b5f:	48 8b 45 f8          	mov    -0x8(%rbp),%rax
  207b63:	0f b6 90 31 01 00 00 	movzbl 0x131(%rax),%edx
  207b6a:	48 8b 45 f8          	mov    -0x8(%rbp),%rax
  207b6e:	48 8b 80 c0 00 00 00 	mov    0xc0(%rax),%rax
  207b75:	8b 40 1c             	mov    0x1c(%rax),%eax
  207b78:	c1 e8 10             	shr    $0x10,%eax
  207b7b:	83 e0 0f             	and    $0xf,%eax
  207b7e:	83 c8 40             	or     $0x40,%eax
  207b81:	21 c2                	and    %eax,%edx
  207b83:	48 8b 45 f8          	mov    -0x8(%rbp),%rax
  207b87:	88 90 31 01 00 00    	mov    %dl,0x131(%rax)
  207b8d:	48 8b 45 f8          	mov    -0x8(%rbp),%rax
  207b91:	48 8b 80 c0 00 00 00 	mov    0xc0(%rax),%rax
  207b98:	8b 40 1c             	mov    0x1c(%rax),%eax
  207b9b:	89 c2                	mov    %eax,%edx
  207b9d:	83 e2 08             	and    $0x8,%edx
  207ba0:	48 8b 45 f8          	mov    -0x8(%rbp),%rax
  207ba4:	88 90 3a 01 00 00    	mov    %dl,0x13a(%rax)
  207baa:	48 8b 45 f8          	mov    -0x8(%rbp),%rax
  207bae:	48 8b 80 c0 00 00 00 	mov    0xc0(%rax),%rax
  207bb5:	8b 40 1c             	mov    0x1c(%rax),%eax
  207bb8:	25 00 00 ff 00       	and    $0xff0000,%eax
  207bbd:	85 c0                	test   %eax,%eax
  207bbf:	74 22                	je     207be3 <do_mode+0xe6>
  207bc1:	48 8b 45 f8          	mov    -0x8(%rbp),%rax
  207bc5:	0f b6 80 31 01 00 00 	movzbl 0x131(%rax),%eax
  207bcc:	83 e0 0f             	and    $0xf,%eax
  207bcf:	c0 e8 03             	shr    $0x3,%al
  207bd2:	84 c0                	test   %al,%al
  207bd4:	74 0d                	je     207be3 <do_mode+0xe6>
  207bd6:	48 8b 45 f8          	mov    -0x8(%rbp),%rax
  207bda:	c6 80 3b 01 00 00 40 	movb   $0x40,0x13b(%rax)
  207be1:	eb 41                	jmp    207c24 <do_mode+0x127>
  207be3:	48 8b 45 f8          	mov    -0x8(%rbp),%rax
  207be7:	0f b6 80 33 01 00 00 	movzbl 0x133(%rax),%eax
  207bee:	84 c0                	test   %al,%al
  207bf0:	74 0d                	je     207bff <do_mode+0x102>
  207bf2:	48 8b 45 f8          	mov    -0x8(%rbp),%rax
  207bf6:	c6 80 3b 01 00 00 10 	movb   $0x10,0x13b(%rax)
  207bfd:	eb 25                	jmp    207c24 <do_mode+0x127>
  207bff:	48 8b 45 f8          	mov    -0x8(%rbp),%rax
  207c03:	0f b6 80 3a 01 00 00 	movzbl 0x13a(%rax),%eax
  207c0a:	84 c0                	test   %al,%al
  207c0c:	74 07                	je     207c15 <do_mode+0x118>
  207c0e:	b8 40 00 00 00       	mov    $0x40,%eax
  207c13:	eb 05                	jmp    207c1a <do_mode+0x11d>
  207c15:	b8 20 00 00 00       	mov    $0x20,%eax
  207c1a:	48 8b 55 f8          	mov    -0x8(%rbp),%rdx
  207c1e:	88 82 3b 01 00 00    	mov    %al,0x13b(%rdx)
  207c24:	48 8b 45 f8          	mov    -0x8(%rbp),%rax
  207c28:	0f b6 80 34 01 00 00 	movzbl 0x134(%rax),%eax
  207c2f:	84 c0                	test   %al,%al
  207c31:	74 07                	je     207c3a <do_mode+0x13d>
  207c33:	b8 20 00 00 00       	mov    $0x20,%eax
  207c38:	eb 05                	jmp    207c3f <do_mode+0x142>
  207c3a:	b8 40 00 00 00       	mov    $0x40,%eax
  207c3f:	48 8b 55 f8          	mov    -0x8(%rbp),%rdx
  207c43:	88 82 3c 01 00 00    	mov    %al,0x13c(%rdx)
  207c49:	e9 b4 00 00 00       	jmpq   207d02 <do_mode+0x205>
  207c4e:	48 8b 45 f8          	mov    -0x8(%rbp),%rax
  207c52:	0f b6 80 ac 00 00 00 	movzbl 0xac(%rax),%eax
  207c59:	3c 20                	cmp    $0x20,%al
  207c5b:	75 4c                	jne    207ca9 <do_mode+0x1ac>
  207c5d:	48 8b 45 f8          	mov    -0x8(%rbp),%rax
  207c61:	0f b6 80 33 01 00 00 	movzbl 0x133(%rax),%eax
  207c68:	84 c0                	test   %al,%al
  207c6a:	74 07                	je     207c73 <do_mode+0x176>
  207c6c:	b8 10 00 00 00       	mov    $0x10,%eax
  207c71:	eb 05                	jmp    207c78 <do_mode+0x17b>
  207c73:	b8 20 00 00 00       	mov    $0x20,%eax
  207c78:	48 8b 55 f8          	mov    -0x8(%rbp),%rdx
  207c7c:	88 82 3b 01 00 00    	mov    %al,0x13b(%rdx)
  207c82:	48 8b 45 f8          	mov    -0x8(%rbp),%rax
  207c86:	0f b6 80 34 01 00 00 	movzbl 0x134(%rax),%eax
  207c8d:	84 c0                	test   %al,%al
  207c8f:	74 07                	je     207c98 <do_mode+0x19b>
  207c91:	b8 10 00 00 00       	mov    $0x10,%eax
  207c96:	eb 05                	jmp    207c9d <do_mode+0x1a0>
  207c98:	b8 20 00 00 00       	mov    $0x20,%eax
  207c9d:	48 8b 55 f8          	mov    -0x8(%rbp),%rdx
  207ca1:	88 82 3c 01 00 00    	mov    %al,0x13c(%rdx)
  207ca7:	eb 59                	jmp    207d02 <do_mode+0x205>
  207ca9:	48 8b 45 f8          	mov    -0x8(%rbp),%rax
  207cad:	0f b6 80 ac 00 00 00 	movzbl 0xac(%rax),%eax
  207cb4:	3c 10                	cmp    $0x10,%al
  207cb6:	75 4a                	jne    207d02 <do_mode+0x205>
  207cb8:	48 8b 45 f8          	mov    -0x8(%rbp),%rax
  207cbc:	0f b6 80 33 01 00 00 	movzbl 0x133(%rax),%eax
  207cc3:	84 c0                	test   %al,%al
  207cc5:	74 07                	je     207cce <do_mode+0x1d1>
  207cc7:	b8 20 00 00 00       	mov    $0x20,%eax
  207ccc:	eb 05                	jmp    207cd3 <do_mode+0x1d6>
  207cce:	b8 10 00 00 00       	mov    $0x10,%eax
  207cd3:	48 8b 55 f8          	mov    -0x8(%rbp),%rdx
  207cd7:	88 82 3b 01 00 00    	mov    %al,0x13b(%rdx)
  207cdd:	48 8b 45 f8          	mov    -0x8(%rbp),%rax
  207ce1:	0f b6 80 34 01 00 00 	movzbl 0x134(%rax),%eax
  207ce8:	84 c0                	test   %al,%al
  207cea:	74 07                	je     207cf3 <do_mode+0x1f6>
  207cec:	b8 20 00 00 00       	mov    $0x20,%eax
  207cf1:	eb 05                	jmp    207cf8 <do_mode+0x1fb>
  207cf3:	b8 10 00 00 00       	mov    $0x10,%eax
  207cf8:	48 8b 55 f8          	mov    -0x8(%rbp),%rdx
  207cfc:	88 82 3c 01 00 00    	mov    %al,0x13c(%rdx)
  207d02:	48 8b 45 f8          	mov    -0x8(%rbp),%rax
  207d06:	48 8b 80 c0 00 00 00 	mov    0xc0(%rax),%rax
  207d0d:	8b 40 1c             	mov    0x1c(%rax),%eax
  207d10:	83 e0 20             	and    $0x20,%eax
  207d13:	85 c0                	test   %eax,%eax
  207d15:	0f 95 c2             	setne  %dl
  207d18:	48 8b 45 f8          	mov    -0x8(%rbp),%rax
  207d1c:	88 90 3f 01 00 00    	mov    %dl,0x13f(%rax)
  207d22:	48 8b 45 f8          	mov    -0x8(%rbp),%rax
  207d26:	48 8b 80 c0 00 00 00 	mov    0xc0(%rax),%rax
  207d2d:	8b 40 1c             	mov    0x1c(%rax),%eax
  207d30:	83 e0 40             	and    $0x40,%eax
  207d33:	85 c0                	test   %eax,%eax
  207d35:	0f 95 c2             	setne  %dl
  207d38:	48 8b 45 f8          	mov    -0x8(%rbp),%rax
  207d3c:	88 90 40 01 00 00    	mov    %dl,0x140(%rax)
  207d42:	48 8b 45 f8          	mov    -0x8(%rbp),%rax
  207d46:	48 8b 80 c0 00 00 00 	mov    0xc0(%rax),%rax
  207d4d:	8b 40 1c             	mov    0x1c(%rax),%eax
  207d50:	25 80 00 00 00       	and    $0x80,%eax
  207d55:	85 c0                	test   %eax,%eax
  207d57:	0f 95 c2             	setne  %dl
  207d5a:	48 8b 45 f8          	mov    -0x8(%rbp),%rax
  207d5e:	88 90 41 01 00 00    	mov    %dl,0x141(%rax)
  207d64:	b8 00 00 00 00       	mov    $0x0,%eax
  207d69:	c9                   	leaveq 
  207d6a:	c3                   	retq   

0000000000207d6b <gen_hex>:
  207d6b:	55                   	push   %rbp
  207d6c:	48 89 e5             	mov    %rsp,%rbp
  207d6f:	48 83 ec 30          	sub    $0x30,%rsp
  207d73:	48 89 7d d8          	mov    %rdi,-0x28(%rbp)
  207d77:	48 8b 45 d8          	mov    -0x28(%rbp),%rax
  207d7b:	48 05 42 02 00 00    	add    $0x242,%rax
  207d81:	48 89 45 f0          	mov    %rax,-0x10(%rbp)
  207d85:	48 8b 45 d8          	mov    -0x28(%rbp),%rax
  207d89:	0f b6 80 30 01 00 00 	movzbl 0x130(%rax),%eax
  207d90:	84 c0                	test   %al,%al
  207d92:	74 07                	je     207d9b <gen_hex+0x30>
  207d94:	b8 ff ff ff ff       	mov    $0xffffffff,%eax
  207d99:	eb 64                	jmp    207dff <gen_hex+0x94>
  207d9b:	48 8b 45 d8          	mov    -0x28(%rbp),%rax
  207d9f:	48 83 c0 48          	add    $0x48,%rax
  207da3:	48 89 45 e8          	mov    %rax,-0x18(%rbp)
  207da7:	c7 45 fc 00 00 00 00 	movl   $0x0,-0x4(%rbp)
  207dae:	eb 3a                	jmp    207dea <gen_hex+0x7f>
  207db0:	48 8b 45 f0          	mov    -0x10(%rbp),%rax
  207db4:	0f b6 00             	movzbl (%rax),%eax
  207db7:	0f b6 d0             	movzbl %al,%edx
  207dba:	48 8b 45 e8          	mov    -0x18(%rbp),%rax
  207dbe:	48 be b8 9b 20 00 00 	mov    $0x209bb8,%rsi
  207dc5:	00 00 00 
  207dc8:	48 89 c7             	mov    %rax,%rdi
  207dcb:	b8 00 00 00 00       	mov    $0x0,%eax
  207dd0:	48 b9 84 88 20 00 00 	mov    $0x208884,%rcx
  207dd7:	00 00 00 
  207dda:	ff d1                	callq  *%rcx
  207ddc:	48 83 45 e8 02       	addq   $0x2,-0x18(%rbp)
  207de1:	83 45 fc 01          	addl   $0x1,-0x4(%rbp)
  207de5:	48 83 45 f0 01       	addq   $0x1,-0x10(%rbp)
  207dea:	48 8b 45 d8          	mov    -0x28(%rbp),%rax
  207dee:	0f b6 40 18          	movzbl 0x18(%rax),%eax
  207df2:	0f b6 c0             	movzbl %al,%eax
  207df5:	3b 45 fc             	cmp    -0x4(%rbp),%eax
  207df8:	77 b6                	ja     207db0 <gen_hex+0x45>
  207dfa:	b8 00 00 00 00       	mov    $0x0,%eax
  207dff:	c9                   	leaveq 
  207e00:	c3                   	retq   

0000000000207e01 <ud_decode>:
  207e01:	55                   	push   %rbp
  207e02:	48 89 e5             	mov    %rsp,%rbp
  207e05:	48 83 ec 10          	sub    $0x10,%rsp
  207e09:	48 89 7d f8          	mov    %rdi,-0x8(%rbp)
  207e0d:	48 8b 45 f8          	mov    -0x8(%rbp),%rax
  207e11:	c6 40 18 00          	movb   $0x0,0x18(%rax)
  207e15:	48 8b 45 f8          	mov    -0x8(%rbp),%rax
  207e19:	48 89 c7             	mov    %rax,%rdi
  207e1c:	48 b8 a9 77 20 00 00 	mov    $0x2077a9,%rax
  207e23:	00 00 00 
  207e26:	ff d0                	callq  *%rax
  207e28:	85 c0                	test   %eax,%eax
  207e2a:	75 6f                	jne    207e9b <ud_decode+0x9a>
  207e2c:	48 8b 45 f8          	mov    -0x8(%rbp),%rax
  207e30:	48 89 c7             	mov    %rax,%rdi
  207e33:	48 b8 84 78 20 00 00 	mov    $0x207884,%rax
  207e3a:	00 00 00 
  207e3d:	ff d0                	callq  *%rax
  207e3f:	85 c0                	test   %eax,%eax
  207e41:	75 58                	jne    207e9b <ud_decode+0x9a>
  207e43:	48 8b 45 f8          	mov    -0x8(%rbp),%rax
  207e47:	48 89 c7             	mov    %rax,%rdi
  207e4a:	48 b8 fd 56 20 00 00 	mov    $0x2056fd,%rax
  207e51:	00 00 00 
  207e54:	ff d0                	callq  *%rax
  207e56:	85 c0                	test   %eax,%eax
  207e58:	75 41                	jne    207e9b <ud_decode+0x9a>
  207e5a:	48 8b 45 f8          	mov    -0x8(%rbp),%rax
  207e5e:	48 89 c7             	mov    %rax,%rdi
  207e61:	48 b8 fd 7a 20 00 00 	mov    $0x207afd,%rax
  207e68:	00 00 00 
  207e6b:	ff d0                	callq  *%rax
  207e6d:	85 c0                	test   %eax,%eax
  207e6f:	75 2a                	jne    207e9b <ud_decode+0x9a>
  207e71:	48 8b 45 f8          	mov    -0x8(%rbp),%rax
  207e75:	48 89 c7             	mov    %rax,%rdi
  207e78:	48 b8 90 68 20 00 00 	mov    $0x206890,%rax
  207e7f:	00 00 00 
  207e82:	ff d0                	callq  *%rax
  207e84:	85 c0                	test   %eax,%eax
  207e86:	75 13                	jne    207e9b <ud_decode+0x9a>
  207e88:	48 8b 45 f8          	mov    -0x8(%rbp),%rax
  207e8c:	48 89 c7             	mov    %rax,%rdi
  207e8f:	48 b8 98 5b 20 00 00 	mov    $0x205b98,%rax
  207e96:	00 00 00 
  207e99:	ff d0                	callq  *%rax
  207e9b:	48 8b 45 f8          	mov    -0x8(%rbp),%rax
  207e9f:	0f b6 80 30 01 00 00 	movzbl 0x130(%rax),%eax
  207ea6:	84 c0                	test   %al,%al
  207ea8:	74 46                	je     207ef0 <ud_decode+0xef>
  207eaa:	48 8b 45 f8          	mov    -0x8(%rbp),%rax
  207eae:	48 89 c7             	mov    %rax,%rdi
  207eb1:	48 b8 a9 77 20 00 00 	mov    $0x2077a9,%rax
  207eb8:	00 00 00 
  207ebb:	ff d0                	callq  *%rax
  207ebd:	b8 00 00 00 00       	mov    $0x0,%eax
  207ec2:	48 ba 58 4b 20 00 00 	mov    $0x204b58,%rdx
  207ec9:	00 00 00 
  207ecc:	ff d2                	callq  *%rdx
  207ece:	48 8b 55 f8          	mov    -0x8(%rbp),%rdx
  207ed2:	48 89 82 c0 00 00 00 	mov    %rax,0xc0(%rdx)
  207ed9:	48 8b 45 f8          	mov    -0x8(%rbp),%rax
  207edd:	48 8b 80 c0 00 00 00 	mov    0xc0(%rax),%rax
  207ee4:	8b 10                	mov    (%rax),%edx
  207ee6:	48 8b 45 f8          	mov    -0x8(%rbp),%rax
  207eea:	89 90 c8 00 00 00    	mov    %edx,0xc8(%rax)
  207ef0:	48 8b 45 f8          	mov    -0x8(%rbp),%rax
  207ef4:	48 8b 90 b0 00 00 00 	mov    0xb0(%rax),%rdx
  207efb:	48 8b 45 f8          	mov    -0x8(%rbp),%rax
  207eff:	48 89 50 40          	mov    %rdx,0x40(%rax)
  207f03:	48 8b 45 f8          	mov    -0x8(%rbp),%rax
  207f07:	c7 80 a8 00 00 00 00 	movl   $0x0,0xa8(%rax)
  207f0e:	00 00 00 
  207f11:	48 8b 45 f8          	mov    -0x8(%rbp),%rax
  207f15:	48 8b 90 b0 00 00 00 	mov    0xb0(%rax),%rdx
  207f1c:	48 8b 45 f8          	mov    -0x8(%rbp),%rax
  207f20:	0f b6 40 18          	movzbl 0x18(%rax),%eax
  207f24:	0f b6 c0             	movzbl %al,%eax
  207f27:	48 01 c2             	add    %rax,%rdx
  207f2a:	48 8b 45 f8          	mov    -0x8(%rbp),%rax
  207f2e:	48 89 90 b0 00 00 00 	mov    %rdx,0xb0(%rax)
  207f35:	48 8b 45 f8          	mov    -0x8(%rbp),%rax
  207f39:	48 89 c7             	mov    %rax,%rdi
  207f3c:	48 b8 6b 7d 20 00 00 	mov    $0x207d6b,%rax
  207f43:	00 00 00 
  207f46:	ff d0                	callq  *%rax
  207f48:	48 8b 45 f8          	mov    -0x8(%rbp),%rax
  207f4c:	0f b6 40 18          	movzbl 0x18(%rax),%eax
  207f50:	0f b6 c0             	movzbl %al,%eax
  207f53:	c9                   	leaveq 
  207f54:	c3                   	retq   
  207f55:	00 00                	add    %al,(%rax)
	...

0000000000207f58 <memset>:
  207f58:	55                   	push   %rbp
  207f59:	48 89 e5             	mov    %rsp,%rbp
  207f5c:	48 83 ec 20          	sub    $0x20,%rsp
  207f60:	48 89 7d e8          	mov    %rdi,-0x18(%rbp)
  207f64:	89 f0                	mov    %esi,%eax
  207f66:	89 55 e0             	mov    %edx,-0x20(%rbp)
  207f69:	88 45 e4             	mov    %al,-0x1c(%rbp)
  207f6c:	48 8b 45 e8          	mov    -0x18(%rbp),%rax
  207f70:	48 89 45 f8          	mov    %rax,-0x8(%rbp)
  207f74:	eb 13                	jmp    207f89 <memset+0x31>
  207f76:	48 8b 45 f8          	mov    -0x8(%rbp),%rax
  207f7a:	0f b6 55 e4          	movzbl -0x1c(%rbp),%edx
  207f7e:	88 10                	mov    %dl,(%rax)
  207f80:	48 83 45 f8 01       	addq   $0x1,-0x8(%rbp)
  207f85:	83 6d e0 01          	subl   $0x1,-0x20(%rbp)
  207f89:	83 7d e0 00          	cmpl   $0x0,-0x20(%rbp)
  207f8d:	75 e7                	jne    207f76 <memset+0x1e>
  207f8f:	48 8b 45 e8          	mov    -0x18(%rbp),%rax
  207f93:	c9                   	leaveq 
  207f94:	c3                   	retq   
  207f95:	00 00                	add    %al,(%rax)
	...

0000000000207f98 <disable>:
  207f98:	55                   	push   %rbp
  207f99:	48 89 e5             	mov    %rsp,%rbp
  207f9c:	fa                   	cli    
  207f9d:	c9                   	leaveq 
  207f9e:	c3                   	retq   
	...

0000000000207fa0 <inportb>:
  207fa0:	55                   	push   %rbp
  207fa1:	48 89 e5             	mov    %rsp,%rbp
  207fa4:	53                   	push   %rbx
  207fa5:	48 83 ec 20          	sub    $0x20,%rsp
  207fa9:	89 7d e4             	mov    %edi,-0x1c(%rbp)
  207fac:	8b 45 e4             	mov    -0x1c(%rbp),%eax
  207faf:	89 45 dc             	mov    %eax,-0x24(%rbp)
  207fb2:	8b 55 dc             	mov    -0x24(%rbp),%edx
  207fb5:	ec                   	in     (%dx),%al
  207fb6:	89 c3                	mov    %eax,%ebx
  207fb8:	88 5d f7             	mov    %bl,-0x9(%rbp)
  207fbb:	0f b6 45 f7          	movzbl -0x9(%rbp),%eax
  207fbf:	48 83 c4 20          	add    $0x20,%rsp
  207fc3:	5b                   	pop    %rbx
  207fc4:	c9                   	leaveq 
  207fc5:	c3                   	retq   
	...

0000000000207fc8 <outportb>:
  207fc8:	55                   	push   %rbp
  207fc9:	48 89 e5             	mov    %rsp,%rbp
  207fcc:	48 83 ec 08          	sub    $0x8,%rsp
  207fd0:	89 7d fc             	mov    %edi,-0x4(%rbp)
  207fd3:	89 f0                	mov    %esi,%eax
  207fd5:	88 45 f8             	mov    %al,-0x8(%rbp)
  207fd8:	8b 55 fc             	mov    -0x4(%rbp),%edx
  207fdb:	0f b6 45 f8          	movzbl -0x8(%rbp),%eax
  207fdf:	ee                   	out    %al,(%dx)
  207fe0:	c9                   	leaveq 
  207fe1:	c3                   	retq   
	...

0000000000207fe4 <do_printf>:
  207fe4:	55                   	push   %rbp
  207fe5:	48 89 e5             	mov    %rsp,%rbp
  207fe8:	48 83 ec 70          	sub    $0x70,%rsp
  207fec:	48 89 7d b8          	mov    %rdi,-0x48(%rbp)
  207ff0:	48 89 75 b0          	mov    %rsi,-0x50(%rbp)
  207ff4:	48 89 55 a8          	mov    %rdx,-0x58(%rbp)
  207ff8:	48 89 4d a0          	mov    %rcx,-0x60(%rbp)
  207ffc:	c7 45 e8 00 00 00 00 	movl   $0x0,-0x18(%rbp)
  208003:	8b 45 e8             	mov    -0x18(%rbp),%eax
  208006:	89 45 ec             	mov    %eax,-0x14(%rbp)
  208009:	8b 45 ec             	mov    -0x14(%rbp),%eax
  20800c:	89 45 f8             	mov    %eax,-0x8(%rbp)
  20800f:	8b 45 f8             	mov    -0x8(%rbp),%eax
  208012:	89 45 fc             	mov    %eax,-0x4(%rbp)
  208015:	e9 83 06 00 00       	jmpq   20869d <do_printf+0x6b9>
  20801a:	83 7d fc 04          	cmpl   $0x4,-0x4(%rbp)
  20801e:	0f 87 5e 06 00 00    	ja     208682 <do_printf+0x69e>
  208024:	8b 45 fc             	mov    -0x4(%rbp),%eax
  208027:	48 8d 14 c5 00 00 00 	lea    0x0(,%rax,8),%rdx
  20802e:	00 
  20802f:	48 b8 48 b3 20 00 00 	mov    $0x20b348,%rax
  208036:	00 00 00 
  208039:	48 8d 04 02          	lea    (%rdx,%rax,1),%rax
  20803d:	48 8b 00             	mov    (%rax),%rax
  208040:	ff e0                	jmpq   *%rax
  208042:	48 8b 45 b8          	mov    -0x48(%rbp),%rax
  208046:	0f b6 00             	movzbl (%rax),%eax
  208049:	3c 25                	cmp    $0x25,%al
  20804b:	74 22                	je     20806f <do_printf+0x8b>
  20804d:	48 8b 45 b8          	mov    -0x48(%rbp),%rax
  208051:	0f b6 00             	movzbl (%rax),%eax
  208054:	0f be c0             	movsbl %al,%eax
  208057:	48 8d 55 a0          	lea    -0x60(%rbp),%rdx
  20805b:	48 8b 4d a8          	mov    -0x58(%rbp),%rcx
  20805f:	48 89 d6             	mov    %rdx,%rsi
  208062:	89 c7                	mov    %eax,%edi
  208064:	ff d1                	callq  *%rcx
  208066:	83 45 ec 01          	addl   $0x1,-0x14(%rbp)
  20806a:	e9 29 06 00 00       	jmpq   208698 <do_printf+0x6b4>
  20806f:	83 45 fc 01          	addl   $0x1,-0x4(%rbp)
  208073:	48 83 45 b8 01       	addq   $0x1,-0x48(%rbp)
  208078:	48 8b 45 b8          	mov    -0x48(%rbp),%rax
  20807c:	0f b6 00             	movzbl (%rax),%eax
  20807f:	3c 25                	cmp    $0x25,%al
  208081:	75 35                	jne    2080b8 <do_printf+0xd4>
  208083:	48 8b 45 b8          	mov    -0x48(%rbp),%rax
  208087:	0f b6 00             	movzbl (%rax),%eax
  20808a:	0f be c0             	movsbl %al,%eax
  20808d:	48 8d 55 a0          	lea    -0x60(%rbp),%rdx
  208091:	48 8b 4d a8          	mov    -0x58(%rbp),%rcx
  208095:	48 89 d6             	mov    %rdx,%rsi
  208098:	89 c7                	mov    %eax,%edi
  20809a:	ff d1                	callq  *%rcx
  20809c:	83 45 ec 01          	addl   $0x1,-0x14(%rbp)
  2080a0:	c7 45 e8 00 00 00 00 	movl   $0x0,-0x18(%rbp)
  2080a7:	8b 45 e8             	mov    -0x18(%rbp),%eax
  2080aa:	89 45 f8             	mov    %eax,-0x8(%rbp)
  2080ad:	8b 45 f8             	mov    -0x8(%rbp),%eax
  2080b0:	89 45 fc             	mov    %eax,-0x4(%rbp)
  2080b3:	e9 e0 05 00 00       	jmpq   208698 <do_printf+0x6b4>
  2080b8:	48 8b 45 b8          	mov    -0x48(%rbp),%rax
  2080bc:	0f b6 00             	movzbl (%rax),%eax
  2080bf:	3c 2d                	cmp    $0x2d,%al
  2080c1:	75 2b                	jne    2080ee <do_printf+0x10a>
  2080c3:	8b 45 f8             	mov    -0x8(%rbp),%eax
  2080c6:	83 e0 01             	and    $0x1,%eax
  2080c9:	84 c0                	test   %al,%al
  2080cb:	74 18                	je     2080e5 <do_printf+0x101>
  2080cd:	c7 45 e8 00 00 00 00 	movl   $0x0,-0x18(%rbp)
  2080d4:	8b 45 e8             	mov    -0x18(%rbp),%eax
  2080d7:	89 45 f8             	mov    %eax,-0x8(%rbp)
  2080da:	8b 45 f8             	mov    -0x8(%rbp),%eax
  2080dd:	89 45 fc             	mov    %eax,-0x4(%rbp)
  2080e0:	e9 b3 05 00 00       	jmpq   208698 <do_printf+0x6b4>
  2080e5:	83 4d f8 01          	orl    $0x1,-0x8(%rbp)
  2080e9:	e9 aa 05 00 00       	jmpq   208698 <do_printf+0x6b4>
  2080ee:	83 45 fc 01          	addl   $0x1,-0x4(%rbp)
  2080f2:	48 8b 45 b8          	mov    -0x48(%rbp),%rax
  2080f6:	0f b6 00             	movzbl (%rax),%eax
  2080f9:	3c 30                	cmp    $0x30,%al
  2080fb:	75 09                	jne    208106 <do_printf+0x122>
  2080fd:	83 4d f8 40          	orl    $0x40,-0x8(%rbp)
  208101:	48 83 45 b8 01       	addq   $0x1,-0x48(%rbp)
  208106:	48 8b 45 b8          	mov    -0x48(%rbp),%rax
  20810a:	0f b6 00             	movzbl (%rax),%eax
  20810d:	3c 2f                	cmp    $0x2f,%al
  20810f:	7e 31                	jle    208142 <do_printf+0x15e>
  208111:	48 8b 45 b8          	mov    -0x48(%rbp),%rax
  208115:	0f b6 00             	movzbl (%rax),%eax
  208118:	3c 39                	cmp    $0x39,%al
  20811a:	7f 26                	jg     208142 <do_printf+0x15e>
  20811c:	8b 55 e8             	mov    -0x18(%rbp),%edx
  20811f:	89 d0                	mov    %edx,%eax
  208121:	c1 e0 02             	shl    $0x2,%eax
  208124:	01 d0                	add    %edx,%eax
  208126:	01 c0                	add    %eax,%eax
  208128:	89 c2                	mov    %eax,%edx
  20812a:	48 8b 45 b8          	mov    -0x48(%rbp),%rax
  20812e:	0f b6 00             	movzbl (%rax),%eax
  208131:	0f be c0             	movsbl %al,%eax
  208134:	8d 04 02             	lea    (%rdx,%rax,1),%eax
  208137:	83 e8 30             	sub    $0x30,%eax
  20813a:	89 45 e8             	mov    %eax,-0x18(%rbp)
  20813d:	e9 56 05 00 00       	jmpq   208698 <do_printf+0x6b4>
  208142:	83 45 fc 01          	addl   $0x1,-0x4(%rbp)
  208146:	48 8b 45 b8          	mov    -0x48(%rbp),%rax
  20814a:	0f b6 00             	movzbl (%rax),%eax
  20814d:	3c 46                	cmp    $0x46,%al
  20814f:	75 0c                	jne    20815d <do_printf+0x179>
  208151:	81 4d f8 80 00 00 00 	orl    $0x80,-0x8(%rbp)
  208158:	e9 3b 05 00 00       	jmpq   208698 <do_printf+0x6b4>
  20815d:	48 8b 45 b8          	mov    -0x48(%rbp),%rax
  208161:	0f b6 00             	movzbl (%rax),%eax
  208164:	3c 4e                	cmp    $0x4e,%al
  208166:	0f 84 2b 05 00 00    	je     208697 <do_printf+0x6b3>
  20816c:	48 8b 45 b8          	mov    -0x48(%rbp),%rax
  208170:	0f b6 00             	movzbl (%rax),%eax
  208173:	3c 6c                	cmp    $0x6c,%al
  208175:	75 09                	jne    208180 <do_printf+0x19c>
  208177:	83 4d f8 08          	orl    $0x8,-0x8(%rbp)
  20817b:	e9 18 05 00 00       	jmpq   208698 <do_printf+0x6b4>
  208180:	48 8b 45 b8          	mov    -0x48(%rbp),%rax
  208184:	0f b6 00             	movzbl (%rax),%eax
  208187:	3c 68                	cmp    $0x68,%al
  208189:	75 09                	jne    208194 <do_printf+0x1b0>
  20818b:	83 4d f8 10          	orl    $0x10,-0x8(%rbp)
  20818f:	e9 04 05 00 00       	jmpq   208698 <do_printf+0x6b4>
  208194:	83 45 fc 01          	addl   $0x1,-0x4(%rbp)
  208198:	48 8d 45 c0          	lea    -0x40(%rbp),%rax
  20819c:	48 83 c0 0f          	add    $0xf,%rax
  2081a0:	48 89 45 e0          	mov    %rax,-0x20(%rbp)
  2081a4:	48 8b 45 e0          	mov    -0x20(%rbp),%rax
  2081a8:	c6 00 00             	movb   $0x0,(%rax)
  2081ab:	48 8b 45 b8          	mov    -0x48(%rbp),%rax
  2081af:	0f b6 00             	movzbl (%rax),%eax
  2081b2:	0f be c0             	movsbl %al,%eax
  2081b5:	83 e8 58             	sub    $0x58,%eax
  2081b8:	83 f8 20             	cmp    $0x20,%eax
  2081bb:	0f 87 bd 04 00 00    	ja     20867e <do_printf+0x69a>
  2081c1:	89 c0                	mov    %eax,%eax
  2081c3:	48 8d 14 c5 00 00 00 	lea    0x0(,%rax,8),%rdx
  2081ca:	00 
  2081cb:	48 b8 70 b3 20 00 00 	mov    $0x20b370,%rax
  2081d2:	00 00 00 
  2081d5:	48 8d 04 02          	lea    (%rdx,%rax,1),%rax
  2081d9:	48 8b 00             	mov    (%rax),%rax
  2081dc:	ff e0                	jmpq   *%rax
  2081de:	83 4d f8 02          	orl    $0x2,-0x8(%rbp)
  2081e2:	c7 45 f4 10 00 00 00 	movl   $0x10,-0xc(%rbp)
  2081e9:	eb 14                	jmp    2081ff <do_printf+0x21b>
  2081eb:	83 4d f8 04          	orl    $0x4,-0x8(%rbp)
  2081ef:	c7 45 f4 0a 00 00 00 	movl   $0xa,-0xc(%rbp)
  2081f6:	eb 07                	jmp    2081ff <do_printf+0x21b>
  2081f8:	c7 45 f4 08 00 00 00 	movl   $0x8,-0xc(%rbp)
  2081ff:	8b 45 f8             	mov    -0x8(%rbp),%eax
  208202:	83 e0 08             	and    $0x8,%eax
  208205:	85 c0                	test   %eax,%eax
  208207:	0f 84 aa 00 00 00    	je     2082b7 <do_printf+0x2d3>
  20820d:	48 8b 45 b0          	mov    -0x50(%rbp),%rax
  208211:	8b 00                	mov    (%rax),%eax
  208213:	83 f8 30             	cmp    $0x30,%eax
  208216:	73 25                	jae    20823d <do_printf+0x259>
  208218:	48 8b 45 b0          	mov    -0x50(%rbp),%rax
  20821c:	48 8b 50 10          	mov    0x10(%rax),%rdx
  208220:	48 8b 45 b0          	mov    -0x50(%rbp),%rax
  208224:	8b 00                	mov    (%rax),%eax
  208226:	89 c0                	mov    %eax,%eax
  208228:	48 8d 04 02          	lea    (%rdx,%rax,1),%rax
  20822c:	48 8b 55 b0          	mov    -0x50(%rbp),%rdx
  208230:	8b 12                	mov    (%rdx),%edx
  208232:	8d 4a 08             	lea    0x8(%rdx),%ecx
  208235:	48 8b 55 b0          	mov    -0x50(%rbp),%rdx
  208239:	89 0a                	mov    %ecx,(%rdx)
  20823b:	eb 17                	jmp    208254 <do_printf+0x270>
  20823d:	48 8b 45 b0          	mov    -0x50(%rbp),%rax
  208241:	48 8b 50 08          	mov    0x8(%rax),%rdx
  208245:	48 89 d0             	mov    %rdx,%rax
  208248:	48 8d 4a 08          	lea    0x8(%rdx),%rcx
  20824c:	48 8b 55 b0          	mov    -0x50(%rbp),%rdx
  208250:	48 89 4a 08          	mov    %rcx,0x8(%rdx)
  208254:	8b 00                	mov    (%rax),%eax
  208256:	b9 20 00 00 00       	mov    $0x20,%ecx
  20825b:	d3 e0                	shl    %cl,%eax
  20825d:	48 98                	cltq   
  20825f:	48 89 45 d8          	mov    %rax,-0x28(%rbp)
  208263:	48 8b 45 b0          	mov    -0x50(%rbp),%rax
  208267:	8b 00                	mov    (%rax),%eax
  208269:	83 f8 30             	cmp    $0x30,%eax
  20826c:	73 25                	jae    208293 <do_printf+0x2af>
  20826e:	48 8b 45 b0          	mov    -0x50(%rbp),%rax
  208272:	48 8b 50 10          	mov    0x10(%rax),%rdx
  208276:	48 8b 45 b0          	mov    -0x50(%rbp),%rax
  20827a:	8b 00                	mov    (%rax),%eax
  20827c:	89 c0                	mov    %eax,%eax
  20827e:	48 8d 04 02          	lea    (%rdx,%rax,1),%rax
  208282:	48 8b 55 b0          	mov    -0x50(%rbp),%rdx
  208286:	8b 12                	mov    (%rdx),%edx
  208288:	8d 4a 08             	lea    0x8(%rdx),%ecx
  20828b:	48 8b 55 b0          	mov    -0x50(%rbp),%rdx
  20828f:	89 0a                	mov    %ecx,(%rdx)
  208291:	eb 17                	jmp    2082aa <do_printf+0x2c6>
  208293:	48 8b 45 b0          	mov    -0x50(%rbp),%rax
  208297:	48 8b 50 08          	mov    0x8(%rax),%rdx
  20829b:	48 89 d0             	mov    %rdx,%rax
  20829e:	48 8d 4a 08          	lea    0x8(%rdx),%rcx
  2082a2:	48 8b 55 b0          	mov    -0x50(%rbp),%rdx
  2082a6:	48 89 4a 08          	mov    %rcx,0x8(%rdx)
  2082aa:	8b 00                	mov    (%rax),%eax
  2082ac:	48 98                	cltq   
  2082ae:	48 09 45 d8          	or     %rax,-0x28(%rbp)
  2082b2:	e9 6a 01 00 00       	jmpq   208421 <do_printf+0x43d>
  2082b7:	8b 45 f8             	mov    -0x8(%rbp),%eax
  2082ba:	83 e0 10             	and    $0x10,%eax
  2082bd:	85 c0                	test   %eax,%eax
  2082bf:	0f 84 b2 00 00 00    	je     208377 <do_printf+0x393>
  2082c5:	8b 45 f8             	mov    -0x8(%rbp),%eax
  2082c8:	83 e0 04             	and    $0x4,%eax
  2082cb:	85 c0                	test   %eax,%eax
  2082cd:	74 54                	je     208323 <do_printf+0x33f>
  2082cf:	48 8b 45 b0          	mov    -0x50(%rbp),%rax
  2082d3:	8b 00                	mov    (%rax),%eax
  2082d5:	83 f8 30             	cmp    $0x30,%eax
  2082d8:	73 25                	jae    2082ff <do_printf+0x31b>
  2082da:	48 8b 45 b0          	mov    -0x50(%rbp),%rax
  2082de:	48 8b 50 10          	mov    0x10(%rax),%rdx
  2082e2:	48 8b 45 b0          	mov    -0x50(%rbp),%rax
  2082e6:	8b 00                	mov    (%rax),%eax
  2082e8:	89 c0                	mov    %eax,%eax
  2082ea:	48 8d 04 02          	lea    (%rdx,%rax,1),%rax
  2082ee:	48 8b 55 b0          	mov    -0x50(%rbp),%rdx
  2082f2:	8b 12                	mov    (%rdx),%edx
  2082f4:	8d 4a 08             	lea    0x8(%rdx),%ecx
  2082f7:	48 8b 55 b0          	mov    -0x50(%rbp),%rdx
  2082fb:	89 0a                	mov    %ecx,(%rdx)
  2082fd:	eb 17                	jmp    208316 <do_printf+0x332>
  2082ff:	48 8b 45 b0          	mov    -0x50(%rbp),%rax
  208303:	48 8b 50 08          	mov    0x8(%rax),%rdx
  208307:	48 89 d0             	mov    %rdx,%rax
  20830a:	48 8d 4a 08          	lea    0x8(%rdx),%rcx
  20830e:	48 8b 55 b0          	mov    -0x50(%rbp),%rdx
  208312:	48 89 4a 08          	mov    %rcx,0x8(%rdx)
  208316:	8b 00                	mov    (%rax),%eax
  208318:	48 98                	cltq   
  20831a:	48 89 45 d8          	mov    %rax,-0x28(%rbp)
  20831e:	e9 fe 00 00 00       	jmpq   208421 <do_printf+0x43d>
  208323:	48 8b 45 b0          	mov    -0x50(%rbp),%rax
  208327:	8b 00                	mov    (%rax),%eax
  208329:	83 f8 30             	cmp    $0x30,%eax
  20832c:	73 25                	jae    208353 <do_printf+0x36f>
  20832e:	48 8b 45 b0          	mov    -0x50(%rbp),%rax
  208332:	48 8b 50 10          	mov    0x10(%rax),%rdx
  208336:	48 8b 45 b0          	mov    -0x50(%rbp),%rax
  20833a:	8b 00                	mov    (%rax),%eax
  20833c:	89 c0                	mov    %eax,%eax
  20833e:	48 8d 04 02          	lea    (%rdx,%rax,1),%rax
  208342:	48 8b 55 b0          	mov    -0x50(%rbp),%rdx
  208346:	8b 12                	mov    (%rdx),%edx
  208348:	8d 4a 08             	lea    0x8(%rdx),%ecx
  20834b:	48 8b 55 b0          	mov    -0x50(%rbp),%rdx
  20834f:	89 0a                	mov    %ecx,(%rdx)
  208351:	eb 17                	jmp    20836a <do_printf+0x386>
  208353:	48 8b 45 b0          	mov    -0x50(%rbp),%rax
  208357:	48 8b 50 08          	mov    0x8(%rax),%rdx
  20835b:	48 89 d0             	mov    %rdx,%rax
  20835e:	48 8d 4a 08          	lea    0x8(%rdx),%rcx
  208362:	48 8b 55 b0          	mov    -0x50(%rbp),%rdx
  208366:	48 89 4a 08          	mov    %rcx,0x8(%rdx)
  20836a:	8b 00                	mov    (%rax),%eax
  20836c:	89 c0                	mov    %eax,%eax
  20836e:	48 89 45 d8          	mov    %rax,-0x28(%rbp)
  208372:	e9 aa 00 00 00       	jmpq   208421 <do_printf+0x43d>
  208377:	8b 45 f8             	mov    -0x8(%rbp),%eax
  20837a:	83 e0 04             	and    $0x4,%eax
  20837d:	85 c0                	test   %eax,%eax
  20837f:	74 51                	je     2083d2 <do_printf+0x3ee>
  208381:	48 8b 45 b0          	mov    -0x50(%rbp),%rax
  208385:	8b 00                	mov    (%rax),%eax
  208387:	83 f8 30             	cmp    $0x30,%eax
  20838a:	73 25                	jae    2083b1 <do_printf+0x3cd>
  20838c:	48 8b 45 b0          	mov    -0x50(%rbp),%rax
  208390:	48 8b 50 10          	mov    0x10(%rax),%rdx
  208394:	48 8b 45 b0          	mov    -0x50(%rbp),%rax
  208398:	8b 00                	mov    (%rax),%eax
  20839a:	89 c0                	mov    %eax,%eax
  20839c:	48 8d 04 02          	lea    (%rdx,%rax,1),%rax
  2083a0:	48 8b 55 b0          	mov    -0x50(%rbp),%rdx
  2083a4:	8b 12                	mov    (%rdx),%edx
  2083a6:	8d 4a 08             	lea    0x8(%rdx),%ecx
  2083a9:	48 8b 55 b0          	mov    -0x50(%rbp),%rdx
  2083ad:	89 0a                	mov    %ecx,(%rdx)
  2083af:	eb 17                	jmp    2083c8 <do_printf+0x3e4>
  2083b1:	48 8b 45 b0          	mov    -0x50(%rbp),%rax
  2083b5:	48 8b 50 08          	mov    0x8(%rax),%rdx
  2083b9:	48 89 d0             	mov    %rdx,%rax
  2083bc:	48 8d 4a 08          	lea    0x8(%rdx),%rcx
  2083c0:	48 8b 55 b0          	mov    -0x50(%rbp),%rdx
  2083c4:	48 89 4a 08          	mov    %rcx,0x8(%rdx)
  2083c8:	8b 00                	mov    (%rax),%eax
  2083ca:	48 98                	cltq   
  2083cc:	48 89 45 d8          	mov    %rax,-0x28(%rbp)
  2083d0:	eb 4f                	jmp    208421 <do_printf+0x43d>
  2083d2:	48 8b 45 b0          	mov    -0x50(%rbp),%rax
  2083d6:	8b 00                	mov    (%rax),%eax
  2083d8:	83 f8 30             	cmp    $0x30,%eax
  2083db:	73 25                	jae    208402 <do_printf+0x41e>
  2083dd:	48 8b 45 b0          	mov    -0x50(%rbp),%rax
  2083e1:	48 8b 50 10          	mov    0x10(%rax),%rdx
  2083e5:	48 8b 45 b0          	mov    -0x50(%rbp),%rax
  2083e9:	8b 00                	mov    (%rax),%eax
  2083eb:	89 c0                	mov    %eax,%eax
  2083ed:	48 8d 04 02          	lea    (%rdx,%rax,1),%rax
  2083f1:	48 8b 55 b0          	mov    -0x50(%rbp),%rdx
  2083f5:	8b 12                	mov    (%rdx),%edx
  2083f7:	8d 4a 08             	lea    0x8(%rdx),%ecx
  2083fa:	48 8b 55 b0          	mov    -0x50(%rbp),%rdx
  2083fe:	89 0a                	mov    %ecx,(%rdx)
  208400:	eb 17                	jmp    208419 <do_printf+0x435>
  208402:	48 8b 45 b0          	mov    -0x50(%rbp),%rax
  208406:	48 8b 50 08          	mov    0x8(%rax),%rdx
  20840a:	48 89 d0             	mov    %rdx,%rax
  20840d:	48 8d 4a 08          	lea    0x8(%rdx),%rcx
  208411:	48 8b 55 b0          	mov    -0x50(%rbp),%rdx
  208415:	48 89 4a 08          	mov    %rcx,0x8(%rdx)
  208419:	8b 00                	mov    (%rax),%eax
  20841b:	89 c0                	mov    %eax,%eax
  20841d:	48 89 45 d8          	mov    %rax,-0x28(%rbp)
  208421:	8b 45 f8             	mov    -0x8(%rbp),%eax
  208424:	83 e0 04             	and    $0x4,%eax
  208427:	85 c0                	test   %eax,%eax
  208429:	74 0f                	je     20843a <do_printf+0x456>
  20842b:	48 83 7d d8 00       	cmpq   $0x0,-0x28(%rbp)
  208430:	79 08                	jns    20843a <do_printf+0x456>
  208432:	83 4d f8 20          	orl    $0x20,-0x8(%rbp)
  208436:	48 f7 5d d8          	negq   -0x28(%rbp)
  20843a:	48 8b 45 d8          	mov    -0x28(%rbp),%rax
  20843e:	8b 4d f4             	mov    -0xc(%rbp),%ecx
  208441:	ba 00 00 00 00       	mov    $0x0,%edx
  208446:	48 f7 f1             	div    %rcx
  208449:	48 89 55 d0          	mov    %rdx,-0x30(%rbp)
  20844d:	48 83 6d e0 01       	subq   $0x1,-0x20(%rbp)
  208452:	48 83 7d d0 09       	cmpq   $0x9,-0x30(%rbp)
  208457:	77 0f                	ja     208468 <do_printf+0x484>
  208459:	48 8b 45 d0          	mov    -0x30(%rbp),%rax
  20845d:	8d 50 30             	lea    0x30(%rax),%edx
  208460:	48 8b 45 e0          	mov    -0x20(%rbp),%rax
  208464:	88 10                	mov    %dl,(%rax)
  208466:	eb 26                	jmp    20848e <do_printf+0x4aa>
  208468:	8b 45 f8             	mov    -0x8(%rbp),%eax
  20846b:	83 e0 02             	and    $0x2,%eax
  20846e:	85 c0                	test   %eax,%eax
  208470:	74 0f                	je     208481 <do_printf+0x49d>
  208472:	48 8b 45 d0          	mov    -0x30(%rbp),%rax
  208476:	8d 50 37             	lea    0x37(%rax),%edx
  208479:	48 8b 45 e0          	mov    -0x20(%rbp),%rax
  20847d:	88 10                	mov    %dl,(%rax)
  20847f:	eb 0d                	jmp    20848e <do_printf+0x4aa>
  208481:	48 8b 45 d0          	mov    -0x30(%rbp),%rax
  208485:	8d 50 57             	lea    0x57(%rax),%edx
  208488:	48 8b 45 e0          	mov    -0x20(%rbp),%rax
  20848c:	88 10                	mov    %dl,(%rax)
  20848e:	48 8b 45 d8          	mov    -0x28(%rbp),%rax
  208492:	8b 55 f4             	mov    -0xc(%rbp),%edx
  208495:	48 89 55 98          	mov    %rdx,-0x68(%rbp)
  208499:	ba 00 00 00 00       	mov    $0x0,%edx
  20849e:	48 f7 75 98          	divq   -0x68(%rbp)
  2084a2:	48 89 45 d8          	mov    %rax,-0x28(%rbp)
  2084a6:	48 83 7d d8 00       	cmpq   $0x0,-0x28(%rbp)
  2084ab:	75 8d                	jne    20843a <do_printf+0x456>
  2084ad:	e9 b8 00 00 00       	jmpq   20856a <do_printf+0x586>
  2084b2:	83 65 f8 bf          	andl   $0xffffffffffffffbf,-0x8(%rbp)
  2084b6:	48 83 6d e0 01       	subq   $0x1,-0x20(%rbp)
  2084bb:	48 8b 45 b0          	mov    -0x50(%rbp),%rax
  2084bf:	8b 00                	mov    (%rax),%eax
  2084c1:	83 f8 30             	cmp    $0x30,%eax
  2084c4:	73 25                	jae    2084eb <do_printf+0x507>
  2084c6:	48 8b 45 b0          	mov    -0x50(%rbp),%rax
  2084ca:	48 8b 50 10          	mov    0x10(%rax),%rdx
  2084ce:	48 8b 45 b0          	mov    -0x50(%rbp),%rax
  2084d2:	8b 00                	mov    (%rax),%eax
  2084d4:	89 c0                	mov    %eax,%eax
  2084d6:	48 8d 04 02          	lea    (%rdx,%rax,1),%rax
  2084da:	48 8b 55 b0          	mov    -0x50(%rbp),%rdx
  2084de:	8b 12                	mov    (%rdx),%edx
  2084e0:	8d 4a 08             	lea    0x8(%rdx),%ecx
  2084e3:	48 8b 55 b0          	mov    -0x50(%rbp),%rdx
  2084e7:	89 0a                	mov    %ecx,(%rdx)
  2084e9:	eb 17                	jmp    208502 <do_printf+0x51e>
  2084eb:	48 8b 45 b0          	mov    -0x50(%rbp),%rax
  2084ef:	48 8b 50 08          	mov    0x8(%rax),%rdx
  2084f3:	48 89 d0             	mov    %rdx,%rax
  2084f6:	48 8d 4a 08          	lea    0x8(%rdx),%rcx
  2084fa:	48 8b 55 b0          	mov    -0x50(%rbp),%rdx
  2084fe:	48 89 4a 08          	mov    %rcx,0x8(%rdx)
  208502:	8b 00                	mov    (%rax),%eax
  208504:	89 c2                	mov    %eax,%edx
  208506:	48 8b 45 e0          	mov    -0x20(%rbp),%rax
  20850a:	88 10                	mov    %dl,(%rax)
  20850c:	c7 45 f0 01 00 00 00 	movl   $0x1,-0x10(%rbp)
  208513:	e9 97 00 00 00       	jmpq   2085af <do_printf+0x5cb>
  208518:	83 65 f8 bf          	andl   $0xffffffffffffffbf,-0x8(%rbp)
  20851c:	48 8b 45 b0          	mov    -0x50(%rbp),%rax
  208520:	8b 00                	mov    (%rax),%eax
  208522:	83 f8 30             	cmp    $0x30,%eax
  208525:	73 25                	jae    20854c <do_printf+0x568>
  208527:	48 8b 45 b0          	mov    -0x50(%rbp),%rax
  20852b:	48 8b 50 10          	mov    0x10(%rax),%rdx
  20852f:	48 8b 45 b0          	mov    -0x50(%rbp),%rax
  208533:	8b 00                	mov    (%rax),%eax
  208535:	89 c0                	mov    %eax,%eax
  208537:	48 8d 04 02          	lea    (%rdx,%rax,1),%rax
  20853b:	48 8b 55 b0          	mov    -0x50(%rbp),%rdx
  20853f:	8b 12                	mov    (%rdx),%edx
  208541:	8d 4a 08             	lea    0x8(%rdx),%ecx
  208544:	48 8b 55 b0          	mov    -0x50(%rbp),%rdx
  208548:	89 0a                	mov    %ecx,(%rdx)
  20854a:	eb 17                	jmp    208563 <do_printf+0x57f>
  20854c:	48 8b 45 b0          	mov    -0x50(%rbp),%rax
  208550:	48 8b 50 08          	mov    0x8(%rax),%rdx
  208554:	48 89 d0             	mov    %rdx,%rax
  208557:	48 8d 4a 08          	lea    0x8(%rdx),%rcx
  20855b:	48 8b 55 b0          	mov    -0x50(%rbp),%rdx
  20855f:	48 89 4a 08          	mov    %rcx,0x8(%rdx)
  208563:	48 8b 00             	mov    (%rax),%rax
  208566:	48 89 45 e0          	mov    %rax,-0x20(%rbp)
  20856a:	48 8b 45 e0          	mov    -0x20(%rbp),%rax
  20856e:	48 89 c7             	mov    %rax,%rdi
  208571:	48 b8 ec 88 20 00 00 	mov    $0x2088ec,%rax
  208578:	00 00 00 
  20857b:	ff d0                	callq  *%rax
  20857d:	89 45 f0             	mov    %eax,-0x10(%rbp)
  208580:	8b 45 f8             	mov    -0x8(%rbp),%eax
  208583:	83 e0 20             	and    $0x20,%eax
  208586:	85 c0                	test   %eax,%eax
  208588:	74 04                	je     20858e <do_printf+0x5aa>
  20858a:	83 45 f0 01          	addl   $0x1,-0x10(%rbp)
  20858e:	8b 45 f8             	mov    -0x8(%rbp),%eax
  208591:	83 e0 60             	and    $0x60,%eax
  208594:	83 f8 60             	cmp    $0x60,%eax
  208597:	75 16                	jne    2085af <do_printf+0x5cb>
  208599:	48 8d 45 a0          	lea    -0x60(%rbp),%rax
  20859d:	48 8b 55 a8          	mov    -0x58(%rbp),%rdx
  2085a1:	48 89 c6             	mov    %rax,%rsi
  2085a4:	bf 2d 00 00 00       	mov    $0x2d,%edi
  2085a9:	ff d2                	callq  *%rdx
  2085ab:	83 45 ec 01          	addl   $0x1,-0x14(%rbp)
  2085af:	8b 45 f8             	mov    -0x8(%rbp),%eax
  2085b2:	83 e0 01             	and    $0x1,%eax
  2085b5:	85 c0                	test   %eax,%eax
  2085b7:	75 37                	jne    2085f0 <do_printf+0x60c>
  2085b9:	eb 2d                	jmp    2085e8 <do_printf+0x604>
  2085bb:	8b 45 f8             	mov    -0x8(%rbp),%eax
  2085be:	83 e0 40             	and    $0x40,%eax
  2085c1:	85 c0                	test   %eax,%eax
  2085c3:	74 07                	je     2085cc <do_printf+0x5e8>
  2085c5:	b8 30 00 00 00       	mov    $0x30,%eax
  2085ca:	eb 05                	jmp    2085d1 <do_printf+0x5ed>
  2085cc:	b8 20 00 00 00       	mov    $0x20,%eax
  2085d1:	48 8d 55 a0          	lea    -0x60(%rbp),%rdx
  2085d5:	48 8b 4d a8          	mov    -0x58(%rbp),%rcx
  2085d9:	48 89 d6             	mov    %rdx,%rsi
  2085dc:	89 c7                	mov    %eax,%edi
  2085de:	ff d1                	callq  *%rcx
  2085e0:	83 45 ec 01          	addl   $0x1,-0x14(%rbp)
  2085e4:	83 6d e8 01          	subl   $0x1,-0x18(%rbp)
  2085e8:	8b 45 e8             	mov    -0x18(%rbp),%eax
  2085eb:	3b 45 f0             	cmp    -0x10(%rbp),%eax
  2085ee:	77 cb                	ja     2085bb <do_printf+0x5d7>
  2085f0:	8b 45 f8             	mov    -0x8(%rbp),%eax
  2085f3:	83 e0 60             	and    $0x60,%eax
  2085f6:	83 f8 20             	cmp    $0x20,%eax
  2085f9:	75 3c                	jne    208637 <do_printf+0x653>
  2085fb:	48 8d 45 a0          	lea    -0x60(%rbp),%rax
  2085ff:	48 8b 55 a8          	mov    -0x58(%rbp),%rdx
  208603:	48 89 c6             	mov    %rax,%rsi
  208606:	bf 2d 00 00 00       	mov    $0x2d,%edi
  20860b:	ff d2                	callq  *%rdx
  20860d:	83 45 ec 01          	addl   $0x1,-0x14(%rbp)
  208611:	eb 25                	jmp    208638 <do_printf+0x654>
  208613:	48 8b 45 e0          	mov    -0x20(%rbp),%rax
  208617:	0f b6 00             	movzbl (%rax),%eax
  20861a:	0f b6 c0             	movzbl %al,%eax
  20861d:	48 83 45 e0 01       	addq   $0x1,-0x20(%rbp)
  208622:	48 8d 55 a0          	lea    -0x60(%rbp),%rdx
  208626:	48 8b 4d a8          	mov    -0x58(%rbp),%rcx
  20862a:	48 89 d6             	mov    %rdx,%rsi
  20862d:	89 c7                	mov    %eax,%edi
  20862f:	ff d1                	callq  *%rcx
  208631:	83 45 ec 01          	addl   $0x1,-0x14(%rbp)
  208635:	eb 01                	jmp    208638 <do_printf+0x654>
  208637:	90                   	nop
  208638:	48 8b 45 e0          	mov    -0x20(%rbp),%rax
  20863c:	0f b6 00             	movzbl (%rax),%eax
  20863f:	84 c0                	test   %al,%al
  208641:	75 d0                	jne    208613 <do_printf+0x62f>
  208643:	8b 45 e8             	mov    -0x18(%rbp),%eax
  208646:	3b 45 f0             	cmp    -0x10(%rbp),%eax
  208649:	73 09                	jae    208654 <do_printf+0x670>
  20864b:	c7 45 e8 00 00 00 00 	movl   $0x0,-0x18(%rbp)
  208652:	eb 22                	jmp    208676 <do_printf+0x692>
  208654:	8b 45 f0             	mov    -0x10(%rbp),%eax
  208657:	29 45 e8             	sub    %eax,-0x18(%rbp)
  20865a:	eb 1a                	jmp    208676 <do_printf+0x692>
  20865c:	48 8d 45 a0          	lea    -0x60(%rbp),%rax
  208660:	48 8b 55 a8          	mov    -0x58(%rbp),%rdx
  208664:	48 89 c6             	mov    %rax,%rsi
  208667:	bf 20 00 00 00       	mov    $0x20,%edi
  20866c:	ff d2                	callq  *%rdx
  20866e:	83 45 ec 01          	addl   $0x1,-0x14(%rbp)
  208672:	83 6d e8 01          	subl   $0x1,-0x18(%rbp)
  208676:	83 7d e8 00          	cmpl   $0x0,-0x18(%rbp)
  20867a:	75 e0                	jne    20865c <do_printf+0x678>
  20867c:	eb 04                	jmp    208682 <do_printf+0x69e>
  20867e:	90                   	nop
  20867f:	eb 01                	jmp    208682 <do_printf+0x69e>
  208681:	90                   	nop
  208682:	c7 45 e8 00 00 00 00 	movl   $0x0,-0x18(%rbp)
  208689:	8b 45 e8             	mov    -0x18(%rbp),%eax
  20868c:	89 45 f8             	mov    %eax,-0x8(%rbp)
  20868f:	8b 45 f8             	mov    -0x8(%rbp),%eax
  208692:	89 45 fc             	mov    %eax,-0x4(%rbp)
  208695:	eb 01                	jmp    208698 <do_printf+0x6b4>
  208697:	90                   	nop
  208698:	48 83 45 b8 01       	addq   $0x1,-0x48(%rbp)
  20869d:	48 8b 45 b8          	mov    -0x48(%rbp),%rax
  2086a1:	0f b6 00             	movzbl (%rax),%eax
  2086a4:	84 c0                	test   %al,%al
  2086a6:	0f 85 6e f9 ff ff    	jne    20801a <do_printf+0x36>
  2086ac:	8b 45 ec             	mov    -0x14(%rbp),%eax
  2086af:	c9                   	leaveq 
  2086b0:	c3                   	retq   
  2086b1:	00 00                	add    %al,(%rax)
	...

00000000002086b4 <kprintf_help>:
  2086b4:	55                   	push   %rbp
  2086b5:	48 89 e5             	mov    %rsp,%rbp
  2086b8:	48 83 ec 10          	sub    $0x10,%rsp
  2086bc:	89 7d fc             	mov    %edi,-0x4(%rbp)
  2086bf:	48 89 75 f0          	mov    %rsi,-0x10(%rbp)
  2086c3:	8b 45 fc             	mov    -0x4(%rbp),%eax
  2086c6:	0f be c0             	movsbl %al,%eax
  2086c9:	89 c7                	mov    %eax,%edi
  2086cb:	48 b8 e1 2c 20 00 00 	mov    $0x202ce1,%rax
  2086d2:	00 00 00 
  2086d5:	ff d0                	callq  *%rax
  2086d7:	b8 00 00 00 00       	mov    $0x0,%eax
  2086dc:	c9                   	leaveq 
  2086dd:	c3                   	retq   
	...

00000000002086e0 <panic>:
  2086e0:	55                   	push   %rbp
  2086e1:	48 89 e5             	mov    %rsp,%rbp
  2086e4:	53                   	push   %rbx
  2086e5:	48 83 ec 68          	sub    $0x68,%rsp
  2086e9:	48 89 75 c8          	mov    %rsi,-0x38(%rbp)
  2086ed:	48 89 55 d0          	mov    %rdx,-0x30(%rbp)
  2086f1:	48 89 4d d8          	mov    %rcx,-0x28(%rbp)
  2086f5:	4c 89 45 e0          	mov    %r8,-0x20(%rbp)
  2086f9:	4c 89 4d e8          	mov    %r9,-0x18(%rbp)
  2086fd:	48 89 7d 98          	mov    %rdi,-0x68(%rbp)
  208701:	b8 00 00 00 00       	mov    $0x0,%eax
  208706:	48 ba 7a 30 20 00 00 	mov    $0x20307a,%rdx
  20870d:	00 00 00 
  208710:	ff d2                	callq  *%rdx
  208712:	0f b7 c0             	movzwl %ax,%eax
  208715:	89 c7                	mov    %eax,%edi
  208717:	48 b8 90 30 20 00 00 	mov    $0x203090,%rax
  20871e:	00 00 00 
  208721:	ff d0                	callq  *%rax
  208723:	48 8d 45 a0          	lea    -0x60(%rbp),%rax
  208727:	c7 00 08 00 00 00    	movl   $0x8,(%rax)
  20872d:	48 8d 45 a0          	lea    -0x60(%rbp),%rax
  208731:	48 8d 55 10          	lea    0x10(%rbp),%rdx
  208735:	48 89 50 08          	mov    %rdx,0x8(%rax)
  208739:	48 8d 45 a0          	lea    -0x60(%rbp),%rax
  20873d:	48 8d 55 c0          	lea    -0x40(%rbp),%rdx
  208741:	48 89 50 10          	mov    %rdx,0x10(%rax)
  208745:	b8 00 00 00 00       	mov    $0x0,%eax
  20874a:	48 ba 98 7f 20 00 00 	mov    $0x207f98,%rdx
  208751:	00 00 00 
  208754:	ff d2                	callq  *%rdx
  208756:	be 00 00 00 00       	mov    $0x0,%esi
  20875b:	bf 04 00 00 00       	mov    $0x4,%edi
  208760:	48 b8 42 30 20 00 00 	mov    $0x203042,%rax
  208767:	00 00 00 
  20876a:	ff d0                	callq  *%rax
  20876c:	48 bf 78 b4 20 00 00 	mov    $0x20b478,%rdi
  208773:	00 00 00 
  208776:	48 b8 ba 2f 20 00 00 	mov    $0x202fba,%rax
  20877d:	00 00 00 
  208780:	ff d0                	callq  *%rax
  208782:	be 00 00 00 00       	mov    $0x0,%esi
  208787:	bf 0f 00 00 00       	mov    $0xf,%edi
  20878c:	48 b8 42 30 20 00 00 	mov    $0x203042,%rax
  208793:	00 00 00 
  208796:	ff d0                	callq  *%rax
  208798:	48 8d 5d a0          	lea    -0x60(%rbp),%rbx
  20879c:	48 8b 45 98          	mov    -0x68(%rbp),%rax
  2087a0:	b9 00 00 00 00       	mov    $0x0,%ecx
  2087a5:	48 ba b4 86 20 00 00 	mov    $0x2086b4,%rdx
  2087ac:	00 00 00 
  2087af:	48 89 de             	mov    %rbx,%rsi
  2087b2:	48 89 c7             	mov    %rax,%rdi
  2087b5:	48 b8 e4 7f 20 00 00 	mov    $0x207fe4,%rax
  2087bc:	00 00 00 
  2087bf:	ff d0                	callq  *%rax
  2087c1:	fa                   	cli    
  2087c2:	f4                   	hlt    
  2087c3:	eb fc                	jmp    2087c1 <panic+0xe1>
  2087c5:	00 00                	add    %al,(%rax)
	...

00000000002087c8 <printf>:
  2087c8:	55                   	push   %rbp
  2087c9:	48 89 e5             	mov    %rsp,%rbp
  2087cc:	53                   	push   %rbx
  2087cd:	48 83 ec 68          	sub    $0x68,%rsp
  2087d1:	48 89 75 c8          	mov    %rsi,-0x38(%rbp)
  2087d5:	48 89 55 d0          	mov    %rdx,-0x30(%rbp)
  2087d9:	48 89 4d d8          	mov    %rcx,-0x28(%rbp)
  2087dd:	4c 89 45 e0          	mov    %r8,-0x20(%rbp)
  2087e1:	4c 89 4d e8          	mov    %r9,-0x18(%rbp)
  2087e5:	48 89 7d 98          	mov    %rdi,-0x68(%rbp)
  2087e9:	48 8d 45 a0          	lea    -0x60(%rbp),%rax
  2087ed:	c7 00 08 00 00 00    	movl   $0x8,(%rax)
  2087f3:	48 8d 45 a0          	lea    -0x60(%rbp),%rax
  2087f7:	48 8d 55 10          	lea    0x10(%rbp),%rdx
  2087fb:	48 89 50 08          	mov    %rdx,0x8(%rax)
  2087ff:	48 8d 45 a0          	lea    -0x60(%rbp),%rax
  208803:	48 8d 55 c0          	lea    -0x40(%rbp),%rdx
  208807:	48 89 50 10          	mov    %rdx,0x10(%rax)
  20880b:	48 8d 5d a0          	lea    -0x60(%rbp),%rbx
  20880f:	48 8b 45 98          	mov    -0x68(%rbp),%rax
  208813:	b9 00 00 00 00       	mov    $0x0,%ecx
  208818:	48 ba b4 86 20 00 00 	mov    $0x2086b4,%rdx
  20881f:	00 00 00 
  208822:	48 89 de             	mov    %rbx,%rsi
  208825:	48 89 c7             	mov    %rax,%rdi
  208828:	48 b8 e4 7f 20 00 00 	mov    $0x207fe4,%rax
  20882f:	00 00 00 
  208832:	ff d0                	callq  *%rax
  208834:	48 83 c4 68          	add    $0x68,%rsp
  208838:	5b                   	pop    %rbx
  208839:	c9                   	leaveq 
  20883a:	c3                   	retq   
	...

000000000020883c <vsprintf>:
  20883c:	55                   	push   %rbp
  20883d:	48 89 e5             	mov    %rsp,%rbp
  208840:	53                   	push   %rbx
  208841:	48 83 ec 28          	sub    $0x28,%rsp
  208845:	48 89 7d e8          	mov    %rdi,-0x18(%rbp)
  208849:	48 89 75 e0          	mov    %rsi,-0x20(%rbp)
  20884d:	48 89 55 d8          	mov    %rdx,-0x28(%rbp)
  208851:	48 8b 55 e8          	mov    -0x18(%rbp),%rdx
  208855:	48 8b 5d d8          	mov    -0x28(%rbp),%rbx
  208859:	48 8b 45 e0          	mov    -0x20(%rbp),%rax
  20885d:	48 89 d1             	mov    %rdx,%rcx
  208860:	48 ba 1c 89 20 00 00 	mov    $0x20891c,%rdx
  208867:	00 00 00 
  20886a:	48 89 de             	mov    %rbx,%rsi
  20886d:	48 89 c7             	mov    %rax,%rdi
  208870:	48 b8 e4 7f 20 00 00 	mov    $0x207fe4,%rax
  208877:	00 00 00 
  20887a:	ff d0                	callq  *%rax
  20887c:	48 83 c4 28          	add    $0x28,%rsp
  208880:	5b                   	pop    %rbx
  208881:	c9                   	leaveq 
  208882:	c3                   	retq   
	...

0000000000208884 <sprintf>:
  208884:	55                   	push   %rbp
  208885:	48 89 e5             	mov    %rsp,%rbp
  208888:	48 83 ec 60          	sub    $0x60,%rsp
  20888c:	48 89 7d a8          	mov    %rdi,-0x58(%rbp)
  208890:	48 89 55 e0          	mov    %rdx,-0x20(%rbp)
  208894:	48 89 4d e8          	mov    %rcx,-0x18(%rbp)
  208898:	4c 89 45 f0          	mov    %r8,-0x10(%rbp)
  20889c:	4c 89 4d f8          	mov    %r9,-0x8(%rbp)
  2088a0:	48 89 75 a0          	mov    %rsi,-0x60(%rbp)
  2088a4:	48 8d 45 b0          	lea    -0x50(%rbp),%rax
  2088a8:	c7 00 10 00 00 00    	movl   $0x10,(%rax)
  2088ae:	48 8d 45 b0          	lea    -0x50(%rbp),%rax
  2088b2:	48 8d 55 10          	lea    0x10(%rbp),%rdx
  2088b6:	48 89 50 08          	mov    %rdx,0x8(%rax)
  2088ba:	48 8d 45 b0          	lea    -0x50(%rbp),%rax
  2088be:	48 8d 55 d0          	lea    -0x30(%rbp),%rdx
  2088c2:	48 89 50 10          	mov    %rdx,0x10(%rax)
  2088c6:	48 8d 55 b0          	lea    -0x50(%rbp),%rdx
  2088ca:	48 8b 4d a0          	mov    -0x60(%rbp),%rcx
  2088ce:	48 8b 45 a8          	mov    -0x58(%rbp),%rax
  2088d2:	48 89 ce             	mov    %rcx,%rsi
  2088d5:	48 89 c7             	mov    %rax,%rdi
  2088d8:	48 b8 3c 88 20 00 00 	mov    $0x20883c,%rax
  2088df:	00 00 00 
  2088e2:	ff d0                	callq  *%rax
  2088e4:	89 45 cc             	mov    %eax,-0x34(%rbp)
  2088e7:	8b 45 cc             	mov    -0x34(%rbp),%eax
  2088ea:	c9                   	leaveq 
  2088eb:	c3                   	retq   

00000000002088ec <strlen>:
  2088ec:	55                   	push   %rbp
  2088ed:	48 89 e5             	mov    %rsp,%rbp
  2088f0:	48 83 ec 18          	sub    $0x18,%rsp
  2088f4:	48 89 7d e8          	mov    %rdi,-0x18(%rbp)
  2088f8:	c7 45 fc 00 00 00 00 	movl   $0x0,-0x4(%rbp)
  2088ff:	eb 09                	jmp    20890a <strlen+0x1e>
  208901:	83 45 fc 01          	addl   $0x1,-0x4(%rbp)
  208905:	48 83 45 e8 01       	addq   $0x1,-0x18(%rbp)
  20890a:	48 8b 45 e8          	mov    -0x18(%rbp),%rax
  20890e:	0f b6 00             	movzbl (%rax),%eax
  208911:	84 c0                	test   %al,%al
  208913:	75 ec                	jne    208901 <strlen+0x15>
  208915:	8b 45 fc             	mov    -0x4(%rbp),%eax
  208918:	c9                   	leaveq 
  208919:	c3                   	retq   
	...

000000000020891c <ksprintf_help>:
  20891c:	55                   	push   %rbp
  20891d:	48 89 e5             	mov    %rsp,%rbp
  208920:	48 83 ec 20          	sub    $0x20,%rsp
  208924:	89 7d ec             	mov    %edi,-0x14(%rbp)
  208927:	48 89 75 e0          	mov    %rsi,-0x20(%rbp)
  20892b:	48 8b 45 e0          	mov    -0x20(%rbp),%rax
  20892f:	48 89 45 f8          	mov    %rax,-0x8(%rbp)
  208933:	48 8b 45 f8          	mov    -0x8(%rbp),%rax
  208937:	48 8b 00             	mov    (%rax),%rax
  20893a:	8b 55 ec             	mov    -0x14(%rbp),%edx
  20893d:	88 10                	mov    %dl,(%rax)
  20893f:	48 8b 45 f8          	mov    -0x8(%rbp),%rax
  208943:	48 8b 00             	mov    (%rax),%rax
  208946:	48 8d 50 01          	lea    0x1(%rax),%rdx
  20894a:	48 8b 45 f8          	mov    -0x8(%rbp),%rax
  20894e:	48 89 10             	mov    %rdx,(%rax)
  208951:	48 8b 45 f8          	mov    -0x8(%rbp),%rax
  208955:	48 8b 00             	mov    (%rax),%rax
  208958:	c6 00 00             	movb   $0x0,(%rax)
  20895b:	b8 00 00 00 00       	mov    $0x0,%eax
  208960:	c9                   	leaveq 
  208961:	c3                   	retq   
	...
  20897e:	00 00                	add    %al,(%rax)
  208980:	0a 46 61             	or     0x61(%rsi),%al
  208983:	7a 65                	jp     2089ea <ksprintf_help+0xce>
  208985:	6e                   	outsb  %ds:(%rsi),(%dx)
  208986:	64 6f                	outsl  %fs:(%rsi),(%dx)
  208988:	20 64 75 6d          	and    %ah,0x6d(%rbp,%rsi,2)
  20898c:	70 20                	jo     2089ae <ksprintf_help+0x92>
  20898e:	64 6f                	outsl  %fs:(%rsi),(%dx)
  208990:	73 20                	jae    2089b2 <ksprintf_help+0x96>
  208992:	72 65                	jb     2089f9 <ksprintf_help+0xdd>
  208994:	67 69 73 74 72 61 64 	addr32 imul $0x6f646172,0x74(%ebx),%esi
  20899b:	6f 
  20899c:	72 65                	jb     208a03 <ksprintf_help+0xe7>
  20899e:	73 3a                	jae    2089da <ksprintf_help+0xbe>
  2089a0:	0a 0a                	or     (%rdx),%cl
  2089a2:	00 00                	add    %al,(%rax)
  2089a4:	00 00                	add    %al,(%rax)
  2089a6:	00 00                	add    %al,(%rax)
  2089a8:	45 78 63             	rex.RB js     208a0e <ksprintf_help+0xf2>
  2089ab:	65 63 61 6f          	movslq %gs:0x6f(%rcx),%esp
  2089af:	20 23                	and    %ah,(%rbx)
  2089b1:	25 64 20 2d 20       	and    $0x202d2064,%eax
  2089b6:	25 73 20 6e 6f       	and    $0x6f6e2073,%eax
  2089bb:	20 6d 6f             	and    %ch,0x6f(%rbp)
  2089be:	64 6f                	outsl  %fs:(%rsi),(%dx)
  2089c0:	20 6b 65             	and    %ch,0x65(%rbx)
  2089c3:	72 6e                	jb     208a33 <ksprintf_help+0x117>
  2089c5:	65                   	gs
  2089c6:	6c                   	insb   (%dx),%es:(%rdi)
  2089c7:	2e 00 00             	add    %al,%cs:(%rax)
  2089ca:	00 00                	add    %al,(%rax)
  2089cc:	00 00                	add    %al,(%rax)
  2089ce:	00 00                	add    %al,(%rax)
  2089d0:	45 78 63             	rex.RB js     208a36 <ksprintf_help+0x11a>
  2089d3:	65 63 61 6f          	movslq %gs:0x6f(%rcx),%esp
  2089d7:	20 23                	and    %ah,(%rbx)
  2089d9:	25 64 20 2d 20       	and    $0x202d2064,%eax
  2089de:	3f                   	(bad)  
  2089df:	3f                   	(bad)  
  2089e0:	3f                   	(bad)  
  2089e1:	20 6e 6f             	and    %ch,0x6f(%rsi)
  2089e4:	20 6d 6f             	and    %ch,0x6f(%rbp)
  2089e7:	64 6f                	outsl  %fs:(%rsi),(%dx)
  2089e9:	20 6b 65             	and    %ch,0x65(%rbx)
  2089ec:	72 6e                	jb     208a5c <ksprintf_help+0x140>
  2089ee:	65                   	gs
  2089ef:	6c                   	insb   (%dx),%es:(%rdi)
  2089f0:	2e 00 64 69 76       	add    %ah,%cs:0x76(%rcx,%rbp,2)
  2089f5:	69 64 65 20 65 72 72 	imul   $0x6f727265,0x20(%rbp,%riz,2),%esp
  2089fc:	6f 
  2089fd:	72 00                	jb     2089ff <ksprintf_help+0xe3>
  2089ff:	64                   	fs
  208a00:	65                   	gs
  208a01:	62                   	(bad)  
  208a02:	75 67                	jne    208a6b <ksprintf_help+0x14f>
  208a04:	20 65 78             	and    %ah,0x78(%rbp)
  208a07:	63 65 70             	movslq 0x70(%rbp),%esp
  208a0a:	74 69                	je     208a75 <ksprintf_help+0x159>
  208a0c:	6f                   	outsl  %ds:(%rsi),(%dx)
  208a0d:	6e                   	outsb  %ds:(%rsi),(%dx)
  208a0e:	00 4e 4d             	add    %cl,0x4d(%rsi)
  208a11:	49 00 49 4e          	rex.WB add    %cl,0x4e(%r9)
  208a15:	54                   	push   %rsp
  208a16:	33 00                	xor    (%rax),%eax
  208a18:	49                   	rex.WB
  208a19:	4e 54                	rex.WRX push   %rsp
  208a1b:	4f 00 42 4f          	rex.WRXB add    %r8b,0x4f(%r10)
  208a1f:	55                   	push   %rbp
  208a20:	4e                   	rex.WRX
  208a21:	44 20 65 78          	and    %r12b,0x78(%rbp)
  208a25:	63 65 70             	movslq 0x70(%rbp),%esp
  208a28:	74 69                	je     208a93 <ksprintf_help+0x177>
  208a2a:	6f                   	outsl  %ds:(%rsi),(%dx)
  208a2b:	6e                   	outsb  %ds:(%rsi),(%dx)
  208a2c:	00 69 6e             	add    %ch,0x6e(%rcx)
  208a2f:	76 61                	jbe    208a92 <ksprintf_help+0x176>
  208a31:	6c                   	insb   (%dx),%es:(%rdi)
  208a32:	69 64 20 6f 70 63 6f 	imul   $0x646f6370,0x6f(%rax,%riz,1),%esp
  208a39:	64 
  208a3a:	65 00 6e 6f          	add    %ch,%gs:0x6f(%rsi)
  208a3e:	20 63 6f             	and    %ah,0x6f(%rbx)
  208a41:	70 72                	jo     208ab5 <ksprintf_help+0x199>
  208a43:	6f                   	outsl  %ds:(%rsi),(%dx)
  208a44:	63 65 73             	movslq 0x73(%rbp),%esp
  208a47:	73 6f                	jae    208ab8 <ksprintf_help+0x19c>
  208a49:	72 00                	jb     208a4b <ksprintf_help+0x12f>
  208a4b:	64 6f                	outsl  %fs:(%rsi),(%dx)
  208a4d:	75 62                	jne    208ab1 <ksprintf_help+0x195>
  208a4f:	6c                   	insb   (%dx),%es:(%rdi)
  208a50:	65 20 66 61          	and    %ah,%gs:0x61(%rsi)
  208a54:	75 6c                	jne    208ac2 <ksprintf_help+0x1a6>
  208a56:	74 00                	je     208a58 <ksprintf_help+0x13c>
  208a58:	63 6f 70             	movslq 0x70(%rdi),%ebp
  208a5b:	72 6f                	jb     208acc <ksprintf_help+0x1b0>
  208a5d:	63 65 73             	movslq 0x73(%rbp),%esp
  208a60:	73 6f                	jae    208ad1 <ksprintf_help+0x1b5>
  208a62:	72 20                	jb     208a84 <ksprintf_help+0x168>
  208a64:	73 65                	jae    208acb <ksprintf_help+0x1af>
  208a66:	67 6d                	addr32 insl (%dx),%es:(%edi)
  208a68:	65 6e                	outsb  %gs:(%rsi),(%dx)
  208a6a:	74 20                	je     208a8c <ksprintf_help+0x170>
  208a6c:	6f                   	outsl  %ds:(%rsi),(%dx)
  208a6d:	76 65                	jbe    208ad4 <ksprintf_help+0x1b8>
  208a6f:	72 72                	jb     208ae3 <ksprintf_help+0x1c7>
  208a71:	75 6e                	jne    208ae1 <ksprintf_help+0x1c5>
  208a73:	00 62 61             	add    %ah,0x61(%rdx)
  208a76:	64 20 54 53 53       	and    %dl,%fs:0x53(%rbx,%rdx,2)
  208a7b:	00 73 65             	add    %dh,0x65(%rbx)
  208a7e:	67 6d                	addr32 insl (%dx),%es:(%edi)
  208a80:	65 6e                	outsb  %gs:(%rsi),(%dx)
  208a82:	74 20                	je     208aa4 <ksprintf_help+0x188>
  208a84:	6e                   	outsb  %ds:(%rsi),(%dx)
  208a85:	6f                   	outsl  %ds:(%rsi),(%dx)
  208a86:	74 20                	je     208aa8 <ksprintf_help+0x18c>
  208a88:	70 72                	jo     208afc <ksprintf_help+0x1e0>
  208a8a:	65                   	gs
  208a8b:	73 65                	jae    208af2 <ksprintf_help+0x1d6>
  208a8d:	6e                   	outsb  %ds:(%rsi),(%dx)
  208a8e:	74 00                	je     208a90 <ksprintf_help+0x174>
  208a90:	73 74                	jae    208b06 <ksprintf_help+0x1ea>
  208a92:	61                   	(bad)  
  208a93:	63 6b 20             	movslq 0x20(%rbx),%ebp
  208a96:	66                   	data16
  208a97:	61                   	(bad)  
  208a98:	75 6c                	jne    208b06 <ksprintf_help+0x1ea>
  208a9a:	74 00                	je     208a9c <ksprintf_help+0x180>
  208a9c:	47 50                	rex.RXB push   %r8
  208a9e:	46 00 70 61          	rex.RX add    %r14b,0x61(%rax)
  208aa2:	67 65 20 66 61       	addr32 and %ah,%gs:0x61(%esi)
  208aa7:	75 6c                	jne    208b15 <ksprintf_help+0x1f9>
  208aa9:	74 00                	je     208aab <ksprintf_help+0x18f>
  208aab:	3f                   	(bad)  
  208aac:	3f                   	(bad)  
  208aad:	00 63 6f             	add    %ah,0x6f(%rbx)
  208ab0:	70 72                	jo     208b24 <ksprintf_help+0x208>
  208ab2:	6f                   	outsl  %ds:(%rsi),(%dx)
  208ab3:	63 65 73             	movslq 0x73(%rbp),%esp
  208ab6:	73 6f                	jae    208b27 <ksprintf_help+0x20b>
  208ab8:	72 20                	jb     208ada <ksprintf_help+0x1be>
  208aba:	65                   	gs
  208abb:	72 72                	jb     208b2f <ksprintf_help+0x213>
  208abd:	6f                   	outsl  %ds:(%rsi),(%dx)
  208abe:	72 00                	jb     208ac0 <ksprintf_help+0x1a4>
  208ac0:	61                   	(bad)  
  208ac1:	6c                   	insb   (%dx),%es:(%rdi)
  208ac2:	69 67 6e 6d 65 6e 74 	imul   $0x746e656d,0x6e(%rdi),%esp
  208ac9:	20 63 68             	and    %ah,0x68(%rbx)
  208acc:	65 63 6b 00          	movslq %gs:0x0(%rbx),%ebp
  208ad0:	49 52                	rex.WB push   %r10
  208ad2:	51                   	push   %rcx
  208ad3:	30 00                	xor    %al,(%rax)
  208ad5:	49 52                	rex.WB push   %r10
  208ad7:	51                   	push   %rcx
  208ad8:	31 00                	xor    %eax,(%rax)
  208ada:	49 52                	rex.WB push   %r10
  208adc:	51                   	push   %rcx
  208add:	32 00                	xor    (%rax),%al
  208adf:	49 52                	rex.WB push   %r10
  208ae1:	51                   	push   %rcx
  208ae2:	33 00                	xor    (%rax),%eax
  208ae4:	49 52                	rex.WB push   %r10
  208ae6:	51                   	push   %rcx
  208ae7:	34 00                	xor    $0x0,%al
  208ae9:	49 52                	rex.WB push   %r10
  208aeb:	51                   	push   %rcx
  208aec:	35 00 49 52 51       	xor    $0x51524900,%eax
  208af1:	36 00 49 52          	add    %cl,%ss:0x52(%rcx)
  208af5:	51                   	push   %rcx
  208af6:	37                   	(bad)  
  208af7:	00 49 52             	add    %cl,0x52(%rcx)
  208afa:	51                   	push   %rcx
  208afb:	38 00                	cmp    %al,(%rax)
  208afd:	49 52                	rex.WB push   %r10
  208aff:	51                   	push   %rcx
  208b00:	39 00                	cmp    %eax,(%rax)
  208b02:	49 52                	rex.WB push   %r10
  208b04:	51                   	push   %rcx
  208b05:	31 30                	xor    %esi,(%rax)
  208b07:	00 49 52             	add    %cl,0x52(%rcx)
  208b0a:	51                   	push   %rcx
  208b0b:	31 31                	xor    %esi,(%rcx)
  208b0d:	00 49 52             	add    %cl,0x52(%rcx)
  208b10:	51                   	push   %rcx
  208b11:	31 32                	xor    %esi,(%rdx)
  208b13:	00 49 52             	add    %cl,0x52(%rcx)
  208b16:	51                   	push   %rcx
  208b17:	31 33                	xor    %esi,(%rbx)
  208b19:	00 49 52             	add    %cl,0x52(%rcx)
  208b1c:	51                   	push   %rcx
  208b1d:	31 34 00             	xor    %esi,(%rax,%rax,1)
  208b20:	49 52                	rex.WB push   %r10
  208b22:	51                   	push   %rcx
  208b23:	31 35 00 73 79 73    	xor    %esi,0x73797300(%rip)        # 7399fe29 <_g_end+0x73778e29>
  208b29:	63 61 6c             	movslq 0x6c(%rcx),%esp
  208b2c:	6c                   	insb   (%dx),%es:(%rdi)
	...

0000000000208b40 <msg.1016>:
  208b40:	f2 89 20 00 00 00 00 00 ff 89 20 00 00 00 00 00     .. ....... .....
  208b50:	0f 8a 20 00 00 00 00 00 13 8a 20 00 00 00 00 00     .. ....... .....
  208b60:	18 8a 20 00 00 00 00 00 1d 8a 20 00 00 00 00 00     .. ....... .....
  208b70:	2d 8a 20 00 00 00 00 00 3c 8a 20 00 00 00 00 00     -. .....<. .....
  208b80:	4b 8a 20 00 00 00 00 00 58 8a 20 00 00 00 00 00     K. .....X. .....
  208b90:	74 8a 20 00 00 00 00 00 7c 8a 20 00 00 00 00 00     t. .....|. .....
  208ba0:	90 8a 20 00 00 00 00 00 9c 8a 20 00 00 00 00 00     .. ....... .....
  208bb0:	a0 8a 20 00 00 00 00 00 ab 8a 20 00 00 00 00 00     .. ....... .....
  208bc0:	ae 8a 20 00 00 00 00 00 c0 8a 20 00 00 00 00 00     .. ....... .....
  208bd0:	ab 8a 20 00 00 00 00 00 ab 8a 20 00 00 00 00 00     .. ....... .....
  208be0:	ab 8a 20 00 00 00 00 00 ab 8a 20 00 00 00 00 00     .. ....... .....
  208bf0:	ab 8a 20 00 00 00 00 00 ab 8a 20 00 00 00 00 00     .. ....... .....
  208c00:	ab 8a 20 00 00 00 00 00 ab 8a 20 00 00 00 00 00     .. ....... .....
  208c10:	ab 8a 20 00 00 00 00 00 ab 8a 20 00 00 00 00 00     .. ....... .....
  208c20:	ab 8a 20 00 00 00 00 00 ab 8a 20 00 00 00 00 00     .. ....... .....
  208c30:	ab 8a 20 00 00 00 00 00 ab 8a 20 00 00 00 00 00     .. ....... .....
  208c40:	d0 8a 20 00 00 00 00 00 d5 8a 20 00 00 00 00 00     .. ....... .....
  208c50:	da 8a 20 00 00 00 00 00 df 8a 20 00 00 00 00 00     .. ....... .....
  208c60:	e4 8a 20 00 00 00 00 00 e9 8a 20 00 00 00 00 00     .. ....... .....
  208c70:	ee 8a 20 00 00 00 00 00 f3 8a 20 00 00 00 00 00     .. ....... .....
  208c80:	f8 8a 20 00 00 00 00 00 fd 8a 20 00 00 00 00 00     .. ....... .....
  208c90:	02 8b 20 00 00 00 00 00 08 8b 20 00 00 00 00 00     .. ....... .....
  208ca0:	0e 8b 20 00 00 00 00 00 14 8b 20 00 00 00 00 00     .. ....... .....
  208cb0:	1a 8b 20 00 00 00 00 00 20 8b 20 00 00 00 00 00     .. ..... . .....
  208cc0:	26 8b 20 00 00 00 00 00 0a 50 41 4e 49 43 3a 20     &. ......PANIC: 
	...
  208cd8:	0a 0a 46 61 7a 65 6e 64 6f 20 64 75 6d 70 20 64     ..Fazendo dump d
  208ce8:	6f 73 20 72 65 67 69 73 74 72 61 64 6f 72 65 73     os registradores
  208cf8:	3a 0a 0a 00 0a 0a 46 61 7a 65 6e 64 6f 20 64 75     :.....Fazendo du
  208d08:	6d 70 20 64 6f 20 6b 65 72 6e 65 6c 3a 0a 00 25     mp do kernel:..%
  208d18:	30 32 58 20 00 09 00 2e 00 25 63 00 0a 00 00 00     02X .....%c.....
  208d28:	54 68 65 20 66 6f 6c 6c 6f 77 69 6e 67 20 49 2f     The following I/
  208d38:	4f 20 70 6f 72 74 73 20 77 65 72 65 20 61 63 63     O ports were acc
  208d48:	65 73 73 65 64 3a 0a 00 25 30 33 58 20 00 00 00     essed:..%03X ...
  208d58:	52 44 49 3d 25 30 31 36 6c 58 20 20 20 20 52 53     RDI=%016lX    RS
  208d68:	49 3d 25 30 31 36 6c 58 20 20 20 20 52 42 50 3d     I=%016lX    RBP=
  208d78:	25 30 31 36 6c 58 0a 00 52 31 35 3d 25 30 31 36     %016lX..R15=%016
  208d88:	6c 58 20 20 20 20 52 31 34 3d 25 30 31 36 6c 58     lX    R14=%016lX
  208d98:	20 20 20 20 52 31 33 3d 25 30 31 36 6c 58 0a 00         R13=%016lX..
  208da8:	52 31 32 3d 25 30 31 36 6c 58 20 20 20 20 52 31     R12=%016lX    R1
  208db8:	31 3d 25 30 31 36 6c 58 20 20 20 20 52 31 30 3d     1=%016lX    R10=
  208dc8:	25 30 31 36 6c 58 0a 00 52 39 3d 25 30 31 36 6c     %016lX..R9=%016l
  208dd8:	58 20 20 20 20 20 52 38 3d 25 30 31 36 6c 58 20     X     R8=%016lX 
  208de8:	20 20 20 52 42 58 3d 25 30 31 36 6c 58 0a 00 00        RBX=%016lX...
  208df8:	52 44 58 3d 25 30 31 36 6c 58 20 20 20 20 52 43     RDX=%016lX    RC
  208e08:	58 3d 25 30 31 36 6c 58 20 20 20 20 52 41 58 3d     X=%016lX    RAX=
  208e18:	25 30 31 36 6c 58 0a 00 20 46 53 3d 25 30 31 36     %016lX.. FS=%016
  208e28:	6c 58 20 20 20 20 20 47 53 3d 25 30 31 36 6c 58     lX     GS=%016lX
  208e38:	20 20 69 6e 74 6e 75 6d 3d 25 30 31 36 6c 58 0a       intnum=%016lX.
	...
  208e50:	65 72 72 6f 72 3d 25 30 31 36 6c 58 20 20 20 20     error=%016lX    
  208e60:	52 49 50 3d 25 30 31 36 6c 58 20 20 20 20 43 53     RIP=%016lX    CS
  208e70:	3d 25 30 31 36 6c 58 0a 00 00 00 00 00 00 00 00     =%016lX.........
  208e80:	52 46 4c 41 47 53 3d 25 30 31 36 6c 58 20 20 20     RFLAGS=%016lX   
  208e90:	20 52 53 50 3d 25 30 31 36 6c 58 20 20 20 20 53      RSP=%016lX    S
  208ea0:	53 3d 25 30 31 36 6c 58 0a 00 25 30 38 6c 78 20     S=%016lX..%08lx 
  208eb0:	00 61 64 64 72 5b 30 78 25 30 31 36 6c 58 5d 20     .addr[0x%016lX] 
  208ec0:	00 4f 4b 0a 00 00 00 00 5b 30 78 25 6c 58 5d 20     .OK.....[0x%lX] 
  208ed0:	49 6e 69 63 69 61 6e 64 6f 20 61 20 67 65 72 65     Iniciando a gere
  208ee0:	6e 63 69 61 20 64 65 20 66 72 61 6d 65 73 3a 0a     ncia de frames:.
	...
  208ef8:	4f 20 47 52 55 42 20 6e 61 6f 20 73 65 74 6f 75     O GRUB nao setou
  208f08:	20 61 20 65 73 74 72 75 74 75 72 61 20 63 6f 6d      a estrutura com
  208f18:	20 61 73 20 69 6e 66 6f 72 6d 61 63 6f 65 73 20      as informacoes 
  208f28:	64 61 20 6d 65 6d 6f 72 69 61 2e 00 00 00 00 00     da memoria......
  208f38:	20 20 20 4d 65 6d 6f 72 69 61 3a 20 43 6f 6e 76        Memoria: Conv
  208f48:	65 6e 63 69 6f 6e 61 6c 3d 25 75 4b 42 2c 20 45     encional=%uKB, E
  208f58:	73 74 65 6e 64 69 64 61 3d 25 75 4b 42 2c 0a 00     stendida=%uKB,..
  208f68:	53 74 61 72 74 48 65 61 70 3a 20 25 6c 58 20 20     StartHeap: %lX  
  208f78:	20 4d 61 78 4d 65 6d 3a 20 25 6c 58 0a 00 43 6f      MaxMem: %lX..Co
  208f88:	75 6e 74 3a 20 25 6c 75 20 20 20 46 72 61 6d 65     unt: %lu   Frame
  208f98:	53 74 61 63 6b 3a 20 25 6c 58 0a 00 00 00 00 00     Stack: %lX......
  208fa8:	4e 61 6f 20 68 61 20 6d 61 69 73 20 66 72 61 6d     Nao ha mais fram
  208fb8:	65 73 20 70 61 72 61 20 61 6c 6f 63 61 72 21 00     es para alocar!.
  208fc8:	50 72 6f 6a 65 74 6f 20 53 4f 6d 42 52 41 0a 09     Projeto SOmBRA..
  208fd8:	50 72 6f 74 6f 74 69 70 6f 20 70 61 72 61 20 61     Prototipo para a
  208fe8:	72 71 75 69 74 65 74 75 72 61 20 58 38 36 5f 36     rquitetura X86_6
  208ff8:	34 0a 00 00 00 00 00 00 62 79 74 65 20 00 77 6f     4.......byte .wo
  209008:	72 64 20 00 64 77 6f 72 64 20 00 71 77 6f 72 64     rd .dword .qword
  209018:	20 00 74 77 6f 72 64 20 00 66 61 72 20 00 6e 65      .tword .far .ne
  209028:	61 72 20 00 5b 00 25 73 3a 00 25 73 00 2b 00 2a     ar .[.%s:.%s.+.*
  209038:	25 64 00 2d 30 78 25 78 00 00 25 73 30 78 25 78     %d.-0x%x..%s0x%x
  209048:	00 25 73 30 78 25 6c 78 00 5d 00 30 78 25 78 00     .%s0x%lx.].0x%x.
  209058:	30 78 25 6c 78 00 77 6f 72 64 20 30 78 25 78 3a     0x%lx.word 0x%x:
  209068:	30 78 25 78 00 64 77 6f 72 64 20 30 78 25 78 3a     0x%x.dword 0x%x:
  209078:	30 78 25 6c 78 00 25 64 00 00 00 00 00 00 00 00     0x%lx.%d........
  209088:	b8 3e 20 00 00 00 00 00 f2 3e 20 00 00 00 00 00     .> ......> .....
  209098:	17 45 20 00 00 00 00 00 09 43 20 00 00 00 00 00     .E ......C .....
  2090a8:	19 44 20 00 00 00 00 00 a1 45 20 00 00 00 00 00     .D ......E .....
  2090b8:	6f 33 32 20 00 6f 31 36 20 00 61 33 32 20 00 61     o32 .o16 .a32 .a
  2090c8:	31 36 20 00 6c 6f 63 6b 20 00 72 65 70 20 00 72     16 .lock .rep .r
  2090d8:	65 70 6e 65 20 00 25 73 20 00 2c 20 00 00 00 00     epne .%s ., ....
  2090e8:	a4 4b 20 00 00 00 00 00 ae 4b 20 00 00 00 00 00     .K ......K .....
  2090f8:	5e 4c 20 00 00 00 00 00 5e 4c 20 00 00 00 00 00     ^L .....^L .....
  209108:	5e 4c 20 00 00 00 00 00 5e 4c 20 00 00 00 00 00     ^L .....^L .....
  209118:	5e 4c 20 00 00 00 00 00 5e 4c 20 00 00 00 00 00     ^L .....^L .....
  209128:	5e 4c 20 00 00 00 00 00 5e 4c 20 00 00 00 00 00     ^L .....^L .....
  209138:	5e 4c 20 00 00 00 00 00 5e 4c 20 00 00 00 00 00     ^L .....^L .....
  209148:	5e 4c 20 00 00 00 00 00 5e 4c 20 00 00 00 00 00     ^L .....^L .....
  209158:	5e 4c 20 00 00 00 00 00 5e 4c 20 00 00 00 00 00     ^L .....^L .....
  209168:	b8 4b 20 00 00 00 00 00 c2 4b 20 00 00 00 00 00     .K ......K .....
  209178:	5e 4c 20 00 00 00 00 00 5e 4c 20 00 00 00 00 00     ^L .....^L .....
  209188:	5e 4c 20 00 00 00 00 00 5e 4c 20 00 00 00 00 00     ^L .....^L .....
  209198:	5e 4c 20 00 00 00 00 00 5e 4c 20 00 00 00 00 00     ^L .....^L .....
  2091a8:	5e 4c 20 00 00 00 00 00 5e 4c 20 00 00 00 00 00     ^L .....^L .....
  2091b8:	5e 4c 20 00 00 00 00 00 5e 4c 20 00 00 00 00 00     ^L .....^L .....
  2091c8:	5e 4c 20 00 00 00 00 00 5e 4c 20 00 00 00 00 00     ^L .....^L .....
  2091d8:	5e 4c 20 00 00 00 00 00 5e 4c 20 00 00 00 00 00     ^L .....^L .....
  2091e8:	5e 4c 20 00 00 00 00 00 5e 4c 20 00 00 00 00 00     ^L .....^L .....
  2091f8:	5e 4c 20 00 00 00 00 00 5e 4c 20 00 00 00 00 00     ^L .....^L .....
  209208:	5e 4c 20 00 00 00 00 00 5e 4c 20 00 00 00 00 00     ^L .....^L .....
  209218:	5e 4c 20 00 00 00 00 00 5e 4c 20 00 00 00 00 00     ^L .....^L .....
  209228:	5e 4c 20 00 00 00 00 00 5e 4c 20 00 00 00 00 00     ^L .....^L .....
  209238:	5e 4c 20 00 00 00 00 00 5e 4c 20 00 00 00 00 00     ^L .....^L .....
  209248:	5e 4c 20 00 00 00 00 00 5e 4c 20 00 00 00 00 00     ^L .....^L .....
  209258:	5e 4c 20 00 00 00 00 00 5e 4c 20 00 00 00 00 00     ^L .....^L .....
  209268:	5e 4c 20 00 00 00 00 00 5e 4c 20 00 00 00 00 00     ^L .....^L .....
  209278:	5e 4c 20 00 00 00 00 00 5e 4c 20 00 00 00 00 00     ^L .....^L .....
  209288:	5e 4c 20 00 00 00 00 00 5e 4c 20 00 00 00 00 00     ^L .....^L .....
  209298:	5e 4c 20 00 00 00 00 00 5e 4c 20 00 00 00 00 00     ^L .....^L .....
  2092a8:	5e 4c 20 00 00 00 00 00 5e 4c 20 00 00 00 00 00     ^L .....^L .....
  2092b8:	5e 4c 20 00 00 00 00 00 5e 4c 20 00 00 00 00 00     ^L .....^L .....
  2092c8:	5e 4c 20 00 00 00 00 00 5e 4c 20 00 00 00 00 00     ^L .....^L .....
  2092d8:	5e 4c 20 00 00 00 00 00 5e 4c 20 00 00 00 00 00     ^L .....^L .....
  2092e8:	5e 4c 20 00 00 00 00 00 5e 4c 20 00 00 00 00 00     ^L .....^L .....
  2092f8:	5e 4c 20 00 00 00 00 00 5e 4c 20 00 00 00 00 00     ^L .....^L .....
  209308:	5e 4c 20 00 00 00 00 00 5e 4c 20 00 00 00 00 00     ^L .....^L .....
  209318:	5e 4c 20 00 00 00 00 00 5e 4c 20 00 00 00 00 00     ^L .....^L .....
  209328:	5e 4c 20 00 00 00 00 00 5e 4c 20 00 00 00 00 00     ^L .....^L .....
  209338:	5e 4c 20 00 00 00 00 00 5e 4c 20 00 00 00 00 00     ^L .....^L .....
  209348:	5e 4c 20 00 00 00 00 00 5e 4c 20 00 00 00 00 00     ^L .....^L .....
  209358:	5e 4c 20 00 00 00 00 00 5e 4c 20 00 00 00 00 00     ^L .....^L .....
  209368:	5e 4c 20 00 00 00 00 00 5e 4c 20 00 00 00 00 00     ^L .....^L .....
  209378:	5e 4c 20 00 00 00 00 00 5e 4c 20 00 00 00 00 00     ^L .....^L .....
  209388:	5e 4c 20 00 00 00 00 00 5e 4c 20 00 00 00 00 00     ^L .....^L .....
  209398:	5e 4c 20 00 00 00 00 00 5e 4c 20 00 00 00 00 00     ^L .....^L .....
  2093a8:	5e 4c 20 00 00 00 00 00 5e 4c 20 00 00 00 00 00     ^L .....^L .....
  2093b8:	5e 4c 20 00 00 00 00 00 5e 4c 20 00 00 00 00 00     ^L .....^L .....
  2093c8:	5e 4c 20 00 00 00 00 00 5e 4c 20 00 00 00 00 00     ^L .....^L .....
  2093d8:	5e 4c 20 00 00 00 00 00 5e 4c 20 00 00 00 00 00     ^L .....^L .....
  2093e8:	5e 4c 20 00 00 00 00 00 5e 4c 20 00 00 00 00 00     ^L .....^L .....
  2093f8:	5e 4c 20 00 00 00 00 00 5e 4c 20 00 00 00 00 00     ^L .....^L .....
  209408:	5e 4c 20 00 00 00 00 00 5e 4c 20 00 00 00 00 00     ^L .....^L .....
  209418:	5e 4c 20 00 00 00 00 00 5e 4c 20 00 00 00 00 00     ^L .....^L .....
  209428:	5e 4c 20 00 00 00 00 00 5e 4c 20 00 00 00 00 00     ^L .....^L .....
  209438:	5e 4c 20 00 00 00 00 00 5e 4c 20 00 00 00 00 00     ^L .....^L .....
  209448:	5e 4c 20 00 00 00 00 00 5e 4c 20 00 00 00 00 00     ^L .....^L .....
  209458:	5e 4c 20 00 00 00 00 00 5e 4c 20 00 00 00 00 00     ^L .....^L .....
  209468:	5e 4c 20 00 00 00 00 00 5e 4c 20 00 00 00 00 00     ^L .....^L .....
  209478:	5e 4c 20 00 00 00 00 00 5e 4c 20 00 00 00 00 00     ^L .....^L .....
  209488:	5e 4c 20 00 00 00 00 00 5e 4c 20 00 00 00 00 00     ^L .....^L .....
  209498:	5e 4c 20 00 00 00 00 00 5e 4c 20 00 00 00 00 00     ^L .....^L .....
  2094a8:	5e 4c 20 00 00 00 00 00 5e 4c 20 00 00 00 00 00     ^L .....^L .....
  2094b8:	5e 4c 20 00 00 00 00 00 5e 4c 20 00 00 00 00 00     ^L .....^L .....
  2094c8:	5e 4c 20 00 00 00 00 00 5e 4c 20 00 00 00 00 00     ^L .....^L .....
  2094d8:	cc 4b 20 00 00 00 00 00 5e 4c 20 00 00 00 00 00     .K .....^L .....
  2094e8:	5e 4c 20 00 00 00 00 00 5e 4c 20 00 00 00 00 00     ^L .....^L .....
  2094f8:	d6 4b 20 00 00 00 00 00 5e 4c 20 00 00 00 00 00     .K .....^L .....
  209508:	e0 4b 20 00 00 00 00 00 5e 4c 20 00 00 00 00 00     .K .....^L .....
  209518:	5e 4c 20 00 00 00 00 00 5e 4c 20 00 00 00 00 00     ^L .....^L .....
  209528:	e7 4b 20 00 00 00 00 00 5e 4c 20 00 00 00 00 00     .K .....^L .....
  209538:	ee 4b 20 00 00 00 00 00 f5 4b 20 00 00 00 00 00     .K ......K .....
  209548:	5e 4c 20 00 00 00 00 00 5e 4c 20 00 00 00 00 00     ^L .....^L .....
  209558:	fc 4b 20 00 00 00 00 00 5e 4c 20 00 00 00 00 00     .K .....^L .....
  209568:	5e 4c 20 00 00 00 00 00 5e 4c 20 00 00 00 00 00     ^L .....^L .....
  209578:	03 4c 20 00 00 00 00 00 5e 4c 20 00 00 00 00 00     .L .....^L .....
  209588:	0a 4c 20 00 00 00 00 00 5e 4c 20 00 00 00 00 00     .L .....^L .....
  209598:	5e 4c 20 00 00 00 00 00 5e 4c 20 00 00 00 00 00     ^L .....^L .....
  2095a8:	11 4c 20 00 00 00 00 00 5e 4c 20 00 00 00 00 00     .L .....^L .....
  2095b8:	18 4c 20 00 00 00 00 00 1f 4c 20 00 00 00 00 00     .L ......L .....
  2095c8:	5e 4c 20 00 00 00 00 00 5e 4c 20 00 00 00 00 00     ^L .....^L .....
  2095d8:	26 4c 20 00 00 00 00 00 5e 4c 20 00 00 00 00 00     &L .....^L .....
  2095e8:	5e 4c 20 00 00 00 00 00 5e 4c 20 00 00 00 00 00     ^L .....^L .....
  2095f8:	2d 4c 20 00 00 00 00 00 5e 4c 20 00 00 00 00 00     -L .....^L .....
  209608:	34 4c 20 00 00 00 00 00 5e 4c 20 00 00 00 00 00     4L .....^L .....
  209618:	5e 4c 20 00 00 00 00 00 5e 4c 20 00 00 00 00 00     ^L .....^L .....
  209628:	3b 4c 20 00 00 00 00 00 5e 4c 20 00 00 00 00 00     ;L .....^L .....
  209638:	42 4c 20 00 00 00 00 00 49 4c 20 00 00 00 00 00     BL .....IL .....
  209648:	5e 4c 20 00 00 00 00 00 5e 4c 20 00 00 00 00 00     ^L .....^L .....
  209658:	5e 4c 20 00 00 00 00 00 50 4c 20 00 00 00 00 00     ^L .....PL .....
  209668:	5e 4c 20 00 00 00 00 00 5e 4c 20 00 00 00 00 00     ^L .....^L .....
  209678:	5e 4c 20 00 00 00 00 00 57 4c 20 00 00 00 00 00     ^L .....WL .....
  209688:	c8 58 20 00 00 00 00 00 5e 58 20 00 00 00 00 00     .X .....^X .....
  209698:	52 58 20 00 00 00 00 00 77 58 20 00 00 00 00 00     RX .....wX .....
  2096a8:	c8 58 20 00 00 00 00 00 c8 58 20 00 00 00 00 00     .X ......X .....
  2096b8:	90 58 20 00 00 00 00 00 af 58 20 00 00 00 00 00     .X ......X .....
  2096c8:	24 5e 20 00 00 00 00 00 1b 5e 20 00 00 00 00 00     $^ ......^ .....
  2096d8:	64 5e 20 00 00 00 00 00 64 5e 20 00 00 00 00 00     d^ .....d^ .....
  2096e8:	2d 5e 20 00 00 00 00 00 64 5e 20 00 00 00 00 00     -^ .....d^ .....
  2096f8:	64 5e 20 00 00 00 00 00 64 5e 20 00 00 00 00 00     d^ .....d^ .....
  209708:	64 5e 20 00 00 00 00 00 64 5e 20 00 00 00 00 00     d^ .....d^ .....
  209718:	64 5e 20 00 00 00 00 00 64 5e 20 00 00 00 00 00     d^ .....d^ .....
  209728:	24 5e 20 00 00 00 00 00 64 5e 20 00 00 00 00 00     $^ .....d^ .....
  209738:	64 5e 20 00 00 00 00 00 64 5e 20 00 00 00 00 00     d^ .....d^ .....
  209748:	64 5e 20 00 00 00 00 00 64 5e 20 00 00 00 00 00     d^ .....d^ .....
  209758:	64 5e 20 00 00 00 00 00 64 5e 20 00 00 00 00 00     d^ .....d^ .....
  209768:	64 5e 20 00 00 00 00 00 64 5e 20 00 00 00 00 00     d^ .....d^ .....
  209778:	64 5e 20 00 00 00 00 00 64 5e 20 00 00 00 00 00     d^ .....d^ .....
  209788:	64 5e 20 00 00 00 00 00 64 5e 20 00 00 00 00 00     d^ .....d^ .....
  209798:	64 5e 20 00 00 00 00 00 64 5e 20 00 00 00 00 00     d^ .....d^ .....
  2097a8:	1b 5e 20 00 00 00 00 00 64 5e 20 00 00 00 00 00     .^ .....d^ .....
  2097b8:	64 5e 20 00 00 00 00 00 64 5e 20 00 00 00 00 00     d^ .....d^ .....
  2097c8:	64 5e 20 00 00 00 00 00 64 5e 20 00 00 00 00 00     d^ .....d^ .....
  2097d8:	64 5e 20 00 00 00 00 00 64 5e 20 00 00 00 00 00     d^ .....d^ .....
  2097e8:	64 5e 20 00 00 00 00 00 64 5e 20 00 00 00 00 00     d^ .....d^ .....
  2097f8:	64 5e 20 00 00 00 00 00 64 5e 20 00 00 00 00 00     d^ .....d^ .....
  209808:	64 5e 20 00 00 00 00 00 64 5e 20 00 00 00 00 00     d^ .....d^ .....
  209818:	64 5e 20 00 00 00 00 00 64 5e 20 00 00 00 00 00     d^ .....d^ .....
  209828:	64 5e 20 00 00 00 00 00 64 5e 20 00 00 00 00 00     d^ .....d^ .....
  209838:	64 5e 20 00 00 00 00 00 64 5e 20 00 00 00 00 00     d^ .....d^ .....
  209848:	64 5e 20 00 00 00 00 00 64 5e 20 00 00 00 00 00     d^ .....d^ .....
  209858:	64 5e 20 00 00 00 00 00 64 5e 20 00 00 00 00 00     d^ .....d^ .....
  209868:	64 5e 20 00 00 00 00 00 64 5e 20 00 00 00 00 00     d^ .....d^ .....
  209878:	64 5e 20 00 00 00 00 00 64 5e 20 00 00 00 00 00     d^ .....d^ .....
  209888:	64 5e 20 00 00 00 00 00 64 5e 20 00 00 00 00 00     d^ .....d^ .....
  209898:	64 5e 20 00 00 00 00 00 64 5e 20 00 00 00 00 00     d^ .....d^ .....
  2098a8:	12 5e 20 00 00 00 00 00 b6 5f 20 00 00 00 00 00     .^ ......_ .....
  2098b8:	b6 5f 20 00 00 00 00 00 83 5f 20 00 00 00 00 00     ._ ......_ .....
  2098c8:	98 5f 20 00 00 00 00 00 a1 5f 20 00 00 00 00 00     ._ ......_ .....
  2098d8:	aa 5f 20 00 00 00 00 00 8f 5f 20 00 00 00 00 00     ._ ......_ .....
  2098e8:	c1 65 20 00 00 00 00 00 d9 65 20 00 00 00 00 00     .e ......e .....
  2098f8:	f1 65 20 00 00 00 00 00 09 66 20 00 00 00 00 00     .e ......f .....
  209908:	21 66 20 00 00 00 00 00 2e 66 20 00 00 00 00 00     !f ......f .....
  209918:	3b 66 20 00 00 00 00 00 48 66 20 00 00 00 00 00     ;f .....Hf .....
  209928:	41 77 20 00 00 00 00 00 30 69 20 00 00 00 00 00     Aw .....0i .....
  209938:	6d 69 20 00 00 00 00 00 47 69 20 00 00 00 00 00     mi .....Gi .....
  209948:	52 6b 20 00 00 00 00 00 9e 75 20 00 00 00 00 00     Rk ......u .....
  209958:	12 6d 20 00 00 00 00 00 12 6d 20 00 00 00 00 00     .m ......m .....
  209968:	12 6d 20 00 00 00 00 00 12 6d 20 00 00 00 00 00     .m ......m .....
  209978:	12 6d 20 00 00 00 00 00 12 6d 20 00 00 00 00 00     .m ......m .....
  209988:	12 6d 20 00 00 00 00 00 12 6d 20 00 00 00 00 00     .m ......m .....
  209998:	4b 6e 20 00 00 00 00 00 4b 6e 20 00 00 00 00 00     Kn .....Kn .....
  2099a8:	4b 6e 20 00 00 00 00 00 4b 6e 20 00 00 00 00 00     Kn .....Kn .....
  2099b8:	4b 6e 20 00 00 00 00 00 4b 6e 20 00 00 00 00 00     Kn .....Kn .....
  2099c8:	4b 6e 20 00 00 00 00 00 4b 6e 20 00 00 00 00 00     Kn .....Kn .....
  2099d8:	2e 77 20 00 00 00 00 00 41 77 20 00 00 00 00 00     .w .....Aw .....
  2099e8:	31 75 20 00 00 00 00 00 41 77 20 00 00 00 00 00     1u .....Aw .....
  2099f8:	41 77 20 00 00 00 00 00 41 77 20 00 00 00 00 00     Aw .....Aw .....
  209a08:	41 77 20 00 00 00 00 00 41 77 20 00 00 00 00 00     Aw .....Aw .....
  209a18:	97 6d 20 00 00 00 00 00 97 6d 20 00 00 00 00 00     .m ......m .....
  209a28:	97 6d 20 00 00 00 00 00 97 6d 20 00 00 00 00 00     .m ......m .....
  209a38:	97 6d 20 00 00 00 00 00 97 6d 20 00 00 00 00 00     .m ......m .....
  209a48:	97 6d 20 00 00 00 00 00 97 6d 20 00 00 00 00 00     .m ......m .....
  209a58:	97 6d 20 00 00 00 00 00 97 6d 20 00 00 00 00 00     .m ......m .....
  209a68:	97 6d 20 00 00 00 00 00 97 6d 20 00 00 00 00 00     .m ......m .....
  209a78:	97 6d 20 00 00 00 00 00 97 6d 20 00 00 00 00 00     .m ......m .....
  209a88:	97 6d 20 00 00 00 00 00 97 6d 20 00 00 00 00 00     .m ......m .....
  209a98:	b0 6e 20 00 00 00 00 00 b0 6e 20 00 00 00 00 00     .n ......n .....
  209aa8:	b0 6e 20 00 00 00 00 00 b0 6e 20 00 00 00 00 00     .n ......n .....
  209ab8:	b0 6e 20 00 00 00 00 00 b0 6e 20 00 00 00 00 00     .n ......n .....
  209ac8:	b0 6e 20 00 00 00 00 00 b0 6e 20 00 00 00 00 00     .n ......n .....
  209ad8:	1c 6f 20 00 00 00 00 00 1c 6f 20 00 00 00 00 00     .o ......o .....
  209ae8:	1c 6f 20 00 00 00 00 00 1c 6f 20 00 00 00 00 00     .o ......o .....
  209af8:	1c 6f 20 00 00 00 00 00 1c 6f 20 00 00 00 00 00     .o ......o .....
  209b08:	e6 76 20 00 00 00 00 00 e6 76 20 00 00 00 00 00     .v ......v .....
  209b18:	e6 76 20 00 00 00 00 00 e6 76 20 00 00 00 00 00     .v ......v .....
  209b28:	e6 76 20 00 00 00 00 00 e6 76 20 00 00 00 00 00     .v ......v .....
  209b38:	e6 76 20 00 00 00 00 00 e6 76 20 00 00 00 00 00     .v ......v .....
  209b48:	56 6f 20 00 00 00 00 00 f2 72 20 00 00 00 00 00     Vo ......r .....
  209b58:	34 76 20 00 00 00 00 00 41 77 20 00 00 00 00 00     4v .....Aw .....
  209b68:	d7 76 20 00 00 00 00 00 60 73 20 00 00 00 00 00     .v .....`s .....
  209b78:	28 73 20 00 00 00 00 00 ba 72 20 00 00 00 00 00     (s ......r .....
  209b88:	70 70 20 00 00 00 00 00 ce 71 20 00 00 00 00 00     pp ......q .....
  209b98:	4e 72 20 00 00 00 00 00 84 72 20 00 00 00 00 00     Nr ......r .....
  209ba8:	f4 6f 20 00 00 00 00 00 78 6f 20 00 00 00 00 00     .o .....xo .....
  209bb8:	25 30 32 78 00 61 6c 00 63 6c 00 64 6c 00 62 6c     %02x.al.cl.dl.bl
  209bc8:	00 61 68 00 63 68 00 64 68 00 62 68 00 73 70 6c     .ah.ch.dh.bh.spl
  209bd8:	00 62 70 6c 00 73 69 6c 00 64 69 6c 00 72 38 62     .bpl.sil.dil.r8b
  209be8:	00 72 39 62 00 72 31 30 62 00 72 31 31 62 00 72     .r9b.r10b.r11b.r
  209bf8:	31 32 62 00 72 31 33 62 00 72 31 34 62 00 72 31     12b.r13b.r14b.r1
  209c08:	35 62 00 61 78 00 63 78 00 64 78 00 62 78 00 73     5b.ax.cx.dx.bx.s
  209c18:	70 00 62 70 00 73 69 00 64 69 00 72 38 77 00 72     p.bp.si.di.r8w.r
  209c28:	39 77 00 72 31 30 77 00 72 31 31 77 00 72 31 32     9w.r10w.r11w.r12
  209c38:	77 00 72 31 33 57 00 72 31 34 77 00 72 31 35 77     w.r13W.r14w.r15w
  209c48:	00 65 61 78 00 65 63 78 00 65 64 78 00 65 62 78     .eax.ecx.edx.ebx
  209c58:	00 65 73 70 00 65 62 70 00 65 73 69 00 65 64 69     .esp.ebp.esi.edi
  209c68:	00 72 38 64 00 72 39 64 00 72 31 30 64 00 72 31     .r8d.r9d.r10d.r1
  209c78:	31 64 00 72 31 32 64 00 72 31 33 64 00 72 31 34     1d.r12d.r13d.r14
  209c88:	64 00 72 31 35 64 00 72 61 78 00 72 63 78 00 72     d.r15d.rax.rcx.r
  209c98:	64 78 00 72 62 78 00 72 73 70 00 72 62 70 00 72     dx.rbx.rsp.rbp.r
  209ca8:	73 69 00 72 64 69 00 72 38 00 72 39 00 72 31 30     si.rdi.r8.r9.r10
  209cb8:	00 72 31 31 00 72 31 32 00 72 31 33 00 72 31 34     .r11.r12.r13.r14
  209cc8:	00 72 31 35 00 65 73 00 63 73 00 73 73 00 64 73     .r15.es.cs.ss.ds
  209cd8:	00 66 73 00 67 73 00 63 72 30 00 63 72 31 00 63     .fs.gs.cr0.cr1.c
  209ce8:	72 32 00 63 72 33 00 63 72 34 00 63 72 35 00 63     r2.cr3.cr4.cr5.c
  209cf8:	72 36 00 63 72 37 00 63 72 38 00 63 72 39 00 63     r6.cr7.cr8.cr9.c
  209d08:	72 31 30 00 63 72 31 31 00 63 72 31 32 00 63 72     r10.cr11.cr12.cr
  209d18:	31 33 00 63 72 31 34 00 63 72 31 35 00 64 72 30     13.cr14.cr15.dr0
  209d28:	00 64 72 31 00 64 72 32 00 64 72 33 00 64 72 34     .dr1.dr2.dr3.dr4
  209d38:	00 64 72 35 00 64 72 36 00 64 72 37 00 64 72 38     .dr5.dr6.dr7.dr8
  209d48:	00 64 72 39 00 64 72 31 30 00 64 72 31 31 00 64     .dr9.dr10.dr11.d
  209d58:	72 31 32 00 64 72 31 33 00 64 72 31 34 00 64 72     r12.dr13.dr14.dr
  209d68:	31 35 00 6d 6d 30 00 6d 6d 31 00 6d 6d 32 00 6d     15.mm0.mm1.mm2.m
  209d78:	6d 33 00 6d 6d 34 00 6d 6d 35 00 6d 6d 36 00 6d     m3.mm4.mm5.mm6.m
  209d88:	6d 37 00 73 74 30 00 73 74 31 00 73 74 32 00 73     m7.st0.st1.st2.s
  209d98:	74 33 00 73 74 34 00 73 74 35 00 73 74 36 00 73     t3.st4.st5.st6.s
  209da8:	74 37 00 78 6d 6d 30 00 78 6d 6d 31 00 78 6d 6d     t7.xmm0.xmm1.xmm
  209db8:	32 00 78 6d 6d 33 00 78 6d 6d 34 00 78 6d 6d 35     2.xmm3.xmm4.xmm5
  209dc8:	00 78 6d 6d 36 00 78 6d 6d 37 00 78 6d 6d 38 00     .xmm6.xmm7.xmm8.
  209dd8:	78 6d 6d 39 00 78 6d 6d 31 30 00 78 6d 6d 31 31     xmm9.xmm10.xmm11
  209de8:	00 78 6d 6d 31 32 00 78 6d 6d 31 33 00 78 6d 6d     .xmm12.xmm13.xmm
  209df8:	31 34 00 78 6d 6d 31 35 00 72 69 70 00 61 61 61     14.xmm15.rip.aaa
  209e08:	20 20 20 20 20 00 61 61 64 20 20 20 20 20 00 61          .aad     .a
  209e18:	61 6d 20 20 20 20 20 00 61 61 73 20 20 20 20 20     am     .aas     
  209e28:	00 61 64 63 20 20 20 20 20 00 61 64 64 20 20 20     .adc     .add   
  209e38:	20 20 00 61 64 64 70 64 20 20 20 00 61 64 64 70       .addpd   .addp
  209e48:	73 20 20 20 00 61 64 64 73 64 20 20 20 00 61 64     s   .addsd   .ad
  209e58:	64 73 73 20 20 20 00 61 6e 64 20 20 20 20 20 00     dss   .and     .
  209e68:	61 6e 64 6e 70 64 20 20 00 61 6e 64 6e 70 73 20     andnpd  .andnps 
  209e78:	20 00 61 6e 64 70 64 20 20 20 00 61 6e 64 70 73      .andpd   .andps
  209e88:	20 20 20 00 61 72 70 6c 20 20 20 20 00 62 6f 75        .arpl    .bou
  209e98:	6e 64 20 20 20 00 62 73 66 20 20 20 20 20 00 62     nd   .bsf     .b
  209ea8:	73 72 20 20 20 20 20 00 62 73 77 61 70 20 20 20     sr     .bswap   
  209eb8:	00 62 74 20 20 20 20 20 20 00 62 74 63 20 20 20     .bt      .btc   
  209ec8:	20 20 00 62 74 72 20 20 20 20 20 00 62 74 73 20       .btr     .bts 
  209ed8:	20 20 20 20 00 63 61 6c 6c 20 20 20 20 00 63 62         .call    .cb
  209ee8:	77 20 20 20 20 20 00 63 64 71 65 20 20 20 20 00     w     .cdqe    .
  209ef8:	63 6c 63 20 20 20 20 20 00 63 6c 64 20 20 20 20     clc     .cld    
  209f08:	20 00 63 6c 66 6c 75 73 68 20 00 63 6c 69 20 20      .clflush .cli  
  209f18:	20 20 20 00 63 6c 74 73 20 20 20 20 00 63 6d 63        .clts    .cmc
  209f28:	20 20 20 20 20 00 63 6d 6f 76 6f 20 20 20 00 63          .cmovo   .c
  209f38:	6d 6f 76 6e 6f 20 20 00 63 6d 6f 76 62 20 20 20     movno  .cmovb   
  209f48:	00 63 6d 6f 76 6e 62 20 20 00 63 6d 6f 76 7a 20     .cmovnb  .cmovz 
  209f58:	20 20 00 63 6d 6f 76 6e 7a 20 20 00 63 6d 6f 76       .cmovnz  .cmov
  209f68:	62 65 20 20 00 63 6d 6f 76 6e 62 65 20 00 63 6d     be  .cmovnbe .cm
  209f78:	6f 76 73 20 20 20 00 63 6d 6f 76 6e 73 20 20 00     ovs   .cmovns  .
  209f88:	63 6d 6f 76 70 20 20 20 00 63 6d 6f 76 6e 70 20     cmovp   .cmovnp 
  209f98:	20 00 63 6d 6f 76 6c 20 20 20 00 63 6d 6f 76 6e      .cmovl   .cmovn
  209fa8:	6c 20 20 00 63 6d 6f 76 6c 65 20 20 00 63 6d 6f     l  .cmovle  .cmo
  209fb8:	76 6e 6c 65 20 00 63 6d 70 20 20 20 20 20 00 63     vnle .cmp     .c
  209fc8:	6d 70 70 64 20 20 20 00 63 6d 70 70 73 20 20 20     mppd   .cmpps   
  209fd8:	00 63 6d 70 73 20 20 20 20 00 63 6d 70 73 62 20     .cmps    .cmpsb 
  209fe8:	20 20 00 63 6d 70 73 64 20 20 20 00 63 6d 70 73       .cmpsd   .cmps
  209ff8:	71 20 20 20 00 63 6d 70 73 73 20 20 20 00 63 6d     q   .cmpss   .cm
  20a008:	70 73 77 20 20 20 00 63 6d 70 78 63 68 67 20 00     psw   .cmpxchg .
  20a018:	63 6d 70 78 63 68 67 38 62 00 63 6f 6d 69 73 64     cmpxchg8b.comisd
  20a028:	20 20 00 63 6f 6d 69 73 73 20 20 00 63 70 75 69       .comiss  .cpui
  20a038:	64 20 20 20 00 63 71 64 20 20 20 20 20 00 63 71     d   .cqd     .cq
  20a048:	6f 20 20 20 20 20 00 63 76 74 64 71 32 70 64 00     o     .cvtdq2pd.
  20a058:	63 76 74 64 71 32 70 73 00 63 76 74 70 64 32 64     cvtdq2ps.cvtpd2d
  20a068:	71 00 63 76 74 70 64 32 70 69 00 63 76 74 70 64     q.cvtpd2pi.cvtpd
  20a078:	32 70 73 00 63 76 74 70 69 32 70 64 00 63 76 74     2ps.cvtpi2pd.cvt
  20a088:	70 69 32 70 73 00 63 76 74 70 73 32 64 71 00 63     pi2ps.cvtps2dq.c
  20a098:	76 74 70 73 32 70 64 00 63 76 74 70 73 32 70 69     vtps2pd.cvtps2pi
  20a0a8:	00 63 76 74 73 64 32 73 69 00 63 76 74 73 64 32     .cvtsd2si.cvtsd2
  20a0b8:	73 73 00 63 76 74 73 69 32 73 64 00 63 76 74 73     ss.cvtsi2sd.cvts
  20a0c8:	69 32 73 73 00 63 76 74 73 73 32 73 64 00 63 76     i2ss.cvtss2sd.cv
  20a0d8:	74 73 73 32 73 69 00 63 76 74 74 70 64 32 64 71     tss2si.cvttpd2dq
  20a0e8:	00 63 76 74 74 70 64 32 70 69 00 63 76 74 74 70     .cvttpd2pi.cvttp
  20a0f8:	73 32 64 71 00 63 76 74 74 70 73 32 70 69 00 63     s2dq.cvttps2pi.c
  20a108:	76 74 74 73 64 32 73 69 00 63 76 74 74 73 69 32     vttsd2si.cvttsi2
  20a118:	73 64 00 63 76 74 74 73 69 32 73 73 00 63 76 74     sd.cvttsi2ss.cvt
  20a128:	74 73 73 32 73 69 00 63 77 64 20 20 20 20 20 00     tss2si.cwd     .
  20a138:	63 77 64 65 20 20 20 20 00 63 64 71 20 20 20 20     cwde    .cdq    
  20a148:	20 00 64 61 61 20 20 20 20 20 00 64 61 73 20 20      .daa     .das  
  20a158:	20 20 20 00 64 65 63 20 20 20 20 20 00 64 69 76        .dec     .div
  20a168:	20 20 20 20 20 00 64 69 76 70 64 20 20 20 00 64          .divpd   .d
  20a178:	69 76 70 73 20 20 20 00 64 69 76 73 64 20 20 20     ivps   .divsd   
  20a188:	00 64 69 76 73 73 20 20 20 00 65 6d 6d 73 20 20     .divss   .emms  
  20a198:	20 20 00 65 6e 74 65 72 20 20 20 00 65 73 63 20       .enter   .esc 
  20a1a8:	20 20 20 20 00 66 32 78 6d 31 20 20 20 00 66 73         .f2xm1   .fs
  20a1b8:	78 6d 31 20 20 20 00 66 61 62 73 20 20 20 20 00     xm1   .fabs    .
  20a1c8:	66 61 64 64 20 20 20 20 00 66 61 64 64 70 20 20     fadd    .faddp  
  20a1d8:	20 00 66 62 6c 64 20 20 20 20 00 66 62 73 74 70      .fbld    .fbstp
  20a1e8:	20 20 20 00 66 63 68 73 20 20 20 20 00 66 63 6c        .fchs    .fcl
  20a1f8:	65 78 20 20 20 00 66 63 6d 6f 76 62 20 20 00 66     ex   .fcmovb  .f
  20a208:	63 6d 6f 76 62 65 20 00 66 63 6d 6f 76 65 20 20     cmovbe .fcmove  
  20a218:	00 66 63 6d 6f 76 6e 62 20 00 66 63 6d 6f 76 6e     .fcmovnb .fcmovn
  20a228:	62 65 00 66 63 6d 6f 76 6e 65 20 00 66 63 6d 6f     be.fcmovne .fcmo
  20a238:	76 6e 75 20 00 66 63 6d 6f 76 75 20 20 00 66 63     vnu .fcmovu  .fc
  20a248:	6f 6d 20 20 20 20 00 66 63 6f 6d 69 20 20 20 00     om    .fcomi   .
  20a258:	66 63 6f 6d 70 20 20 20 00 66 63 6f 6d 69 70 20     fcomp   .fcomip 
  20a268:	20 00 66 63 6f 6d 70 70 20 20 00 66 63 6f 73 20      .fcompp  .fcos 
  20a278:	20 20 20 00 66 64 65 63 73 74 70 20 00 66 64 69        .fdecstp .fdi
  20a288:	76 20 20 20 20 00 66 64 69 76 70 20 20 20 00 66     v    .fdivp   .f
  20a298:	64 69 76 72 20 20 20 00 66 64 69 76 72 70 20 20     divr   .fdivrp  
  20a2a8:	00 66 65 6d 6d 73 20 20 20 00 66 66 72 65 65 20     .femms   .ffree 
  20a2b8:	20 20 00 66 69 61 64 64 20 20 20 00 66 69 63 6f       .fiadd   .fico
  20a2c8:	6d 20 20 20 00 66 69 63 6f 6d 70 20 20 00 66 69     m   .ficomp  .fi
  20a2d8:	64 69 76 20 20 20 00 66 69 64 69 76 72 20 20 00     div   .fidivr  .
  20a2e8:	66 69 64 77 20 20 20 20 00 66 69 64 77 72 20 20     fidw    .fidwr  
  20a2f8:	20 00 66 69 6c 64 20 20 20 20 00 66 69 6d 75 6c      .fild    .fimul
  20a308:	20 20 20 00 66 69 6e 63 73 74 70 20 00 66 69 6e        .fincstp .fin
  20a318:	69 74 20 20 20 00 66 69 73 74 20 20 20 20 00 66     it   .fist    .f
  20a328:	69 73 74 70 20 20 20 00 66 69 73 75 62 20 20 20     istp   .fisub   
  20a338:	00 66 69 73 75 62 72 20 20 00 66 6c 64 20 20 20     .fisubr  .fld   
  20a348:	20 20 00 66 6c 64 31 20 20 20 20 00 66 6c 64 63       .fld1    .fldc
  20a358:	77 20 20 20 00 66 6c 64 65 6e 76 20 20 00 66 6c     w   .fldenv  .fl
  20a368:	64 6c 32 65 20 20 00 66 6c 64 6c 32 74 20 20 00     dl2e  .fldl2t  .
  20a378:	66 6c 64 6c 67 32 20 20 00 66 6c 64 6c 6e 32 20     fldlg2  .fldln2 
  20a388:	20 00 66 6c 64 6c 70 69 20 20 00 66 6c 64 78 20      .fldlpi  .fldx 
  20a398:	20 20 20 00 66 6c 64 7a 20 20 20 20 00 66 6d 75        .fldz    .fmu
  20a3a8:	6c 20 20 20 20 00 66 6d 75 6c 70 20 20 20 00 66     l    .fmulp   .f
  20a3b8:	6e 63 6c 65 78 20 20 00 66 6e 63 73 74 70 20 20     nclex  .fncstp  
  20a3c8:	00 66 6e 69 6e 69 74 20 20 00 66 6e 6f 70 20 20     .fninit  .fnop  
  20a3d8:	20 20 00 66 6e 73 61 76 65 20 20 00 66 6e 73 74       .fnsave  .fnst
  20a3e8:	63 77 20 20 00 66 6e 73 74 65 6e 76 20 00 66 6e     cw  .fnstenv .fn
  20a3f8:	73 74 73 77 20 20 00 66 70 61 74 61 6e 20 20 00     stsw  .fpatan  .
  20a408:	66 70 72 65 6d 20 20 20 00 66 70 72 65 6d 31 20     fprem   .fprem1 
  20a418:	20 00 66 70 74 61 6e 20 20 20 00 66 70 78 74 72      .fptan   .fpxtr
  20a428:	61 63 74 00 66 72 6e 64 69 6e 74 20 00 66 72 73     act.frndint .frs
  20a438:	74 6f 72 20 20 00 66 73 61 76 65 20 20 20 00 66     tor  .fsave   .f
  20a448:	73 63 61 6c 65 20 20 00 66 73 69 6e 20 20 20 20     scale  .fsin    
  20a458:	00 66 73 69 6e 63 6f 73 20 00 66 73 71 72 74 20     .fsincos .fsqrt 
  20a468:	20 20 00 66 73 74 20 20 20 20 20 00 66 73 74 63       .fst     .fstc
  20a478:	77 20 20 20 00 66 73 74 65 6e 76 20 20 00 66 73     w   .fstenv  .fs
  20a488:	74 70 20 20 20 20 00 66 73 74 73 77 20 20 20 00     tp    .fstsw   .
  20a498:	66 73 75 62 20 20 20 20 00 66 73 75 62 70 20 20     fsub    .fsubp  
  20a4a8:	20 00 66 73 75 62 72 20 20 20 00 66 73 75 62 72      .fsubr   .fsubr
  20a4b8:	70 20 20 00 66 74 73 74 20 20 20 20 00 66 75 63     p  .ftst    .fuc
  20a4c8:	6f 6d 20 20 20 00 66 75 63 6f 6d 69 20 20 00 66     om   .fucomi  .f
  20a4d8:	75 63 6f 6d 69 70 20 00 66 75 63 6f 6d 70 20 20     ucomip .fucomp  
  20a4e8:	00 66 75 63 6f 6d 70 70 20 00 66 77 61 69 74 20     .fucompp .fwait 
  20a4f8:	20 20 00 66 78 61 6d 20 20 20 20 00 66 78 63 68       .fxam    .fxch
  20a508:	20 20 20 20 00 66 78 72 73 74 6f 72 20 00 66 78         .fxrstor .fx
  20a518:	73 61 76 65 20 20 00 66 78 74 72 61 63 74 20 00     save  .fxtract .
  20a528:	66 79 6c 32 78 20 20 20 00 66 79 6c 32 78 70 31     fyl2x   .fyl2xp1
  20a538:	20 00 68 6c 74 20 20 20 20 20 00 69 64 69 76 20      .hlt     .idiv 
  20a548:	20 20 20 00 69 6d 75 6c 20 20 20 20 00 69 6e 20        .imul    .in 
  20a558:	20 20 20 20 20 00 69 6e 63 20 20 20 20 20 00 69          .inc     .i
  20a568:	6e 73 20 20 20 20 20 00 69 6e 73 62 20 20 20 20     ns     .insb    
  20a578:	00 69 6e 73 64 20 20 20 20 00 69 6e 73 77 20 20     .insd    .insw  
  20a588:	20 20 00 69 6e 74 20 20 20 20 20 00 69 6e 74 6f       .int     .into
  20a598:	20 20 20 20 00 69 6e 76 64 20 20 20 20 00 69 6e         .invd    .in
  20a5a8:	76 6c 70 67 20 20 00 69 72 65 74 77 20 20 20 00     vlpg  .iretw   .
  20a5b8:	69 72 65 74 64 20 20 20 00 69 72 65 74 71 20 20     iretd   .iretq  
  20a5c8:	20 00 6a 63 78 7a 20 20 20 20 00 6a 65 63 78 7a      .jcxz    .jecxz
  20a5d8:	20 20 20 00 6a 6d 70 20 20 20 20 20 00 6a 72 63        .jmp     .jrc
  20a5e8:	78 7a 20 20 20 00 6a 6f 20 20 20 20 20 20 00 6a     xz   .jo      .j
  20a5f8:	6e 6f 20 20 20 20 20 00 6a 62 20 20 20 20 20 20     no     .jb      
  20a608:	00 6a 6e 62 20 20 20 20 20 00 6a 7a 20 20 20 20     .jnb     .jz    
  20a618:	20 20 00 6a 6e 7a 20 20 20 20 20 00 6a 62 65 20       .jnz     .jbe 
  20a628:	20 20 20 20 00 6a 6e 62 65 20 20 20 20 00 6a 73         .jnbe    .js
  20a638:	20 20 20 20 20 20 00 6a 6e 73 20 20 20 20 20 00           .jns     .
  20a648:	6a 70 20 20 20 20 20 20 00 6a 6e 70 20 20 20 20     jp      .jnp    
  20a658:	20 00 6a 6c 20 20 20 20 20 20 00 6a 6e 6c 20 20      .jl      .jnl  
  20a668:	20 20 20 00 6a 6c 65 20 20 20 20 20 00 6a 6e 6c        .jle     .jnl
  20a678:	65 20 20 20 20 00 6c 61 68 66 20 20 20 20 00 6c     e    .lahf    .l
  20a688:	61 72 20 20 20 20 20 00 6c 64 6d 78 63 73 72 20     ar     .ldmxcsr 
  20a698:	00 6c 64 73 20 20 20 20 20 00 6c 65 61 20 20 20     .lds     .lea   
  20a6a8:	20 20 00 6c 65 61 76 65 20 20 20 00 6c 65 73 20       .leave   .les 
  20a6b8:	20 20 20 20 00 6c 66 65 6e 63 65 20 20 00 6c 66         .lfence  .lf
  20a6c8:	73 20 20 20 20 20 00 6c 67 64 74 20 20 20 20 00     s     .lgdt    .
  20a6d8:	6c 67 73 20 20 20 20 20 00 6c 69 64 74 20 20 20     lgs     .lidt   
  20a6e8:	20 00 6c 6c 64 74 20 20 20 20 00 6c 6d 73 77 20      .lldt    .lmsw 
  20a6f8:	20 20 20 00 6c 6f 63 6b 20 20 20 20 00 6c 6f 64        .lock    .lod
  20a708:	73 20 20 20 20 00 6c 6f 64 73 62 20 20 20 00 6c     s    .lodsb   .l
  20a718:	6f 64 73 64 20 20 20 00 6c 6f 64 73 71 20 20 20     odsd   .lodsq   
  20a728:	00 6c 6f 64 73 77 20 20 20 00 6c 6f 6f 70 20 20     .lodsw   .loop  
  20a738:	20 20 00 6c 6f 6f 70 65 20 20 20 00 6c 6f 6f 70       .loope   .loop
  20a748:	6e 20 20 20 00 6c 6f 6f 70 6e 65 20 20 00 6c 6f     n   .loopne  .lo
  20a758:	6f 70 6e 7a 20 20 00 6c 6f 6f 70 7a 20 20 20 00     opnz  .loopz   .
  20a768:	6c 73 6c 20 20 20 20 20 00 6c 73 73 20 20 20 20     lsl     .lss    
  20a778:	20 00 6c 74 72 20 20 20 20 20 00 6d 61 73 6b 6d      .ltr     .maskm
  20a788:	6f 76 64 71 75 00 6d 61 73 6b 6d 6f 76 71 00 6d     ovdqu.maskmovq.m
  20a798:	61 78 70 64 20 20 20 00 6d 61 78 70 73 20 20 20     axpd   .maxps   
  20a7a8:	00 6d 61 78 73 64 20 20 20 00 6d 61 78 73 73 20     .maxsd   .maxss 
  20a7b8:	20 20 00 6d 66 65 6e 63 65 20 20 00 6d 69 6e 70       .mfence  .minp
  20a7c8:	64 20 20 20 00 6d 69 6e 70 73 20 20 20 00 6d 69     d   .minps   .mi
  20a7d8:	6e 73 64 20 20 20 00 6d 69 6e 73 73 20 20 20 00     nsd   .minss   .
  20a7e8:	6d 6f 76 20 20 20 20 20 00 6d 6f 76 61 70 64 20     mov     .movapd 
  20a7f8:	20 00 6d 6f 76 61 70 73 20 20 00 6d 6f 76 64 20      .movaps  .movd 
  20a808:	20 20 20 00 6d 6f 76 64 71 32 71 20 00 6d 6f 76        .movdq2q .mov
  20a818:	64 71 61 20 20 00 6d 6f 76 64 71 75 20 20 00 6d     dqa  .movdqu  .m
  20a828:	6f 76 68 6c 70 73 20 00 6d 6f 76 68 70 64 20 20     ovhlps .movhpd  
  20a838:	00 6d 6f 76 68 70 73 20 20 00 6d 6f 76 6c 68 70     .movhps  .movlhp
  20a848:	73 20 00 6d 6f 76 6c 70 64 20 20 00 6d 6f 76 6c     s .movlpd  .movl
  20a858:	70 73 20 20 00 6d 6f 76 6d 73 6b 70 64 00 6d 6f     ps  .movmskpd.mo
  20a868:	76 6d 73 6b 70 73 00 6d 6f 76 6e 69 67 20 20 00     vmskps.movnig  .
  20a878:	6d 6f 76 6e 74 64 71 20 00 6d 6f 76 6e 74 69 20     movntdq .movnti 
  20a888:	20 00 6d 6f 76 6e 74 70 64 20 00 6d 6f 76 6e 74      .movntpd .movnt
  20a898:	70 73 20 00 6d 6f 76 6e 74 71 20 20 00 6d 6f 76     ps .movntq  .mov
  20a8a8:	71 20 20 20 20 00 6d 6f 76 71 32 64 71 20 00 6d     q    .movq2dq .m
  20a8b8:	6f 76 71 61 20 20 20 00 6d 6f 76 73 20 20 20 20     ovqa   .movs    
  20a8c8:	00 6d 6f 76 73 62 20 20 20 00 6d 6f 76 73 64 20     .movsb   .movsd 
  20a8d8:	20 20 00 6d 6f 76 73 71 20 20 20 00 6d 6f 76 73       .movsq   .movs
  20a8e8:	73 20 20 20 00 6d 6f 76 73 77 20 20 20 00 6d 6f     s   .movsw   .mo
  20a8f8:	76 73 78 20 20 20 00 6d 6f 76 73 78 64 20 20 00     vsx   .movsxd  .
  20a908:	6d 6f 76 75 70 64 20 20 00 6d 6f 76 75 70 73 20     movupd  .movups 
  20a918:	20 00 6d 6f 76 7a 78 20 20 20 00 6d 75 6c 20 20      .movzx   .mul  
  20a928:	20 20 20 00 6d 75 6c 70 64 20 20 20 00 6d 75 6c        .mulpd   .mul
  20a938:	70 73 20 20 20 00 6d 75 6c 73 64 20 20 20 00 6d     ps   .mulsd   .m
  20a948:	75 6c 73 73 20 20 20 00 6e 65 67 20 20 20 20 20     ulss   .neg     
  20a958:	00 6e 6f 70 20 20 20 20 20 00 6e 6f 74 20 20 20     .nop     .not   
  20a968:	20 20 00 6f 72 20 20 20 20 20 20 00 6f 72 70 64       .or      .orpd
  20a978:	20 20 20 20 00 6f 72 70 73 20 20 20 20 00 6f 75         .orps    .ou
  20a988:	74 20 20 20 20 20 00 6f 75 74 73 20 20 20 20 00     t     .outs    .
  20a998:	6f 75 74 73 62 20 20 20 00 6f 75 74 73 64 20 20     outsb   .outsd  
  20a9a8:	20 00 6f 75 74 73 77 20 20 20 00 70 61 63 6b 73      .outsw   .packs
  20a9b8:	73 64 77 00 70 61 63 6b 73 73 77 62 00 70 61 63     sdw.packsswb.pac
  20a9c8:	6b 75 73 64 77 00 70 61 63 6b 75 73 77 62 00 70     kusdw.packuswb.p
  20a9d8:	61 64 64 62 20 20 20 00 70 61 64 64 64 20 20 20     addb   .paddd   
  20a9e8:	00 70 61 64 64 71 20 20 20 00 70 61 64 64 73 62     .paddq   .paddsb
  20a9f8:	20 20 00 70 61 64 64 73 77 20 20 00 70 61 64 64       .paddsw  .padd
  20aa08:	75 73 62 20 00 70 61 64 64 75 73 77 20 00 70 61     usb .paddusw .pa
  20aa18:	64 64 77 20 20 20 00 70 61 6e 64 20 20 20 20 00     ddw   .pand    .
  20aa28:	70 61 6e 64 6e 20 20 20 00 70 61 76 67 62 20 20     pandn   .pavgb  
  20aa38:	20 00 70 61 76 67 75 73 62 20 00 70 61 76 67 77      .pavgusb .pavgw
  20aa48:	20 20 20 00 70 63 6d 70 65 71 62 20 00 70 63 6d        .pcmpeqb .pcm
  20aa58:	70 65 71 64 20 00 70 63 6d 70 65 71 77 20 00 70     peqd .pcmpeqw .p
  20aa68:	63 6d 70 67 74 62 20 00 70 63 6d 70 67 74 64 20     cmpgtb .pcmpgtd 
  20aa78:	00 70 63 6d 70 67 74 77 20 00 70 65 78 74 72 77     .pcmpgtw .pextrw
  20aa88:	20 20 00 70 66 32 69 64 20 20 20 00 70 66 32 69       .pf2id   .pf2i
  20aa98:	77 20 20 20 00 70 66 61 63 63 20 20 20 00 70 66     w   .pfacc   .pf
  20aaa8:	61 64 64 20 20 20 00 70 66 63 6d 70 65 71 20 00     add   .pfcmpeq .
  20aab8:	70 66 63 6d 70 67 65 20 00 70 66 63 6d 70 67 74     pfcmpge .pfcmpgt
  20aac8:	20 00 70 66 6d 61 78 20 20 20 00 70 66 6d 69 6e      .pfmax   .pfmin
  20aad8:	20 20 20 00 70 66 6d 75 6c 20 20 20 00 70 66 6e        .pfmul   .pfn
  20aae8:	61 63 63 20 20 00 70 66 70 6e 61 63 63 20 00 70     acc  .pfpnacc .p
  20aaf8:	66 72 63 70 20 20 20 00 70 66 72 63 70 69 74 31     frcp   .pfrcpit1
  20ab08:	00 70 66 72 63 70 69 74 32 00 70 66 72 73 71 69     .pfrcpit2.pfrsqi
  20ab18:	74 31 00 70 66 72 73 71 72 74 20 00 70 66 73 75     t1.pfrsqrt .pfsu
  20ab28:	62 20 20 20 00 70 66 73 75 62 72 20 20 00 70 69     b   .pfsubr  .pi
  20ab38:	32 66 64 20 20 20 00 70 69 32 66 77 20 20 20 00     2fd   .pi2fw   .
  20ab48:	70 69 6e 73 72 77 20 20 00 70 6d 61 64 64 77 64     pinsrw  .pmaddwd
  20ab58:	20 00 70 6d 61 78 73 77 20 20 00 70 6d 61 78 75      .pmaxsw  .pmaxu
  20ab68:	62 20 20 00 70 6d 69 6e 73 77 20 20 00 70 6d 69     b  .pminsw  .pmi
  20ab78:	6e 75 62 20 20 00 70 6d 6f 76 6d 73 6b 62 00 70     nub  .pmovmskb.p
  20ab88:	6d 75 6c 68 72 77 20 00 70 6d 75 6c 68 75 77 20     mulhrw .pmulhuw 
  20ab98:	00 70 6d 75 6c 68 77 20 20 00 70 6d 75 6c 6c 77     .pmulhw  .pmullw
  20aba8:	20 20 00 70 6d 75 6c 75 64 71 20 00 70 6f 70 20       .pmuludq .pop 
  20abb8:	20 20 20 20 00 70 6f 70 61 20 20 20 20 00 70 6f         .popa    .po
  20abc8:	70 61 64 20 20 20 00 70 6f 70 66 77 20 20 20 00     pad   .popfw   .
  20abd8:	70 6f 70 66 64 20 20 20 00 70 6f 70 66 71 20 20     popfd   .popfq  
  20abe8:	20 00 70 6f 72 20 20 20 20 20 00 70 72 65 66 65      .por     .prefe
  20abf8:	74 63 68 00 70 73 61 64 62 77 20 20 00 70 73 68     tch.psadbw  .psh
  20ac08:	75 66 64 20 20 00 70 73 68 75 66 68 77 20 00 70     ufd  .pshufhw .p
  20ac18:	73 68 75 66 6c 77 20 00 70 73 68 75 66 77 20 20     shuflw .pshufw  
  20ac28:	00 70 73 6c 6c 64 20 20 20 00 70 73 6c 6c 64 71     .pslld   .pslldq
  20ac38:	20 20 00 70 73 6c 6c 71 20 20 20 00 70 73 6c 6c       .psllq   .psll
  20ac48:	77 20 20 20 00 70 73 72 61 64 20 20 20 00 70 73     w   .psrad   .ps
  20ac58:	72 61 77 20 20 20 00 70 73 72 61 71 20 20 20 00     raw   .psraq   .
  20ac68:	70 73 72 6c 64 20 20 20 00 70 73 72 6c 64 71 20     psrld   .psrldq 
  20ac78:	20 00 70 73 72 6c 71 20 20 20 00 70 73 72 6c 77      .psrlq   .psrlw
  20ac88:	20 20 20 00 70 73 75 62 62 20 20 20 00 70 73 75        .psubb   .psu
  20ac98:	62 64 20 20 20 00 70 73 75 62 71 20 20 20 00 70     bd   .psubq   .p
  20aca8:	73 75 62 73 62 20 20 00 70 73 75 62 73 77 20 20     subsb  .psubsw  
  20acb8:	00 70 73 75 62 75 73 62 20 00 70 73 75 62 75 73     .psubusb .psubus
  20acc8:	77 20 00 70 73 75 62 77 20 20 20 00 70 73 77 61     w .psubw   .pswa
  20acd8:	70 64 20 20 00 70 75 6e 70 63 6b 68 62 77 00 70     pd  .punpckhbw.p
  20ace8:	75 6e 70 63 6b 68 64 71 00 70 75 6e 70 63 6b 68     unpckhdq.punpckh
  20acf8:	71 64 71 00 70 75 6e 70 63 6b 68 77 64 00 70 75     qdq.punpckhwd.pu
  20ad08:	6e 70 63 6b 6c 62 77 00 70 75 6e 70 63 6b 6c 64     npcklbw.punpckld
  20ad18:	71 00 70 75 6e 70 63 6b 6c 71 64 71 00 70 75 6e     q.punpcklqdq.pun
  20ad28:	70 63 6b 6c 77 64 00 70 75 73 68 20 20 20 20 00     pcklwd.push    .
  20ad38:	70 75 73 68 61 20 20 20 00 70 75 73 68 61 64 20     pusha   .pushad 
  20ad48:	20 00 70 75 73 68 66 77 20 20 00 70 75 73 68 66      .pushfw  .pushf
  20ad58:	64 20 20 00 70 75 73 68 66 71 20 20 00 70 78 6f     d  .pushfq  .pxo
  20ad68:	72 20 20 20 20 00 72 63 6c 20 20 20 20 20 00 72     r    .rcl     .r
  20ad78:	63 70 70 73 20 20 20 00 72 63 70 73 73 20 20 20     cpps   .rcpss   
  20ad88:	00 72 63 72 20 20 20 20 20 00 72 64 69 76 69 73     .rcr     .rdivis
  20ad98:	72 20 00 72 64 6d 73 72 20 20 20 00 72 64 70 6d     r .rdmsr   .rdpm
  20ada8:	63 20 20 20 00 72 64 74 73 63 20 20 20 00 72 65     c   .rdtsc   .re
  20adb8:	70 20 20 20 20 20 00 72 65 70 6e 65 20 20 20 00     p     .repne   .
  20adc8:	72 65 74 20 20 20 20 20 00 72 65 74 66 20 20 20     ret     .retf   
  20add8:	20 00 72 6f 6c 20 20 20 20 20 00 72 6f 72 20 20      .rol     .ror  
  20ade8:	20 20 20 00 72 73 6d 20 20 20 20 20 00 72 73 71        .rsm     .rsq
  20adf8:	72 74 70 73 20 00 72 73 71 72 74 73 73 20 00 73     rtps .rsqrtss .s
  20ae08:	61 68 66 20 20 20 20 00 73 61 6c 20 20 20 20 20     ahf    .sal     
  20ae18:	00 73 61 6c 63 20 20 20 20 00 73 61 72 20 20 20     .salc    .sar   
  20ae28:	20 20 00 73 62 62 20 20 20 20 20 00 73 63 61 73       .sbb     .scas
  20ae38:	20 20 20 20 00 73 63 61 73 62 20 20 20 00 73 63         .scasb   .sc
  20ae48:	61 73 64 20 20 20 00 73 63 61 73 71 20 20 20 00     asd   .scasq   .
  20ae58:	73 63 61 73 77 20 20 20 00 73 65 74 6f 20 20 20     scasw   .seto   
  20ae68:	20 00 73 65 74 6e 6f 20 20 20 00 73 65 74 62 20      .setno   .setb 
  20ae78:	20 20 20 00 73 65 74 6e 62 20 20 20 00 73 65 74        .setnb   .set
  20ae88:	7a 20 20 20 20 00 73 65 74 6e 7a 20 20 20 00 73     z    .setnz   .s
  20ae98:	65 74 62 65 20 20 20 00 73 65 74 6e 62 65 20 20     etbe   .setnbe  
  20aea8:	00 73 65 74 73 20 20 20 20 00 73 65 74 6e 73 20     .sets    .setns 
  20aeb8:	20 20 00 73 65 74 70 20 20 20 20 00 73 65 74 6e       .setp    .setn
  20aec8:	70 20 20 20 00 73 65 74 6c 20 20 20 20 00 73 65     p   .setl    .se
  20aed8:	74 6e 6c 20 20 20 00 73 65 74 6c 65 20 20 20 00     tnl   .setle   .
  20aee8:	73 65 74 6e 6c 65 20 20 00 73 66 65 6e 63 65 20     setnle  .sfence 
  20aef8:	20 00 73 67 64 74 20 20 20 20 00 73 68 6c 20 20      .sgdt    .shl  
  20af08:	20 20 20 00 73 68 6c 64 20 20 20 20 00 73 68 72        .shld    .shr
  20af18:	20 20 20 20 20 00 73 68 72 64 20 20 20 20 00 73          .shrd    .s
  20af28:	68 75 66 70 64 20 20 00 73 68 75 66 70 73 20 20     hufpd  .shufps  
  20af38:	00 73 69 64 74 20 20 20 20 00 73 6c 64 74 20 20     .sidt    .sldt  
  20af48:	20 20 00 73 6d 73 77 20 20 20 20 00 73 71 72 74       .smsw    .sqrt
  20af58:	70 64 20 20 00 73 71 72 74 70 73 20 20 00 73 71     pd  .sqrtps  .sq
  20af68:	72 74 73 64 20 20 00 73 71 72 74 73 73 20 20 00     rtsd  .sqrtss  .
  20af78:	73 74 63 20 20 20 20 20 00 73 74 64 20 20 20 20     stc     .std    
  20af88:	20 00 73 74 69 20 20 20 20 20 00 73 74 6d 78 63      .sti     .stmxc
  20af98:	73 72 20 00 73 74 6f 73 20 20 20 20 00 73 74 6f     sr .stos    .sto
  20afa8:	73 62 20 20 20 00 73 74 6f 73 77 20 20 20 00 73     sb   .stosw   .s
  20afb8:	74 6f 73 64 20 20 20 00 73 74 72 20 20 20 20 20     tosd   .str     
  20afc8:	00 73 75 62 20 20 20 20 20 00 73 75 62 70 64 20     .sub     .subpd 
  20afd8:	20 20 00 73 75 62 70 73 20 20 20 00 73 75 62 73       .subps   .subs
  20afe8:	64 20 20 20 00 73 75 62 73 73 20 20 20 00 73 77     d   .subss   .sw
  20aff8:	61 70 67 73 20 20 00 73 79 73 63 61 6c 6c 20 00     apgs  .syscall .
  20b008:	73 79 73 65 6e 74 65 72 00 73 79 73 65 78 69 74     sysenter.sysexit
  20b018:	20 00 73 79 73 72 65 74 20 20 00 74 65 73 74 20      .sysret  .test 
  20b028:	20 20 20 00 75 63 6f 6d 69 73 64 20 00 75 63 6f        .ucomisd .uco
  20b038:	6d 69 73 73 20 00 75 64 32 20 20 20 20 20 00 75     miss .ud2     .u
  20b048:	6e 70 63 6b 68 70 64 00 75 6e 70 63 6b 68 70 73     npckhpd.unpckhps
  20b058:	00 75 6e 70 63 6b 6c 70 64 00 75 6e 70 63 6b 6c     .unpcklpd.unpckl
  20b068:	70 73 00 76 65 72 72 20 20 20 20 00 76 65 72 77     ps.verr    .verw
  20b078:	20 20 20 20 00 77 61 69 74 20 20 20 20 00 77 62         .wait    .wb
  20b088:	69 6e 76 64 20 20 00 77 72 6d 73 72 20 20 20 00     invd  .wrmsr   .
  20b098:	78 61 64 64 20 20 20 20 00 78 63 68 67 20 20 20     xadd    .xchg   
  20b0a8:	20 00 78 6c 61 74 20 20 20 20 00 78 6c 61 74 62      .xlat    .xlatb
  20b0b8:	20 20 20 00 78 6f 72 20 20 20 20 20 00 78 6f 72        .xor     .xor
  20b0c8:	70 64 20 20 20 00 78 6f 72 70 73 20 20 20 00 69     pd   .xorps   .i
  20b0d8:	6e 76 61 6c 69 64 20 00 67 72 70 20 20 20 20 20     nvalid .grp     
  20b0e8:	00 61 33 32 20 20 20 20 20 00 6f 33 32 20 20 20     .a32     .o32   
  20b0f8:	20 20 00 65 73 20 20 20 20 20 20 00 66 73 20 20       .es      .fs  
  20b108:	20 20 20 20 00 67 73 20 20 20 20 20 20 00 63 73         .gs      .cs
  20b118:	20 20 20 20 20 20 00 64 73 20 20 20 20 20 20 00           .ds      .
  20b128:	73 73 20 20 20 20 20 20 00 78 38 37 20 20 20 20     ss      .x87    
  20b138:	20 00 33 64 6e 6f 77 20 20 20 00 64 62 20 20 20      .3dnow   .db   
  20b148:	20 20 20 00 63 6d 70 78 63 68 67 31 36 62 00 73        .cmpxchg16b.s
  20b158:	74 6f 73 71 20 20 20 00 69 6e 74 33 20 20 20 20     tosq   .int3    
  20b168:	00 6d 6f 76 73 6c 64 75 70 00 6d 6f 76 73 68 64     .movsldup.movshd
  20b178:	75 70 00 6d 6f 76 64 64 75 70 20 00 72 64 74 73     up.movddup .rdts
  20b188:	63 70 20 20 00 76 6d 72 75 6e 20 20 20 00 76 6d     cp  .vmrun   .vm
  20b198:	6d 63 61 6c 6c 20 00 76 6d 6c 6f 61 64 20 20 00     mcall .vmload  .
  20b1a8:	76 6d 73 61 76 65 20 20 00 73 74 67 69 20 20 20     vmsave  .stgi   
  20b1b8:	20 00 63 6c 67 69 20 20 20 20 00 73 6b 69 6e 69      .clgi    .skini
  20b1c8:	74 20 20 00 69 6e 76 6c 70 67 61 20 00 6a 61 20     t  .invlpga .ja 
  20b1d8:	20 20 20 20 20 00 6a 61 65 20 20 20 20 20 00 6a          .jae     .j
  20b1e8:	67 20 20 20 20 20 20 00 6a 67 65 20 20 20 20 20     g      .jge     
  20b1f8:	00 6a 63 20 20 20 20 20 20 00 6a 6e 63 20 20 20     .jc      .jnc   
  20b208:	20 20 00 66 69 73 74 74 70 20 20 00 70 72 65 66       .fisttp  .pref
  20b218:	65 74 63 68 6e 74 61 00 70 72 65 66 65 74 63 68     etchnta.prefetch
  20b228:	74 30 00 70 72 65 66 65 74 63 68 74 31 00 70 72     t0.prefetcht1.pr
  20b238:	65 66 65 74 63 68 74 32 00 63 6d 6f 76 61 65 20     efetcht2.cmovae 
  20b248:	20 00 63 6d 6f 76 61 20 20 20 00 63 6d 6f 76 67      .cmova   .cmovg
  20b258:	65 20 20 00 63 6d 6f 76 67 20 20 20 00 73 65 74     e  .cmovg   .set
  20b268:	61 20 20 20 20 00 73 65 74 67 65 20 20 20 00 73     a    .setge   .s
  20b278:	65 74 67 20 20 20 20 00 70 61 75 73 65 20 20 20     etg    .pause   
  20b288:	00 6e 61 20 20 20 20 20 20 00 68 61 64 64 70 64     .na      .haddpd
  20b298:	20 20 00 68 73 75 62 70 64 20 20 00 61 64 64 73       .hsubpd  .adds
  20b2a8:	75 62 70 64 00 68 61 64 64 70 73 20 20 00 68 73     ubpd.haddps  .hs
  20b2b8:	75 62 70 73 20 20 00 61 64 64 73 75 62 70 73 00     ubps  .addsubps.
  20b2c8:	6c 64 64 71 75 20 20 20 00 69 6e 74 31 20 20 20     lddqu   .int1   
  20b2d8:	20 00 76 6d 63 61 6c 6c 20 20 00 76 6d 6c 61 75      .vmcall  .vmlau
  20b2e8:	6e 63 68 00 76 6d 72 65 73 75 6d 65 00 76 6d 78     nch.vmresume.vmx
  20b2f8:	6f 66 66 20 20 00 6d 6f 6e 69 74 6f 72 20 00 6d     off  .monitor .m
  20b308:	77 61 69 74 20 20 20 00 76 6d 70 74 72 6c 64 20     wait   .vmptrld 
  20b318:	00 76 6d 70 74 72 73 74 20 00 76 6d 63 6c 65 61     .vmptrst .vmclea
  20b328:	72 20 00 76 6d 78 6f 6e 20 20 20 00 6e 6f 6e 65     r .vmxon   .none
  20b338:	20 20 20 20 00 49 33 76 69 6c 00 00 00 00 00 00         .I3vil......
  20b348:	42 80 20 00 00 00 00 00 78 80 20 00 00 00 00 00     B. .....x. .....
  20b358:	06 81 20 00 00 00 00 00 46 81 20 00 00 00 00 00     .. .....F. .....
  20b368:	98 81 20 00 00 00 00 00 de 81 20 00 00 00 00 00     .. ....... .....
  20b378:	81 86 20 00 00 00 00 00 81 86 20 00 00 00 00 00     .. ....... .....
  20b388:	81 86 20 00 00 00 00 00 81 86 20 00 00 00 00 00     .. ....... .....
  20b398:	81 86 20 00 00 00 00 00 81 86 20 00 00 00 00 00     .. ....... .....
  20b3a8:	81 86 20 00 00 00 00 00 81 86 20 00 00 00 00 00     .. ....... .....
  20b3b8:	81 86 20 00 00 00 00 00 81 86 20 00 00 00 00 00     .. ....... .....
  20b3c8:	b2 84 20 00 00 00 00 00 eb 81 20 00 00 00 00 00     .. ....... .....
  20b3d8:	81 86 20 00 00 00 00 00 81 86 20 00 00 00 00 00     .. ....... .....
  20b3e8:	81 86 20 00 00 00 00 00 81 86 20 00 00 00 00 00     .. ....... .....
  20b3f8:	eb 81 20 00 00 00 00 00 81 86 20 00 00 00 00 00     .. ....... .....
  20b408:	81 86 20 00 00 00 00 00 81 86 20 00 00 00 00 00     .. ....... .....
  20b418:	81 86 20 00 00 00 00 00 e2 81 20 00 00 00 00 00     .. ....... .....
  20b428:	f8 81 20 00 00 00 00 00 e2 81 20 00 00 00 00 00     .. ....... .....
  20b438:	81 86 20 00 00 00 00 00 81 86 20 00 00 00 00 00     .. ....... .....
  20b448:	18 85 20 00 00 00 00 00 81 86 20 00 00 00 00 00     .. ....... .....
  20b458:	ef 81 20 00 00 00 00 00 81 86 20 00 00 00 00 00     .. ....... .....
  20b468:	81 86 20 00 00 00 00 00 e2 81 20 00 00 00 00 00     .. ....... .....
  20b478:	0a 50 41 4e 49 43 3a 20 00 00 00 00 00 00 00 00     .PANIC: ........
	...
